 csgo-legacy-release

 Timestamp is 64cd55d0 (Fri Aug  4 12:47:28 2023)

 Preferred load address is 10000000

 Start         Length     Name                   Class
 0001:00000000 000046c0H .text$di                CODE
 0001:000046c0 00124080H .text$mn                CODE
 0001:00128740 00000450H .text$x                 CODE
 0001:00128b90 00003188H .text$yd                CODE
 0002:00000000 00000210H .idata$5                DATA
 0002:00000210 00000008H .00cfg                  DATA
 0002:00000218 00000004H .CRT$XCA                DATA
 0002:0000021c 0000000cH .CRT$XCC                DATA
 0002:00000228 00000008H .CRT$XCL                DATA
 0002:00000230 0000041cH .CRT$XCU                DATA
 0002:0000064c 00000004H .CRT$XCZ                DATA
 0002:00000650 00000004H .CRT$XIA                DATA
 0002:00000654 00000024H .CRT$XIC                DATA
 0002:00000678 00000004H .CRT$XIZ                DATA
 0002:0000067c 00000004H .CRT$XLA                DATA
 0002:00000680 00000004H .CRT$XLZ                DATA
 0002:00000684 00000004H .CRT$XPA                DATA
 0002:00000688 00000008H .CRT$XPX                DATA
 0002:00000690 00000004H .CRT$XPXA               DATA
 0002:00000694 00000004H .CRT$XPZ                DATA
 0002:00000698 00000004H .CRT$XTA                DATA
 0002:0000069c 00000004H .CRT$XTZ                DATA
 0002:000006a0 00000000H .gfids$y                DATA
 0002:000006a0 000328e0H .rdata                  DATA
 0002:00032f80 00000000H .rdata$CastGuardVftablesA DATA
 0002:00032f80 00000000H .rdata$CastGuardVftablesC DATA
 0002:00032f80 00000018H .rdata$T                DATA
 0002:00032f98 00000750H .rdata$r                DATA
 0002:000336e8 0000009cH .rdata$sxdata           DATA
 0002:00033784 00000108H .rdata$voltmd           DATA
 0002:0003388c 00000398H .rdata$zzzdbg           DATA
 0002:00033c24 00000004H .rtc$IAA                DATA
 0002:00033c28 00000000H .rtc$IMZ                DATA
 0002:00033c28 00000004H .rtc$IZZ                DATA
 0002:00033c2c 00000004H .rtc$TAA                DATA
 0002:00033c30 00000000H .rtc$TMZ                DATA
 0002:00033c30 00000004H .rtc$TZZ                DATA
 0002:00033c34 00000004H .tls                    DATA
 0002:00033c38 00000008H .tls$                   DATA
 0002:00033c40 00000008H .tls$ZZZ                DATA
 0002:00033c48 000013b8H .xdata$x                DATA
 0002:00035000 00000000H .edata                  DATA
 0002:00035000 0000003cH .idata$2                DATA
 0002:0003503c 00000014H .idata$3                DATA
 0002:00035050 00000210H .idata$4                DATA
 0002:00035260 000009a2H .idata$6                DATA
 0003:00000000 0006f1a0H .data                   DATA
 0003:0006f1a0 00000168H .data$r                 DATA
 0003:0006f308 00000228H .data$rs                DATA
 0003:0006f530 0000a11cH .bss                    DATA
 0004:00000000 00002608H _RDATA                  DATA
 0005:00000000 00000060H .rsrc$01                DATA
 0005:00000060 00000098H .rsrc$02                DATA

  Address         Publics by Value              Rva+Base       Lib:Object

 0000:00000000       ___AbsoluteZero            00000000     <absolute>
 0000:00000000       ___arm64x_extra_rfe_table  00000000     <absolute>
 0000:00000000       ___arm64x_extra_rfe_table_size 00000000     <absolute>
 0000:00000000       ___arm64x_native_entrypoint 00000000     <absolute>
 0000:00000000       ___arm64x_redirection_metadata 00000000     <absolute>
 0000:00000000       ___arm64x_redirection_metadata_count 00000000     <absolute>
 0000:00000000       ___dynamic_value_reloc_table 00000000     <absolute>
 0000:00000000       ___enclave_config          00000000     <absolute>
 0000:00000000       ___guard_check_icall_a64n_fptr 00000000     <absolute>
 0000:00000000       ___guard_eh_cont_count     00000000     <absolute>
 0000:00000000       ___guard_eh_cont_table     00000000     <absolute>
 0000:00000000       ___guard_fids_count        00000000     <absolute>
 0000:00000000       ___guard_fids_table        00000000     <absolute>
 0000:00000000       ___guard_iat_count         00000000     <absolute>
 0000:00000000       ___guard_iat_table         00000000     <absolute>
 0000:00000000       ___guard_longjmp_count     00000000     <absolute>
 0000:00000000       ___guard_longjmp_table     00000000     <absolute>
 0000:00000000       ___hybrid_auxiliary_iat    00000000     <absolute>
 0000:00000000       ___hybrid_auxiliary_iat_copy 00000000     <absolute>
 0000:00000000       ___hybrid_code_map         00000000     <absolute>
 0000:00000000       ___hybrid_code_map_count   00000000     <absolute>
 0000:00000000       ___x64_code_ranges_to_entry_points 00000000     <absolute>
 0000:00000000       ___x64_code_ranges_to_entry_points_count 00000000     <absolute>
 0000:00000000       __except_list              00000000     <absolute>
 0000:00000027       ___safe_se_handler_count   00000027     <absolute>
 0000:0000002c       __tls_array                0000002c     <absolute>
 0000:00000100       ___guard_flags             00000100     <absolute>
 0000:00000000       ___ImageBase               10000000     <linker-defined>
 0001:000046c0       ??0ImDrawList@@QAE@PBUImDrawListSharedData@@@Z 100056c0 f i imgui.obj
 0001:00004780       ___local_stdio_printf_options 10005780 f i imgui.obj
 0001:00004790       ___local_stdio_scanf_options 10005790 f i imgui.obj
 0001:000047a0       _sscanf                    100057a0 f i imgui.obj
 0001:000047d0       ??0ImGuiContext@@QAE@PAUImFontAtlas@@@Z 100057d0 f i imgui.obj
 0001:000054f0       ??_I@YGXPAXIIP6EX0@Z@Z     100064f0 f i imgui.obj
 0001:00005520       ??0ImGuiWindowTempData@@QAE@XZ 10006520 f i imgui.obj
 0001:00005750       ?MenuBarRect@ImGuiWindow@@QBE?AUImRect@@XZ 10006750 f i imgui.obj
 0001:00005810       ??0exception@std@@QAE@ABV01@@Z 10006810 f i imgui.obj
 0001:00005840       ?what@exception@std@@UBEPBDXZ 10006840 f i imgui.obj
 0001:00005850       ??_Ebad_alloc@std@@UAEPAXI@Z 10006850 f i * CIL library *:* CIL module *
 0001:00005850       ??_Ebad_array_new_length@std@@UAEPAXI@Z 10006850 f i * CIL library *:* CIL module *
 0001:00005850       ??_Eexception@std@@UAEPAXI@Z 10006850 f i * CIL library *:* CIL module *
 0001:00005850       ??_Eruntime_error@std@@UAEPAXI@Z 10006850 f i * CIL library *:* CIL module *
 0001:00005850       ??_Gbad_alloc@std@@UAEPAXI@Z 10006850 f i imgui.obj
 0001:00005850       ??_Gbad_array_new_length@std@@UAEPAXI@Z 10006850 f i imgui.obj
 0001:00005850       ??_Gexception@std@@UAEPAXI@Z 10006850 f i imgui.obj
 0001:00005850       ??_Gruntime_error@std@@UAEPAXI@Z 10006850 f i jsoncpp.obj
 0001:00005880       ??1bad_alloc@std@@UAE@XZ   10006880 f i imgui.obj
 0001:00005880       ??1bad_array_new_length@std@@UAE@XZ 10006880 f i imgui.obj
 0001:00005880       ??1bad_exception@std@@UAE@XZ 10006880 f i libvcruntime:frame.obj
 0001:00005880       ??1failure@ios_base@std@@UAE@XZ 10006880 f i jsoncpp.obj
 0001:00005880       ??1length_error@std@@UAE@XZ 10006880 f i libcpmt:xthrow.obj
 0001:00005880       ??1out_of_range@std@@UAE@XZ 10006880 f i libcpmt:xthrow.obj
 0001:00005880       ??1runtime_error@std@@UAE@XZ 10006880 f i jsoncpp.obj
 0001:00005880       ??1system_error@std@@UAE@XZ 10006880 f i jsoncpp.obj
 0001:000058a0       ??0bad_array_new_length@std@@QAE@XZ 100068a0 f i imgui.obj
 0001:000058c0       ?_Throw_bad_array_new_length@std@@YAXXZ 100068c0 f i imgui.obj
 0001:000058c0       ?__scrt_throw_std_bad_array_new_length@@YAXXZ 100068c0 f i LIBCMT:throw_bad_alloc.obj
 0001:000058e0       ??0bad_array_new_length@std@@QAE@ABV01@@Z 100068e0 f i imgui.obj
 0001:00005920       ??0bad_alloc@std@@QAE@ABV01@@Z 10006920 f i imgui.obj
 0001:00005960       ?_Throw_tree_length_error@std@@YAXXZ 10006960 f i imgui.obj
 0001:00005990       ??0ImGuiStyle@@QAE@XZ      10006990 f   imgui.obj
 0001:00005b00       ??0ImGuiIO@@QAE@XZ         10006b00 f   imgui.obj
 0001:00005e20       ?ImFormatString@@YAHPADIPBDZZ 10006e20 f   imgui.obj
 0001:00005e70       ?ImHashStr@@YAIPBDII@Z     10006e70 f   imgui.obj
 0001:00005f10       ?ImFileOpen@@YAPAU_iobuf@@PBD0@Z 10006f10 f   imgui.obj
 0001:00005fc0       ?ImFileLoadToMemory@@YAPAXPBD0PAIH@Z 10006fc0 f   imgui.obj
 0001:000060c0       ?ImTextCharFromUtf8@@YAHPAIPBD1@Z 100070c0 f   imgui.obj
 0001:00006250       ?ImTextStrFromUtf8@@YAHPAGHPBD1PAPBD@Z 10007250 f   imgui.obj
 0001:000062c0       ?ImTextCountCharsFromUtf8@@YAHPBD0@Z 100072c0 f   imgui.obj
 0001:00006300       ?ImTextStrToUtf8@@YAHPADHPBG1@Z 10007300 f   imgui.obj
 0001:00006420       ?ImTextCountUtf8BytesFromStr@@YAHPBG0@Z 10007420 f   imgui.obj
 0001:00006490       ?appendf@ImGuiTextBuffer@@QAAXPBDZZ 10007490 f   imgui.obj
 0001:000064b0       ?appendfv@ImGuiTextBuffer@@QAEXPBDPAD@Z 100074b0 f   imgui.obj
 0001:000065a0       ?RenderText@ImGui@@YAXUImVec2@@PBD1_N@Z 100075a0 f   imgui.obj
 0001:00006760       ?RenderTextWrapped@ImGui@@YAXUImVec2@@PBD1M@Z 10007760 f   imgui.obj
 0001:00006930       ?RenderTextClippedEx@ImGui@@YAXPAUImDrawList@@ABUImVec2@@1PBD2PBU3@1PBUImRect@@@Z 10007930 f   imgui.obj
 0001:00006cf0       ?RenderTextClipped@ImGui@@YAXABUImVec2@@0PBD1PBU2@0PBUImRect@@@Z 10007cf0 f   imgui.obj
 0001:00006d80       ?RenderFrame@ImGui@@YAXUImVec2@@0I_NM@Z 10007d80 f   imgui.obj
 0001:00007100       ?RenderArrow@ImGui@@YAXPAUImDrawList@@UImVec2@@IHM@Z 10008100 f   imgui.obj
 0001:00007260       ?RenderNavHighlight@ImGui@@YAXABUImRect@@IH@Z 10008260 f   imgui.obj
 0001:00007430       ??0ImGuiWindow@@QAE@PAUImGuiContext@@PBD@Z 10008430 f   imgui.obj
 0001:00007a40       ?GetID@ImGuiWindow@@QAEIH@Z 10008a40 f   imgui.obj
 0001:00007ab0       ?GcCompactTransientWindowBuffers@ImGui@@YAXPAUImGuiWindow@@@Z 10008ab0 f   imgui.obj
 0001:00007c60       ?SetActiveID@ImGui@@YAXIPAUImGuiWindow@@@Z 10008c60 f   imgui.obj
 0001:00007d40       ?SetFocusID@ImGui@@YAXIPAUImGuiWindow@@@Z 10008d40 f   imgui.obj
 0001:00007e00       ?ClearActiveID@ImGui@@YAXXZ 10008e00 f   imgui.obj
 0001:00007e80       ?ItemSize@ImGui@@YAXABUImVec2@@M@Z 10008e80 f   imgui.obj
 0001:00007ff0       ?ItemAdd@ImGui@@YA_NABUImRect@@IPBU2@@Z 10008ff0 f   imgui.obj
 0001:000081a0       ?IsItemHovered@ImGui@@YA_NH@Z 100091a0 f   imgui.obj
 0001:00008240       ?ItemHoverable@ImGui@@YA_NABUImRect@@I@Z 10009240 f   imgui.obj
 0001:000084b0       ?MemAlloc@ImGui@@YAPAXI@Z  100094b0 f   imgui.obj
 0001:000084d0       ?MemFree@ImGui@@YAXPAX@Z   100094d0 f   imgui.obj
 0001:000084f0       ?CreateContext@ImGui@@YAPAUImGuiContext@@PAUImFontAtlas@@@Z 100094f0 f   imgui.obj
 0001:00008670       ?UpdateMouseMovingWindowNewFrame@ImGui@@YAXXZ 10009670 f   imgui.obj
 0001:00008860       ?UpdateMouseMovingWindowEndFrame@ImGui@@YAXXZ 10009860 f   imgui.obj
 0001:00009300       ?UpdateHoveredWindowAndCaptureFlags@ImGui@@YAXXZ 1000a300 f   imgui.obj
 0001:00009620       ?NewFrame@ImGui@@YAXXZ     1000a620 f   imgui.obj
 0001:0000a200       ?EndFrame@ImGui@@YAXXZ     1000b200 f   imgui.obj
 0001:0000a4a0       ?Render@ImGui@@YAXXZ       1000b4a0 f   imgui.obj
 0001:0000a770       ?IsKeyPressed@ImGui@@YA_NH_N@Z 1000b770 f   imgui.obj
 0001:0000a800       ?FindWindowByName@ImGui@@YAPAUImGuiWindow@@PBD@Z 1000b800 f   imgui.obj
 0001:0000ce80       ?Begin@ImGui@@YA_NPBDPA_NH@Z 1000de80 f   imgui.obj
 0001:0000f910       ?End@ImGui@@YAX_N@Z        10010910 f   imgui.obj
 0001:0000fb30       ?FocusWindow@ImGui@@YAXPAUImGuiWindow@@@Z 10010b30 f   imgui.obj
 0001:0000fcb0       ?FocusTopMostWindowUnderOne@ImGui@@YAXPAUImGuiWindow@@0@Z 10010cb0 f   imgui.obj
 0001:0000fd50       ?PushFont@ImGui@@YAXPAUImFont@@@Z 10010d50 f   imgui.obj
 0001:0000fe70       ?PopFont@ImGui@@YAXXZ      10010e70 f   imgui.obj
 0001:0000ff50       ?PopStyleVar@ImGui@@YAXH@Z 10010f50 f   imgui.obj
 0001:0000ffd0       ?SetWindowPos@ImGui@@YAXPAUImGuiWindow@@ABUImVec2@@H@Z 10010fd0 f   imgui.obj
 0001:000100b0       ?SetWindowSize@ImGui@@YAXPAUImGuiWindow@@ABUImVec2@@H@Z 100110b0 f   imgui.obj
 0001:00010130       ?PushID@ImGui@@YAXPBD@Z    10011130 f   imgui.obj
 0001:00010300       ?ScrollToBringRectIntoView@ImGui@@YA?AUImVec2@@PAUImGuiWindow@@ABUImRect@@@Z 10011300 f   imgui.obj
 0001:000104d0       ?SetScrollFromPosY@ImGui@@YAXPAUImGuiWindow@@MM@Z 100114d0 f   imgui.obj
 0001:00010590       ?BeginTooltip@ImGui@@YAXXZ 10011590 f   imgui.obj
 0001:00010680       ?BeginTooltipEx@ImGui@@YAXH_N@Z 10011680 f   imgui.obj
 0001:00010720       ?SetTooltip@ImGui@@YAXPBDZZ 10011720 f   imgui.obj
 0001:00010770       ?GetTopMostPopupModal@ImGui@@YAPAUImGuiWindow@@XZ 10011770 f   imgui.obj
 0001:000107b0       ?ClosePopupsOverWindow@ImGui@@YAXPAUImGuiWindow@@_N@Z 100117b0 f   imgui.obj
 0001:00010870       ?ClosePopupToLevel@ImGui@@YAXH_N@Z 10011870 f   imgui.obj
 0001:00010930       ?FindBestWindowPosForPopupEx@ImGui@@YA?AUImVec2@@ABU2@0PAHABUImRect@@2W4ImGuiPopupPositionPolicy@@@Z 10011930 f   imgui.obj
 0001:00010b60       ?FindBestWindowPosForPopup@ImGui@@YA?AUImVec2@@PAUImGuiWindow@@@Z 10011b60 f   imgui.obj
 0001:000116e0       ?NavInitWindow@ImGui@@YAXPAUImGuiWindow@@_N@Z 100126e0 f   imgui.obj
 0001:00011880       ?GetNavInputAmount@ImGui@@YAMHW4ImGuiInputReadMode@@@Z 10012880 f   imgui.obj
 0001:00013740       ?ClearDragDrop@ImGui@@YAXXZ 10014740 f   imgui.obj
 0001:00013820       ?LogText@ImGui@@YAXPBDZZ   10014820 f   imgui.obj
 0001:000138d0       ?LogRenderedText@ImGui@@YAXPBUImVec2@@PBD1@Z 100148d0 f   imgui.obj
 0001:00013a30       ?CreateNewWindowSettings@ImGui@@YAPAUImGuiWindowSettings@@PBD@Z 10014a30 f   imgui.obj
 0001:00013b10       ?LoadIniSettingsFromMemory@ImGui@@YAXPBDI@Z 10014b10 f   imgui.obj
 0001:00013ce0       ?SaveIniSettingsToDisk@ImGui@@YAXPBD@Z 10014ce0 f   imgui.obj
 0001:00014e40       ??1?$_Tree@V?$_Tmap_traits@IMU?$less@I@std@@V?$allocator@U?$pair@$$CBIM@std@@@2@$0A@@std@@@std@@QAE@XZ 10015e40 f i imgui.obj
 0001:00014e80       ??1?$basic_string@DU?$char_traits@D@std@@V?$allocator@D@2@@std@@QAE@XZ 10015e80 f i imgui.obj
 0001:00014e80       ?_Tidy_deallocate@?$basic_string@DU?$char_traits@D@std@@V?$allocator@D@2@@std@@AAEXXZ 10015e80 f i imgui.obj
 0001:00014ed0       ?resize@?$ImVector@UImGuiGroupData@@@@QAEXH@Z 10015ed0 f i imgui.obj
 0001:00014f70       ?push_back@?$ImVector@UImGuiPopupData@@@@QAEXABUImGuiPopupData@@@Z 10015f70 f i imgui.obj
 0001:00014fe0       ?push_back@?$ImVector@UImGuiStyleMod@@@@QAEXABUImGuiStyleMod@@@Z 10015fe0 f i imgui.obj
 0001:000150a0       ?push_back@?$ImVector@UImGuiColorMod@@@@QAEXABUImGuiColorMod@@@Z 100160a0 f i imgui.obj
 0001:00015160       ?reserve@?$ImVector@I@@QAEXH@Z 10016160 f i imgui.obj
 0001:00015160       ?reserve@?$ImVector@M@@QAEXH@Z 10016160 f i imgui.obj
 0001:00015160       ?reserve@?$ImVector@PAUImGuiWindow@@@@QAEXH@Z 10016160 f i imgui.obj
 0001:00015160       ?reserve@?$ImVector@PAX@@QAEXH@Z 10016160 f i imgui_draw.obj
 0001:000151e0       ?resize@?$ImVector@H@@QAEXH@Z 100161e0 f i imgui.obj
 0001:000151e0       ?resize@?$ImVector@PAUImDrawList@@@@QAEXH@Z 100161e0 f i imgui.obj
 0001:00015290       ?push_back@?$ImVector@H@@QAEXABH@Z 10016290 f i imgui.obj
 0001:00015290       ?push_back@?$ImVector@PAE@@QAEXABQAE@Z 10016290 f i imgui_freetype.obj
 0001:00015290       ?push_back@?$ImVector@PAUImFont@@@@QAEXABQAUImFont@@@Z 10016290 f i imgui.obj
 0001:00015340       ?resize@?$ImVector@M@@QAEXH@Z 10016340 f i imgui.obj
 0001:000153f0       ?reserve@?$ImVector@UImDrawVert@@@@QAEXH@Z 100163f0 f i imgui.obj
 0001:00015470       ?insert@?$ImVector@UImGuiStoragePair@ImGuiStorage@@@@QAEPAUImGuiStoragePair@ImGuiStorage@@PBU23@ABU23@@Z 10016470 f i imgui.obj
 0001:00015570       ?reserve@?$ImVector@D@@QAEXH@Z 10016570 f i imgui.obj
 0001:000155e0       ?reserve@?$ImVector@G@@QAEXH@Z 100165e0 f i imgui.obj
 0001:00015650       ?reserve@?$ImVector@UImGuiPopupData@@@@QAEXH@Z 10016650 f i imgui.obj
 0001:000156d0       ?reserve@?$ImVector@UImVec2@@@@QAEXH@Z 100166d0 f i imgui.obj
 0001:00015750       ??$_Deallocate@$07$0A@@std@@YAXPAXI@Z 10016750 f i imgui.obj
 0001:00015790       ??$_Find_lower_bound@I@?$_Tree@V?$_Tmap_traits@IMU?$less@I@std@@V?$allocator@U?$pair@$$CBIM@std@@@2@$0A@@std@@@std@@IBE?AU?$_Tree_find_result@PAU?$_Tree_node@U?$pair@$$CBIM@std@@PAX@std@@@1@ABI@Z 10016790 f i imgui.obj
 0001:000157e0       ??$_Erase_tree@V?$allocator@U?$_Tree_node@U?$pair@$$CBIM@std@@PAX@std@@@std@@@?$_Tree_val@U?$_Tree_simple_types@U?$pair@$$CBIM@std@@@std@@@std@@QAEXAAV?$allocator@U?$_Tree_node@U?$pair@$$CBIM@std@@PAX@std@@@1@PAU?$_Tree_node@U?$pair@$$CBIM@std@@PAX@1@@Z 100167e0 f i imgui.obj
 0001:00015820       ?_Insert_node@?$_Tree_val@U?$_Tree_simple_types@U?$pair@$$CBIM@std@@@std@@@std@@QAEPAU?$_Tree_node@U?$pair@$$CBIM@std@@PAX@2@U?$_Tree_id@PAU?$_Tree_node@U?$pair@$$CBIM@std@@PAX@std@@@2@QAU32@@Z 10016820 f i imgui.obj
 0001:00015820       ?_Insert_node@?$_Tree_val@U?$_Tree_simple_types@U?$pair@$$CBVCZString@Value@Json@@V23@@std@@@std@@@std@@QAEPAU?$_Tree_node@U?$pair@$$CBVCZString@Value@Json@@V23@@std@@PAX@2@U?$_Tree_id@PAU?$_Tree_node@U?$pair@$$CBVCZString@Value@Json@@V23@@std@@PAX@std@@@2@QAU32@@Z 10016820 f i jsoncpp.obj
 0001:00015a10       _sqrtf                     10016a10 f i imgui_draw.obj
 0001:0001c5b0       ?StyleColorsDark@ImGui@@YAXPAUImGuiStyle@@@Z 1001d5b0 f   imgui_draw.obj
 0001:0001ca70       ?Clear@ImDrawList@@QAEXXZ  1001da70 f   imgui_draw.obj
 0001:0001cba0       ?ClearFreeMemory@ImDrawList@@QAEXXZ 1001dba0 f   imgui_draw.obj
 0001:0001cd00       ?AddDrawCmd@ImDrawList@@QAEXXZ 1001dd00 f   imgui_draw.obj
 0001:0001cd70       ?UpdateClipRect@ImDrawList@@QAEXXZ 1001dd70 f   imgui_draw.obj
 0001:0001cea0       ?UpdateTextureID@ImDrawList@@QAEXXZ 1001dea0 f   imgui_draw.obj
 0001:0001cf70       ?PushClipRectFullScreen@ImDrawList@@QAEXXZ 1001df70 f   imgui_draw.obj
 0001:0001d020       ?PrimReserve@ImDrawList@@QAEXHH@Z 1001e020 f   imgui_draw.obj
 0001:0001d100       ?PrimRectUV@ImDrawList@@QAEXABUImVec2@@000I@Z 1001e100 f   imgui_draw.obj
 0001:0001d220       ?AddPolyline@ImDrawList@@QAEXPBUImVec2@@HI_NM@Z 1001e220 f   imgui_draw.obj
 0001:0001dd30       ?AddConvexPolyFilled@ImDrawList@@QAEXPBUImVec2@@HI@Z 1001ed30 f   imgui_draw.obj
 0001:0001e0c0       ?PathArcToFast@ImDrawList@@QAEXABUImVec2@@MHH@Z 1001f0c0 f   imgui_draw.obj
 0001:0001e200       ?PathArcTo@ImDrawList@@QAEXABUImVec2@@MMMH@Z 1001f200 f   imgui_draw.obj
 0001:0001e370       ?PathRect@ImDrawList@@QAEXABUImVec2@@0MH@Z 1001f370 f   imgui_draw.obj
 0001:0001e6a0       ?AddLine@ImDrawList@@QAEXABUImVec2@@0IM@Z 1001f6a0 f   imgui_draw.obj
 0001:0001e7c0       ?AddRectFilled@ImDrawList@@QAEXABUImVec2@@0IMH@Z 1001f7c0 f   imgui_draw.obj
 0001:0001e910       ?AddTriangle@ImDrawList@@QAEXABUImVec2@@00IM@Z 1001f910 f   imgui_draw.obj
 0001:0001ea20       ?AddTriangleFilled@ImDrawList@@QAEXABUImVec2@@00I@Z 1001fa20 f   imgui_draw.obj
 0001:0001eb30       ?AddImage@ImDrawList@@QAEXPAXABUImVec2@@111I@Z 1001fb30 f   imgui_draw.obj
 0001:0001ebe0       ?AddImageRounded@ImDrawList@@QAEXPAXABUImVec2@@111IMH@Z 1001fbe0 f   imgui_draw.obj
 0001:0001ede0       ?ClearFreeMemory@ImDrawListSplitter@@QAEXXZ 1001fde0 f   imgui_draw.obj
 0001:0001eef0       ?Merge@ImDrawListSplitter@@QAEXPAUImDrawList@@@Z 1001fef0 f   imgui_draw.obj
 0001:0001f1e0       ?SetCurrentChannel@ImDrawListSplitter@@QAEXPAUImDrawList@@H@Z 100201e0 f   imgui_draw.obj
 0001:0001f270       ??0ImFontConfig@@QAE@XZ    10020270 f   imgui_draw.obj
 0001:0001f310       ?AddFont@ImFontAtlas@@QAEPAUImFont@@PBUImFontConfig@@@Z 10020310 f   imgui_draw.obj
 0001:0001f4e0       ?AddFontDefault@ImFontAtlas@@QAEPAUImFont@@PBUImFontConfig@@@Z 100204e0 f   imgui_draw.obj
 0001:0001f5f0       ?AddFontFromMemoryCompressedTTF@ImFontAtlas@@QAEPAUImFont@@PBXHMPBUImFontConfig@@PBG@Z 100205f0 f   imgui_draw.obj
 0001:0001f7b0       ?AddFontFromMemoryCompressedBase85TTF@ImFontAtlas@@QAEPAUImFont@@PBDMPBUImFontConfig@@PBG@Z 100207b0 f   imgui_draw.obj
 0001:0001f900       ?ImFontAtlasBuildWithStbTruetype@@YA_NPAUImFontAtlas@@@Z 10020900 f   imgui_draw.obj
 0001:00020d80       ?ImFontAtlasBuildRegisterDefaultCustomRects@@YAXPAUImFontAtlas@@@Z 10021d80 f   imgui_draw.obj
 0001:00020df0       ?ImFontAtlasBuildPackCustomRects@@YAXPAUImFontAtlas@@PAX@Z 10021df0 f   imgui_draw.obj
 0001:00020f00       ?ImFontAtlasBuildFinish@@YAXPAUImFontAtlas@@@Z 10021f00 f   imgui_draw.obj
 0001:000211b0       ??0ImFont@@QAE@XZ          100221b0 f   imgui_draw.obj
 0001:00021250       ?ClearOutputData@ImFont@@QAEXXZ 10022250 f   imgui_draw.obj
 0001:00021330       ?BuildLookupTable@ImFont@@QAEXXZ 10022330 f   imgui_draw.obj
 0001:000215c0       ?GrowIndex@ImFont@@QAEXH@Z 100225c0 f   imgui_draw.obj
 0001:00021670       ?AddGlyph@ImFont@@QAEXGMMMMMMMMM@Z 10022670 f   imgui_draw.obj
 0001:00021790       ?CalcWordWrapPositionA@ImFont@@QBEPBDMPBD0M@Z 10022790 f   imgui_draw.obj
 0001:00021900       ?CalcTextSizeA@ImFont@@QBE?AUImVec2@@MMMPBD0PAPBD@Z 10022900 f   imgui_draw.obj
 0001:00021ab0       ?RenderText@ImFont@@QBEXPAUImDrawList@@MUImVec2@@IABUImVec4@@PBD3M_N@Z 10022ab0 f   imgui_draw.obj
 0001:00022060       ?RenderMouseCursor@ImGui@@YAXPAUImDrawList@@UImVec2@@MHIII@Z 10023060 f   imgui_draw.obj
 0001:00022750       ?resize@?$ImVector@UImFontGlyph@@@@QAEXH@Z 10023750 f i imgui_draw.obj
 0001:00022800       ?push_back@?$ImVector@UImFontAtlasCustomRect@@@@QAEXABUImFontAtlasCustomRect@@@Z 10023800 f i imgui_draw.obj
 0001:000228e0       ?push_back@?$ImVector@UImDrawCmd@@@@QAEXABUImDrawCmd@@@Z 100238e0 f i imgui_draw.obj
 0001:00022940       ?reserve@?$ImVector@UImVec4@@@@QAEXH@Z 10023940 f i imgui_draw.obj
 0001:000229c0       ?reserve@?$ImVector@UImDrawCmd@@@@QAEXH@Z 100239c0 f i imgui_draw.obj
 0001:00022da0       ?ImFontAtlasBuildWithFreeType@@YA_NPAUFT_LibraryRec_@@PAUImFontAtlas@@I@Z 10023da0 f   imgui_freetype.obj
 0001:00024130       ?reserve@?$ImVector@UImFontBuildSrcGlyphFT@@@@QAEXH@Z 10025130 f i imgui_freetype.obj
 0001:00024480       ?ImGui_ImplDX9_RenderDrawData@@YAXPBUImDrawData@@@Z 10025480 f   imgui_impl_dx9.obj
 0001:00024850       ?ImGui_ImplDX9_CreateDeviceObjects@@YA_NXZ 10025850 f   imgui_impl_dx9.obj
 0001:00024a00       ?ImGui_ImplDX9_InvalidateDeviceObjects@@YAXXZ 10025a00 f   imgui_impl_dx9.obj
 0001:000252a0       ?ImGui_ImplWin32_NewFrame@@YAXXZ 100262a0 f   imgui_impl_win32.obj
 0001:000256d0       ?TextEx@ImGui@@YAXPBD0H@Z  100266d0 f   imgui_widgets.obj
 0001:00025b30       ?Text@ImGui@@YAXPBDZZ      10026b30 f   imgui_widgets.obj
 0001:00025b50       ?TextV@ImGui@@YAXPBDPAD@Z  10026b50 f   imgui_widgets.obj
 0001:00025be0       ?TextColored@ImGui@@YAXABUImVec4@@PBDZZ 10026be0 f   imgui_widgets.obj
 0001:00025c60       ?ButtonBehavior@ImGui@@YA_NABUImRect@@IPA_N1H@Z 10026c60 f   imgui_widgets.obj
 0001:00026170       ?CollapseButton@ImGui@@YA_NIABUImVec2@@@Z 10027170 f   imgui_widgets.obj
 0001:00026530       ?ScrollbarEx@ImGui@@YA_NABUImRect@@IW4ImGuiAxis@@PAMMMH@Z 10027530 f   imgui_widgets.obj
 0001:00026b50       ?Scrollbar@ImGui@@YAXW4ImGuiAxis@@@Z 10027b50 f   imgui_widgets.obj
 0001:00026cc0       ?Selectable@ImGui@@YA_NPBD_NHABUImVec2@@@Z 10027cc0 f   imgui_widgets.obj
 0001:000271c0       ?SetColumnOffset@ImGui@@YAXHM@Z 100281c0 f   imgui_widgets.obj
 0001:000272c0       ?EndColumns@ImGui@@YAXXZ   100282c0 f   imgui_widgets.obj
 0001:00027860       ??$clamp@M@std@@YAABMABM00@Z 10028860 f i imgui_widgets.obj
 0001:00027880       ??0exception@std@@QAE@QBD@Z 10028880 f i jsoncpp.obj
 0001:000278c0       _snprintf                  100288c0 f i jsoncpp.obj
 0001:00027900       ?_Xlen_string@std@@YAXXZ   10028900 f i jsoncpp.obj
 0001:00027910       ??0runtime_error@std@@QAE@ABV01@@Z 10028910 f i jsoncpp.obj
 0001:00027950       ?default_error_condition@error_category@std@@UBE?AVerror_condition@2@H@Z 10028950 f i jsoncpp.obj
 0001:00027970       ?equivalent@error_category@std@@UBE_NHABVerror_condition@2@@Z 10028970 f i jsoncpp.obj
 0001:000279b0       ?equivalent@error_category@std@@UBE_NABVerror_code@2@H@Z 100289b0 f i jsoncpp.obj
 0001:000279e0       ?make_error_code@std@@YA?AVerror_code@1@W4io_errc@1@@Z 100289e0 f i jsoncpp.obj
 0001:00027a00       ??0_System_error@std@@IAE@Verror_code@1@ABV?$basic_string@DU?$char_traits@D@std@@V?$allocator@D@2@@1@@Z 10028a00 f i jsoncpp.obj
 0001:00027bc0       ??_E_System_error@std@@UAEPAXI@Z 10028bc0 f i * CIL library *:* CIL module *
 0001:00027bc0       ??_Efailure@ios_base@std@@UAEPAXI@Z 10028bc0 f i * CIL library *:* CIL module *
 0001:00027bc0       ??_Esystem_error@std@@UAEPAXI@Z 10028bc0 f i * CIL library *:* CIL module *
 0001:00027bc0       ??_G_System_error@std@@UAEPAXI@Z 10028bc0 f i jsoncpp.obj
 0001:00027bc0       ??_Gfailure@ios_base@std@@UAEPAXI@Z 10028bc0 f i jsoncpp.obj
 0001:00027bc0       ??_Gsystem_error@std@@UAEPAXI@Z 10028bc0 f i jsoncpp.obj
 0001:00027bf0       ??0system_error@std@@QAE@ABV01@@Z 10028bf0 f i jsoncpp.obj
 0001:00027c40       ??0_System_error@std@@QAE@ABV01@@Z 10028c40 f i jsoncpp.obj
 0001:00027c90       ?name@_Iostream_error_category2@std@@UBEPBDXZ 10028c90 f i jsoncpp.obj
 0001:00027ca0       ?message@_Iostream_error_category2@std@@UBE?AV?$basic_string@DU?$char_traits@D@std@@V?$allocator@D@2@@2@H@Z 10028ca0 f i jsoncpp.obj
 0001:00027d20       ??_E_Iostream_error_category2@std@@UAEPAXI@Z 10028d20 f i * CIL library *:* CIL module *
 0001:00027d20       ??_G_Iostream_error_category2@std@@UAEPAXI@Z 10028d20 f i jsoncpp.obj
 0001:00027d40       ??_E_Facet_base@std@@UAEPAXI@Z 10028d40 f i * CIL library *:* CIL module *
 0001:00027d40       ??_G_Facet_base@std@@UAEPAXI@Z 10028d40 f i jsoncpp.obj
 0001:00027d70       ?_Incref@facet@locale@std@@UAEXXZ 10028d70 f i jsoncpp.obj
 0001:00027d80       ?_Decref@facet@locale@std@@UAEPAV_Facet_base@3@XZ 10028d80 f i jsoncpp.obj
 0001:00027da0       ??1locale@std@@QAE@XZ      10028da0 f i jsoncpp.obj
 0001:00027dc0       ?do_tolower@?$ctype@D@std@@MBEDD@Z 10028dc0 f i jsoncpp.obj
 0001:00027de0       ?do_tolower@?$ctype@D@std@@MBEPBDPADPBD@Z 10028de0 f i jsoncpp.obj
 0001:00027e10       ?do_toupper@?$ctype@D@std@@MBEDD@Z 10028e10 f i jsoncpp.obj
 0001:00027e30       ?do_toupper@?$ctype@D@std@@MBEPBDPADPBD@Z 10028e30 f i jsoncpp.obj
 0001:00027e60       ?do_widen@?$ctype@D@std@@MBEDD@Z 10028e60 f i jsoncpp.obj
 0001:00027e70       ?do_widen@?$ctype@D@std@@MBEPBDPBD0PAD@Z 10028e70 f i jsoncpp.obj
 0001:00027e90       ?do_narrow@?$ctype@D@std@@MBEDDD@Z 10028e90 f i jsoncpp.obj
 0001:00027ea0       ?do_narrow@?$ctype@D@std@@MBEPBDPBD0DPAD@Z 10028ea0 f i jsoncpp.obj
 0001:00027ec0       ??_E?$ctype@D@std@@MAEPAXI@Z 10028ec0 f i * CIL library *:* CIL module *
 0001:00027ec0       ??_G?$ctype@D@std@@MAEPAXI@Z 10028ec0 f i jsoncpp.obj
 0001:00027f20       ??0failure@ios_base@std@@QAE@PBDABVerror_code@2@@Z 10028f20 f i jsoncpp.obj
 0001:00027ff0       ?clear@ios_base@std@@QAEXH_N@Z 10028ff0 f i jsoncpp.obj
 0001:00028070       ??0failure@ios_base@std@@QAE@ABV012@@Z 10029070 f i jsoncpp.obj
 0001:000280c0       ??_Eios_base@std@@UAEPAXI@Z 100290c0 f i * CIL library *:* CIL module *
 0001:000280c0       ??_Gios_base@std@@UAEPAXI@Z 100290c0 f i jsoncpp.obj
 0001:00028280       ?parse@OurReader@Json@@QAE_NPBD0AAVValue@2@_N@Z 10029280 f   jsoncpp.obj
 0001:00028530       ?readValue@OurReader@Json@@AAE_NXZ 10029530 f   jsoncpp.obj
 0001:00028df0       ?readToken@OurReader@Json@@AAE_NAAVToken@12@@Z 10029df0 f   jsoncpp.obj
 0001:000292c0       ?readComment@OurReader@Json@@AAE_NXZ 1002a2c0 f   jsoncpp.obj
 0001:000293e0       ?addComment@OurReader@Json@@AAEXPBD0W4CommentPlacement@2@@Z 1002a3e0 f   jsoncpp.obj
 0001:00029520       ?readNumber@OurReader@Json@@AAE_N_N@Z 1002a520 f   jsoncpp.obj
 0001:000295e0       ?readObject@OurReader@Json@@AAE_NAAVToken@12@@Z 1002a5e0 f   jsoncpp.obj
 0001:0002a090       ?readArray@OurReader@Json@@AAE_NAAVToken@12@@Z 1002b090 f   jsoncpp.obj
 0001:0002a3c0       ?decodeNumber@OurReader@Json@@AAE_NAAVToken@12@@Z 1002b3c0 f   jsoncpp.obj
 0001:0002a520       ?decodeNumber@OurReader@Json@@AAE_NAAVToken@12@AAVValue@2@@Z 1002b520 f   jsoncpp.obj
 0001:0002a610       ?decodeDouble@OurReader@Json@@AAE_NAAVToken@12@AAVValue@2@@Z 1002b610 f   jsoncpp.obj
 0001:0002a9f0       ?decodeString@OurReader@Json@@AAE_NAAVToken@12@@Z 1002b9f0 f   jsoncpp.obj
 0001:0002ab60       ?decodeString@OurReader@Json@@AAE_NAAVToken@12@AAV?$basic_string@DU?$char_traits@D@std@@V?$allocator@D@2@@std@@@Z 1002bb60 f   jsoncpp.obj
 0001:0002b000       ?decodeUnicodeCodePoint@OurReader@Json@@AAE_NAAVToken@12@AAPBDPBDAAI@Z 1002c000 f   jsoncpp.obj
 0001:0002b210       ?decodeUnicodeEscapeSequence@OurReader@Json@@AAE_NAAVToken@12@AAPBDPBDAAI@Z 1002c210 f   jsoncpp.obj
 0001:0002b400       ?addError@OurReader@Json@@AAE_NABV?$basic_string@DU?$char_traits@D@std@@V?$allocator@D@2@@std@@AAVToken@12@PBD@Z 1002c400 f   jsoncpp.obj
 0001:0002b530       ?recoverFromError@OurReader@Json@@AAE_NW4TokenType@12@@Z 1002c530 f   jsoncpp.obj
 0001:0002b580       ?getLocationLineAndColumn@OurReader@Json@@ABE?AV?$basic_string@DU?$char_traits@D@std@@V?$allocator@D@2@@std@@PBD@Z 1002c580 f   jsoncpp.obj
 0001:0002b640       ?getFormattedErrorMessages@OurReader@Json@@QBE?AV?$basic_string@DU?$char_traits@D@std@@V?$allocator@D@2@@std@@XZ 1002c640 f   jsoncpp.obj
 0001:0002bbe0       ?parse@OurCharReader@Json@@UAE_NPBD0PAVValue@2@PAV?$basic_string@DU?$char_traits@D@std@@V?$allocator@D@2@@std@@@Z 1002cbe0 f i jsoncpp.obj
 0001:0002bc90       ??_EOurCharReader@Json@@UAEPAXI@Z 1002cc90 f i * CIL library *:* CIL module *
 0001:0002bc90       ??_GOurCharReader@Json@@UAEPAXI@Z 1002cc90 f i jsoncpp.obj
 0001:0002bcc0       ??1OurReader@Json@@QAE@XZ  1002ccc0 f i jsoncpp.obj
 0001:0002bd80       ??_ECharReaderBuilder@Json@@UAEPAXI@Z 1002cd80 f i * CIL library *:* CIL module *
 0001:0002bd80       ??_GCharReaderBuilder@Json@@UAEPAXI@Z 1002cd80 f i jsoncpp.obj
 0001:0002bdd0       ?newCharReader@CharReaderBuilder@Json@@UBEPAVCharReader@2@XZ 1002cdd0 f   jsoncpp.obj
 0001:0002c090       ?setDefaults@CharReaderBuilder@Json@@SAXPAVValue@2@@Z 1002d090 f   jsoncpp.obj
 0001:0002c6d0       ??_D?$basic_ostringstream@DU?$char_traits@D@std@@V?$allocator@D@2@@std@@QAEXXZ 1002d6d0 f i jsoncpp.obj
 0001:0002c730       ??5Json@@YAAAV?$basic_istream@DU?$char_traits@D@std@@@std@@AAV12@AAVValue@0@@Z 1002d730 f   jsoncpp.obj
 0001:0002c960       ?nullSingleton@Value@Json@@SAABV12@XZ 1002d960 f   jsoncpp.obj
 0001:0002ca80       ?throwRuntimeError@Json@@YAXABV?$basic_string@DU?$char_traits@D@std@@V?$allocator@D@2@@std@@@Z 1002da80 f   jsoncpp.obj
 0001:0002ca80       ___std_init_once_link_alternate_names_and_abort@0 1002da80 f   libcpmt:xonce2.obj
 0001:0002ca90       ??0CZString@Value@Json@@QAE@ABV012@@Z 1002da90 f   jsoncpp.obj
 0001:0002cb40       ??MCZString@Value@Json@@QBE_NABV012@@Z 1002db40 f   jsoncpp.obj
 0001:0002cbe0       ??8CZString@Value@Json@@QBE_NABV012@@Z 1002dbe0 f   jsoncpp.obj
 0001:0002cc80       ??0Value@Json@@QAE@W4ValueType@1@@Z 1002dc80 f   jsoncpp.obj
 0001:0002cd40       ??0Value@Json@@QAE@H@Z     1002dd40 f   jsoncpp.obj
 0001:0002cd70       ??0Value@Json@@QAE@I@Z     1002dd70 f   jsoncpp.obj
 0001:0002cda0       ??0Value@Json@@QAE@ABV?$basic_string@DU?$char_traits@D@std@@V?$allocator@D@2@@std@@@Z 1002dda0 f   jsoncpp.obj
 0001:0002cdf0       ??0Value@Json@@QAE@_N@Z    1002ddf0 f   jsoncpp.obj
 0001:0002ce20       ??0Value@Json@@QAE@ABV01@@Z 1002de20 f   jsoncpp.obj
 0001:0002ce90       ??1Value@Json@@QAE@XZ      1002de90 f   jsoncpp.obj
 0001:0002ceb0       ?swap@Value@Json@@QAEXAAV12@@Z 1002deb0 f   jsoncpp.obj
 0001:0002cf50       ?asString@Value@Json@@QBE?AV?$basic_string@DU?$char_traits@D@std@@V?$allocator@D@2@@std@@XZ 1002df50 f   jsoncpp.obj
 0001:0002d0c0       ?asInt@Value@Json@@QBEHXZ  1002e0c0 f   jsoncpp.obj
 0001:0002d1a0       ?asUInt@Value@Json@@QBEIXZ 1002e1a0 f   jsoncpp.obj
 0001:0002d280       ?asDouble@Value@Json@@QBENXZ 1002e280 f   jsoncpp.obj
 0001:0002d320       ?asFloat@Value@Json@@QBEMXZ 1002e320 f   jsoncpp.obj
 0001:0002d3d0       ?asBool@Value@Json@@QBE_NXZ 1002e3d0 f   jsoncpp.obj
 0001:0002d460       ?size@Value@Json@@QBEIXZ   1002e460 f   jsoncpp.obj
 0001:0002d4d0       ?empty@Value@Json@@QBE_NXZ 1002e4d0 f   jsoncpp.obj
 0001:0002d530       ??AValue@Json@@QAEAAV01@I@Z 1002e530 f   jsoncpp.obj
 0001:0002d6e0       ??AValue@Json@@QBEABV01@I@Z 1002e6e0 f   jsoncpp.obj
 0001:0002d770       ?dupPayload@Value@Json@@AAEXABV12@@Z 1002e770 f   jsoncpp.obj
 0001:0002d8b0       ?releasePayload@Value@Json@@AAEXXZ 1002e8b0 f   jsoncpp.obj
 0001:0002d910       ?resolveReference@Value@Json@@AAEAAV12@PBD0@Z 1002e910 f   jsoncpp.obj
 0001:0002dad0       ?find@Value@Json@@QBEPBV12@PBD0@Z 1002ead0 f   jsoncpp.obj
 0001:0002db70       ??AValue@Json@@QAEAAV01@PBD@Z 1002eb70 f   jsoncpp.obj
 0001:0002dba0       ??AValue@Json@@QAEAAV01@ABV?$basic_string@DU?$char_traits@D@std@@V?$allocator@D@2@@std@@@Z 1002eba0 f   jsoncpp.obj
 0001:0002dbe0       ?isMember@Value@Json@@QBE_NPBD@Z 1002ebe0 f   jsoncpp.obj
 0001:0002dc10       ?getMemberNames@Value@Json@@QBE?AV?$vector@V?$basic_string@DU?$char_traits@D@std@@V?$allocator@D@2@@std@@V?$allocator@V?$basic_string@DU?$char_traits@D@std@@V?$allocator@D@2@@std@@@2@@std@@XZ 1002ec10 f   jsoncpp.obj
 0001:0002dda0       ?set@Comments@Value@Json@@QAEXW4CommentPlacement@3@V?$basic_string@DU?$char_traits@D@std@@V?$allocator@D@2@@std@@@Z 1002eda0 f   jsoncpp.obj
 0001:0002dee0       ?setComment@Value@Json@@QAEXV?$basic_string@DU?$char_traits@D@std@@V?$allocator@D@2@@std@@W4CommentPlacement@2@@Z 1002eee0 f   jsoncpp.obj
 0001:0002dff0       ?toStyledString@Value@Json@@QBE?AV?$basic_string@DU?$char_traits@D@std@@V?$allocator@D@2@@std@@XZ 1002eff0 f   jsoncpp.obj
 0001:0002e200       ?valueToString@Json@@YA?AV?$basic_string@DU?$char_traits@D@std@@V?$allocator@D@2@@std@@H@Z 1002f200 f   jsoncpp.obj
 0001:0002e2f0       ?valueToString@Json@@YA?AV?$basic_string@DU?$char_traits@D@std@@V?$allocator@D@2@@std@@I@Z 1002f2f0 f   jsoncpp.obj
 0001:0002f060       ??_EBuiltStyledStreamWriter@Json@@UAEPAXI@Z 10030060 f i * CIL library *:* CIL module *
 0001:0002f060       ??_GBuiltStyledStreamWriter@Json@@UAEPAXI@Z 10030060 f i jsoncpp.obj
 0001:0002f090       ??1BuiltStyledStreamWriter@Json@@UAE@XZ 10030090 f i jsoncpp.obj
 0001:0002f210       ?write@BuiltStyledStreamWriter@Json@@UAEHABVValue@2@PAV?$basic_ostream@DU?$char_traits@D@std@@@std@@@Z 10030210 f   jsoncpp.obj
 0001:0002f2d0       ?writeValue@BuiltStyledStreamWriter@Json@@AAEXABVValue@2@@Z 100302d0 f   jsoncpp.obj
 0001:0002fbc0       ?writeArrayValue@BuiltStyledStreamWriter@Json@@AAEXABVValue@2@@Z 10030bc0 f   jsoncpp.obj
 0001:00030000       ?isMultilineArray@BuiltStyledStreamWriter@Json@@AAE_NABVValue@2@@Z 10031000 f   jsoncpp.obj
 0001:000301c0       ?unindent@BuiltStyledStreamWriter@Json@@AAEXXZ 100311c0 f   jsoncpp.obj
 0001:00030240       ?writeCommentBeforeValue@BuiltStyledStreamWriter@Json@@AAEXABVValue@2@@Z 10031240 f   jsoncpp.obj
 0001:00030390       ?writeCommentAfterValueOnSameLine@BuiltStyledStreamWriter@Json@@AAEXABVValue@2@@Z 10031390 f   jsoncpp.obj
 0001:00030560       ??_EStreamWriter@Json@@UAEPAXI@Z 10031560 f i * CIL library *:* CIL module *
 0001:00030560       ??_GStreamWriter@Json@@UAEPAXI@Z 10031560 f i jsoncpp.obj
 0001:00030590       ??_EFactory@StreamWriter@Json@@UAEPAXI@Z 10031590 f i * CIL library *:* CIL module *
 0001:00030590       ??_GFactory@StreamWriter@Json@@UAEPAXI@Z 10031590 f i jsoncpp.obj
 0001:000305c0       ??_EStreamWriterBuilder@Json@@UAEPAXI@Z 100315c0 f i * CIL library *:* CIL module *
 0001:000305c0       ??_GStreamWriterBuilder@Json@@UAEPAXI@Z 100315c0 f i jsoncpp.obj
 0001:00030610       ?newStreamWriter@StreamWriterBuilder@Json@@UBEPAVStreamWriter@2@XZ 10031610 f   jsoncpp.obj
 0001:00030d10       ?setDefaults@StreamWriterBuilder@Json@@SAXPAVValue@2@@Z 10031d10 f   jsoncpp.obj
 0001:00031160       ?str@?$basic_ostringstream@DU?$char_traits@D@std@@V?$allocator@D@2@@std@@QGBE?AV?$basic_string@DU?$char_traits@D@std@@V?$allocator@D@2@@2@XZ 10032160 f i jsoncpp.obj
 0001:00031200       ??0?$basic_ostringstream@DU?$char_traits@D@std@@V?$allocator@D@2@@std@@QAE@XZ 10032200 f i jsoncpp.obj
 0001:000312a0       ??6?$basic_ostream@DU?$char_traits@D@std@@@std@@QAEAAV01@PAV?$basic_streambuf@DU?$char_traits@D@std@@@1@@Z 100322a0 f i jsoncpp.obj
 0001:00031470       ?resize@?$deque@VErrorInfo@OurReader@Json@@V?$allocator@VErrorInfo@OurReader@Json@@@std@@@std@@QAEXI@Z 10032470 f i jsoncpp.obj
 0001:00031540       ?seekpos@?$basic_stringbuf@DU?$char_traits@D@std@@V?$allocator@D@2@@std@@MAE?AV?$fpos@U_Mbstatet@@@2@V32@H@Z 10032540 f i jsoncpp.obj
 0001:00031670       ?seekoff@?$basic_stringbuf@DU?$char_traits@D@std@@V?$allocator@D@2@@std@@MAE?AV?$fpos@U_Mbstatet@@@2@_JHH@Z 10032670 f i jsoncpp.obj
 0001:00031810       ?underflow@?$basic_stringbuf@DU?$char_traits@D@std@@V?$allocator@D@2@@std@@MAEHXZ 10032810 f i jsoncpp.obj
 0001:00031880       ?pbackfail@?$basic_stringbuf@DU?$char_traits@D@std@@V?$allocator@D@2@@std@@MAEHH@Z 10032880 f i jsoncpp.obj
 0001:000318e0       ?overflow@?$basic_stringbuf@DU?$char_traits@D@std@@V?$allocator@D@2@@std@@MAEHH@Z 100328e0 f i jsoncpp.obj
 0001:00031aa0       ??1?$basic_stringbuf@DU?$char_traits@D@std@@V?$allocator@D@2@@std@@UAE@XZ 10032aa0 f i jsoncpp.obj
 0001:00031b70       ?imbue@?$basic_streambuf@DU?$char_traits@D@std@@@std@@MAEXABVlocale@2@@Z 10032b70 f i jsoncpp.obj
 0001:00031b80       ?get_trace_type@c_trace_filter@@UBE?AW4trace_type_t@@XZ 10032b80 f i anti_aim.obj
 0001:00031b80       ?get_trace_type@c_trace_filter_world_and_props_only@@UBE?AW4trace_type_t@@XZ 10032b80 f i local_player_visuals.obj
 0001:00031b80       ?sync@?$basic_streambuf@DU?$char_traits@D@std@@@std@@MAEHXZ 10032b80 f i jsoncpp.obj
 0001:00031b90       ?setbuf@?$basic_streambuf@DU?$char_traits@D@std@@@std@@MAEPAV12@PAD_J@Z 10032b90 f i jsoncpp.obj
 0001:00031ba0       ?seekpos@?$basic_streambuf@DU?$char_traits@D@std@@@std@@MAE?AV?$fpos@U_Mbstatet@@@2@V32@H@Z 10032ba0 f i jsoncpp.obj
 0001:00031bd0       ?seekoff@?$basic_streambuf@DU?$char_traits@D@std@@@std@@MAE?AV?$fpos@U_Mbstatet@@@2@_JHH@Z 10032bd0 f i jsoncpp.obj
 0001:00031c00       ?xsputn@?$basic_streambuf@DU?$char_traits@D@std@@@std@@MAE_JPBD_J@Z 10032c00 f i jsoncpp.obj
 0001:00031ce0       ?xsgetn@?$basic_streambuf@DU?$char_traits@D@std@@@std@@MAE_JPAD_J@Z 10032ce0 f i jsoncpp.obj
 0001:00031dc0       ?uflow@?$basic_streambuf@DU?$char_traits@D@std@@@std@@MAEHXZ 10032dc0 f i jsoncpp.obj
 0001:00031df0       ?underflow@?$basic_streambuf@DU?$char_traits@D@std@@@std@@MAEHXZ 10032df0 f i jsoncpp.obj
 0001:00031e00       ?showmanyc@?$basic_streambuf@DU?$char_traits@D@std@@@std@@MAE_JXZ 10032e00 f i jsoncpp.obj
 0001:00031e10       ?overflow@?$basic_streambuf@DU?$char_traits@D@std@@@std@@MAEHH@Z 10032e10 f i jsoncpp.obj
 0001:00031e10       ?pbackfail@?$basic_streambuf@DU?$char_traits@D@std@@@std@@MAEHH@Z 10032e10 f i jsoncpp.obj
 0001:00031e20       ?_Lock@?$basic_streambuf@DU?$char_traits@D@std@@@std@@UAEXXZ 10032e20 f i jsoncpp.obj
 0001:00031e20       ?_Unlock@?$basic_streambuf@DU?$char_traits@D@std@@@std@@UAEXXZ 10032e20 f i jsoncpp.obj
 0001:00031e20       ?check_file_crc_with_server@engine@tr@@YIXPAX0@Z 10032e20 f i engine.obj
 0001:00031e20       ?destroy@stl_critical_section_win7@details@Concurrency@@UAEXXZ 10032e20 f i libcpmt:mutex.obj
 0001:00031e20       @_guard_check_icall_nop@4  10032e20 f i LIBCMT:guard_support.obj
 0001:00031e20       _FT_Trace_Disable          10032e20 f i freetype:ftdebug.obj
 0001:00031e20       _FT_Trace_Enable           10032e20 f i freetype:ftdebug.obj
 0001:00031e30       ?push@?$stack@PAVValue@Json@@V?$deque@PAVValue@Json@@V?$allocator@PAVValue@Json@@@std@@@std@@@std@@QAEX$$QAPAVValue@Json@@@Z 10032e30 f i jsoncpp.obj
 0001:00031eb0       ??1?$deque@PAVValue@Json@@V?$allocator@PAVValue@Json@@@std@@@std@@QAE@XZ 10032eb0 f i jsoncpp.obj
 0001:00031f50       ?c_str@?$basic_string@DU?$char_traits@D@std@@V?$allocator@D@2@@std@@QBEPBDXZ 10032f50 f i jsoncpp.obj
 0001:00031f60       ??A?$basic_string@DU?$char_traits@D@std@@V?$allocator@D@2@@std@@QAEAADI@Z 10032f60 f i jsoncpp.obj
 0001:00031f80       ?append@?$basic_string@DU?$char_traits@D@std@@V?$allocator@D@2@@std@@QAEAAV12@QBD@Z 10032f80 f i jsoncpp.obj
 0001:00031ff0       ?append@?$basic_string@DU?$char_traits@D@std@@V?$allocator@D@2@@std@@QAEAAV12@ABV12@@Z 10032ff0 f i jsoncpp.obj
 0001:00032060       ??4?$basic_string@DU?$char_traits@D@std@@V?$allocator@D@2@@std@@QAEAAV01@QBD@Z 10033060 f i jsoncpp.obj
 0001:00032090       ??4?$basic_string@DU?$char_traits@D@std@@V?$allocator@D@2@@std@@QAEAAV01@$$QAV01@@Z 10033090 f i jsoncpp.obj
 0001:00032110       ??0?$basic_string@DU?$char_traits@D@std@@V?$allocator@D@2@@std@@QAE@$$QAV01@@Z 10033110 f i jsoncpp.obj
 0001:00032160       ??0?$basic_string@DU?$char_traits@D@std@@V?$allocator@D@2@@std@@QAE@QBD@Z 10033160 f i jsoncpp.obj
 0001:000321a0       ??0?$basic_string@DU?$char_traits@D@std@@V?$allocator@D@2@@std@@QAE@ABV01@@Z 100331a0 f i jsoncpp.obj
 0001:000322a0       ??_E?$basic_ostringstream@DU?$char_traits@D@std@@V?$allocator@D@2@@std@@UAEPAXI@Z 100332a0 f i * CIL library *:* CIL module *
 0001:000322a0       ??_G?$basic_ostringstream@DU?$char_traits@D@std@@V?$allocator@D@2@@std@@UAEPAXI@Z 100332a0 f i jsoncpp.obj
 0001:000322d0       ??_E?$basic_ostream@DU?$char_traits@D@std@@@std@@UAEPAXI@Z 100332d0 f i * CIL library *:* CIL module *
 0001:000322d0       ??_G?$basic_ostream@DU?$char_traits@D@std@@@std@@UAEPAXI@Z 100332d0 f i jsoncpp.obj
 0001:00032320       ??_E?$basic_stringbuf@DU?$char_traits@D@std@@V?$allocator@D@2@@std@@UAEPAXI@Z 10033320 f i * CIL library *:* CIL module *
 0001:00032320       ??_G?$basic_stringbuf@DU?$char_traits@D@std@@V?$allocator@D@2@@std@@UAEPAXI@Z 10033320 f i jsoncpp.obj
 0001:00032350       ??_E?$basic_streambuf@DU?$char_traits@D@std@@@std@@UAEPAXI@Z 10033350 f i * CIL library *:* CIL module *
 0001:00032350       ??_G?$basic_streambuf@DU?$char_traits@D@std@@@std@@UAEPAXI@Z 10033350 f i jsoncpp.obj
 0001:000323a0       ??_E?$basic_istream@DU?$char_traits@D@std@@@std@@UAEPAXI@Z 100333a0 f i * CIL library *:* CIL module *
 0001:000323a0       ??_G?$basic_istream@DU?$char_traits@D@std@@@std@@UAEPAXI@Z 100333a0 f i jsoncpp.obj
 0001:000323f0       ??_E?$basic_ios@DU?$char_traits@D@std@@@std@@UAEPAXI@Z 100333f0 f i * CIL library *:* CIL module *
 0001:000323f0       ??_G?$basic_ios@DU?$char_traits@D@std@@@std@@UAEPAXI@Z 100333f0 f i jsoncpp.obj
 0001:00032420       ??0sentry@?$basic_ostream@DU?$char_traits@D@std@@@std@@QAE@AAV12@@Z 10033420 f i jsoncpp.obj
 0001:000324a0       ?_Tidy@?$deque@VErrorInfo@OurReader@Json@@V?$allocator@VErrorInfo@OurReader@Json@@@std@@@std@@AAEXXZ 100334a0 f i jsoncpp.obj
 0001:00032530       ?pop_back@?$deque@VErrorInfo@OurReader@Json@@V?$allocator@VErrorInfo@OurReader@Json@@@std@@@std@@QAEXXZ 10033530 f i jsoncpp.obj
 0001:000325b0       ?_Pnavail@?$basic_streambuf@DU?$char_traits@D@std@@@std@@IBE_JXZ 100335b0 f i jsoncpp.obj
 0001:000325d0       ?_Gnavail@?$basic_streambuf@DU?$char_traits@D@std@@@std@@IBE_JXZ 100335d0 f i jsoncpp.obj
 0001:000325f0       ?sputc@?$basic_streambuf@DU?$char_traits@D@std@@@std@@QAEHD@Z 100335f0 f i jsoncpp.obj
 0001:00032630       ?snextc@?$basic_streambuf@DU?$char_traits@D@std@@@std@@QAEHXZ 10033630 f i jsoncpp.obj
 0001:000326a0       ?sgetc@?$basic_streambuf@DU?$char_traits@D@std@@@std@@QAEHXZ 100336a0 f i jsoncpp.obj
 0001:000326c0       ?setstate@?$basic_ios@DU?$char_traits@D@std@@@std@@QAEXH_N@Z 100336c0 f i jsoncpp.obj
 0001:000326f0       ?_Xlength@?$vector@HV?$allocator@H@std@@@std@@CAXXZ 100336f0 f i hooks.obj
 0001:000326f0       ?_Xlength@?$vector@PAVc_recv_table@@V?$allocator@PAVc_recv_table@@@std@@@std@@CAXXZ 100336f0 f i netvar_parser.obj
 0001:000326f0       ?_Xlength@?$vector@PBDV?$allocator@PBD@std@@@std@@CAXXZ 100336f0 f i keybind.obj
 0001:000326f0       ?_Xlength@?$vector@U?$pair@Vvector3d@@_N@std@@V?$allocator@U?$pair@Vvector3d@@_N@std@@@2@@std@@CAXXZ 100336f0 f i rage_tools.obj
 0001:000326f0       ?_Xlength@?$vector@UImVec2@@V?$allocator@UImVec2@@@std@@@std@@CAXXZ 100336f0 f i esp_weapon.obj
 0001:000326f0       ?_Xlength@?$vector@ULEntry@?$LList@UJob@@@@V?$allocator@ULEntry@?$LList@UJob@@@@@std@@@std@@CAXXZ 100336f0 f i threading.obj
 0001:000326f0       ?_Xlength@?$vector@UMemRegion@@V?$allocator@UMemRegion@@@std@@@std@@CAXXZ 100336f0 f i threading.obj
 0001:000326f0       ?_Xlength@?$vector@Uaim_shot_record_t@@V?$allocator@Uaim_shot_record_t@@@std@@@std@@CAXXZ 100336f0 f i missed_shot_handler.obj
 0001:000326f0       ?_Xlength@?$vector@Ubullet_tracer_t@c_event_visuals@@V?$allocator@Ubullet_tracer_t@c_event_visuals@@@std@@@std@@CAXXZ 100336f0 f i event_visuals.obj
 0001:000326f0       ?_Xlength@?$vector@Uhitmarker_t@@V?$allocator@Uhitmarker_t@@@std@@@std@@CAXXZ 100336f0 f i event_visuals.obj
 0001:000326f0       ?_Xlength@?$vector@Uhook_t@detour@hooks@@V?$allocator@Uhook_t@detour@hooks@@@std@@@std@@CAXXZ 100336f0 f i hooks.obj
 0001:000326f0       ?_Xlength@?$vector@Ulistened_entity_t@@V?$allocator@Ulistened_entity_t@@@std@@@std@@CAXXZ 100336f0 f i listener_entity.obj
 0001:000326f0       ?_Xlength@?$vector@Umessage_t@c_event_logger@@V?$allocator@Umessage_t@c_event_logger@@@std@@@std@@CAXXZ 100336f0 f i event_logger.obj
 0001:000326f0       ?_Xlength@?$vector@Upanels_t@panel@tr@@V?$allocator@Upanels_t@panel@tr@@@std@@@std@@CAXXZ 100336f0 f i vgui_panel.obj
 0001:000326f0       ?_Xlength@?$vector@Upoint_t@@V?$allocator@Upoint_t@@@std@@@std@@CAXXZ 100336f0 f i ragebot.obj
 0001:000326f0       ?_Xlength@?$vector@Ushot_record_t@c_chams@@V?$allocator@Ushot_record_t@c_chams@@@std@@@std@@CAXXZ 100336f0 f i chams.obj
 0001:000326f0       ?_Xlength@?$vector@V?$basic_string@DU?$char_traits@D@std@@V?$allocator@D@2@@std@@V?$allocator@V?$basic_string@DU?$char_traits@D@std@@V?$allocator@D@2@@std@@@2@@std@@CAXXZ 100336f0 f i jsoncpp.obj
 0001:00032700       ?_Tidy@?$vector@V?$basic_string@DU?$char_traits@D@std@@V?$allocator@D@2@@std@@V?$allocator@V?$basic_string@DU?$char_traits@D@std@@V?$allocator@D@2@@std@@@2@@std@@AAEXXZ 10033700 f i jsoncpp.obj
 0001:00032780       ?_Reallocate_exactly@?$vector@V?$basic_string@DU?$char_traits@D@std@@V?$allocator@D@2@@std@@V?$allocator@V?$basic_string@DU?$char_traits@D@std@@V?$allocator@D@2@@std@@@2@@std@@AAEXI@Z 10033780 f i jsoncpp.obj
 0001:00032880       ??F?$_Tree_unchecked_const_iterator@V?$_Tree_val@U?$_Tree_simple_types@U?$pair@$$CBVCZString@Value@Json@@V23@@std@@@std@@@std@@U_Iterator_base0@2@@std@@QAEAAV01@XZ 10033880 f i jsoncpp.obj
 0001:00032910       ??E?$_Tree_unchecked_const_iterator@V?$_Tree_val@U?$_Tree_simple_types@U?$pair@$$CBVCZString@Value@Json@@V23@@std@@@std@@@std@@U_Iterator_base0@2@@std@@QAEAAV01@XZ 10033910 f i jsoncpp.obj
 0001:00032970       ?_Getal@?$_Tree@V?$_Tmap_traits@VCZString@Value@Json@@V23@U?$less@VCZString@Value@Json@@@std@@V?$allocator@U?$pair@$$CBVCZString@Value@Json@@V23@@std@@@5@$0A@@std@@@std@@IAEAAV?$allocator@U?$_Tree_node@U?$pair@$$CBVCZString@Value@Json@@V23@@std@@PAX@std@@@2@XZ 10033970 f i jsoncpp.obj
 0001:00032980       ??R?$default_delete@V?$array@V?$basic_string@DU?$char_traits@D@std@@V?$allocator@D@2@@std@@$02@std@@@std@@QBEXPAV?$array@V?$basic_string@DU?$char_traits@D@std@@V?$allocator@D@2@@std@@$02@1@@Z 10033980 f i jsoncpp.obj
 0001:00032a00       ?assign@?$basic_string@DU?$char_traits@D@std@@V?$allocator@D@2@@std@@QAEAAV12@QBDI@Z 10033a00 f i jsoncpp.obj
 0001:00032b30       ?flush@?$basic_ostream@DU?$char_traits@D@std@@@std@@QAEAAV12@XZ 10033b30 f i jsoncpp.obj
 0001:00032c30       ?_Osfx@?$basic_ostream@DU?$char_traits@D@std@@@std@@QAEXXZ 10033c30 f i jsoncpp.obj
 0001:00032cc0       ??0?$basic_streambuf@DU?$char_traits@D@std@@@std@@IAE@XZ 10033cc0 f i jsoncpp.obj
 0001:00032d50       ?init@?$basic_ios@DU?$char_traits@D@std@@@std@@IAEXPAV?$basic_streambuf@DU?$char_traits@D@std@@@2@_N@Z 10033d50 f i jsoncpp.obj
 0001:00032e30       ?_Change_array@?$vector@V?$basic_string@DU?$char_traits@D@std@@V?$allocator@D@2@@std@@V?$allocator@V?$basic_string@DU?$char_traits@D@std@@V?$allocator@D@2@@std@@@2@@std@@AAEXQAV?$basic_string@DU?$char_traits@D@std@@V?$allocator@D@2@@2@II@Z 10033e30 f i jsoncpp.obj
 0001:00032ec0       ?deallocate@?$allocator@Ubullet_tracer_t@c_event_visuals@@@std@@QAEXQAUbullet_tracer_t@c_event_visuals@@I@Z 10033ec0 f i dllmain.obj
 0001:00032ec0       ?deallocate@?$allocator@V?$basic_string@DU?$char_traits@D@std@@V?$allocator@D@2@@std@@@std@@QAEXQAV?$basic_string@DU?$char_traits@D@std@@V?$allocator@D@2@@2@I@Z 10033ec0 f i jsoncpp.obj
 0001:00032f00       ??$use_facet@V?$ctype@D@std@@@std@@YAABV?$ctype@D@0@ABVlocale@0@@Z 10033f00 f i jsoncpp.obj
 0001:00033120       ??$?HDU?$char_traits@D@std@@V?$allocator@D@1@@std@@YA?AV?$basic_string@DU?$char_traits@D@std@@V?$allocator@D@2@@0@QBD$$QAV10@@Z 10034120 f i jsoncpp.obj
 0001:00033210       ??$?6U?$char_traits@D@std@@@std@@YAAAV?$basic_ostream@DU?$char_traits@D@std@@@0@AAV10@PBD@Z 10034210 f i jsoncpp.obj
 0001:00033400       ??$insert@AAU?$pair@$$CBVCZString@Value@Json@@V23@@std@@$0A@@?$map@VCZString@Value@Json@@V23@U?$less@VCZString@Value@Json@@@std@@V?$allocator@U?$pair@$$CBVCZString@Value@Json@@V23@@std@@@5@@std@@QAE?AV?$_Tree_iterator@V?$_Tree_val@U?$_Tree_simple_types@U?$pair@$$CBVCZString@Value@Json@@V23@@std@@@std@@@std@@@1@V?$_Tree_const_iterator@V?$_Tree_val@U?$_Tree_simple_types@U?$pair@$$CBVCZString@Value@Json@@V23@@std@@@std@@@std@@@1@AAU?$pair@$$CBVCZString@Value@Json@@V23@@1@@Z 10034400 f i jsoncpp.obj
 0001:00033590       ??$?6DU?$char_traits@D@std@@V?$allocator@D@1@@std@@YAAAV?$basic_ostream@DU?$char_traits@D@std@@@0@AAV10@ABV?$basic_string@DU?$char_traits@D@std@@V?$allocator@D@2@@0@@Z 10034590 f i jsoncpp.obj
 0001:000335b0       ??$?6U?$char_traits@D@std@@@std@@YAAAV?$basic_ostream@DU?$char_traits@D@std@@@0@AAV10@D@Z 100345b0 f i jsoncpp.obj
 0001:00033790       ??$_Destroy_range@V?$allocator@V?$basic_string@DU?$char_traits@D@std@@V?$allocator@D@2@@std@@@std@@@std@@YAXPAV?$basic_string@DU?$char_traits@D@std@@V?$allocator@D@2@@0@QAV10@AAV?$allocator@V?$basic_string@DU?$char_traits@D@std@@V?$allocator@D@2@@std@@@0@@Z 10034790 f i jsoncpp.obj
 0001:000337f0       ??$_Find_lower_bound@VCZString@Value@Json@@@?$_Tree@V?$_Tmap_traits@VCZString@Value@Json@@V23@U?$less@VCZString@Value@Json@@@std@@V?$allocator@U?$pair@$$CBVCZString@Value@Json@@V23@@std@@@5@$0A@@std@@@std@@IBE?AU?$_Tree_find_result@PAU?$_Tree_node@U?$pair@$$CBVCZString@Value@Json@@V23@@std@@PAX@std@@@1@ABVCZString@Value@Json@@@Z 100347f0 f i jsoncpp.obj
 0001:00033850       ??$_Erase_tree@V?$allocator@U?$_Tree_node@U?$pair@$$CBVCZString@Value@Json@@V23@@std@@PAX@std@@@std@@@?$_Tree_val@U?$_Tree_simple_types@U?$pair@$$CBVCZString@Value@Json@@V23@@std@@@std@@@std@@QAEXAAV?$allocator@U?$_Tree_node@U?$pair@$$CBVCZString@Value@Json@@V23@@std@@PAX@std@@@1@PAU?$_Tree_node@U?$pair@$$CBVCZString@Value@Json@@V23@@std@@PAX@1@@Z 10034850 f i jsoncpp.obj
 0001:00033850       ??$_Erase_tree_and_orphan@V?$allocator@U?$_Tree_node@U?$pair@$$CBVCZString@Value@Json@@V23@@std@@PAX@std@@@std@@@?$_Tree_val@U?$_Tree_simple_types@U?$pair@$$CBVCZString@Value@Json@@V23@@std@@@std@@@std@@QAEXAAV?$allocator@U?$_Tree_node@U?$pair@$$CBVCZString@Value@Json@@V23@@std@@PAX@std@@@1@PAU?$_Tree_node@U?$pair@$$CBVCZString@Value@Json@@V23@@std@@PAX@1@@Z 10034850 f i jsoncpp.obj
 0001:000338c0       ??$_Reallocate_grow_by@V<lambda_1>@?1??reserve@?$basic_string@DU?$char_traits@D@std@@V?$allocator@D@2@@std@@QAEXI@Z@$$V@?$basic_string@DU?$char_traits@D@std@@V?$allocator@D@2@@std@@AAEAAV01@IV<lambda_1>@?1??reserve@01@QAEXI@Z@@Z 100348c0 f i jsoncpp.obj
 0001:000339e0       ??$_Construct@$00PBD@?$basic_string@DU?$char_traits@D@std@@V?$allocator@D@2@@std@@AAEXQBDI@Z 100349e0 f i jsoncpp.obj
 0001:00033ac0       ??$_Uninitialized_move@PAV?$basic_string@DU?$char_traits@D@std@@V?$allocator@D@2@@std@@V?$allocator@V?$basic_string@DU?$char_traits@D@std@@V?$allocator@D@2@@std@@@2@@std@@YAPAV?$basic_string@DU?$char_traits@D@std@@V?$allocator@D@2@@0@QAV10@0PAV10@AAV?$allocator@V?$basic_string@DU?$char_traits@D@std@@V?$allocator@D@2@@std@@@0@@Z 10034ac0 f i jsoncpp.obj
 0001:00033b30       ??$_Reallocate_grow_by@V<lambda_1>@?1??push_back@?$basic_string@DU?$char_traits@D@std@@V?$allocator@D@2@@std@@QAEXD@Z@D@?$basic_string@DU?$char_traits@D@std@@V?$allocator@D@2@@std@@AAEAAV01@IV<lambda_1>@?1??push_back@01@QAEXD@Z@D@Z 10034b30 f i jsoncpp.obj
 0001:00033c70       ??$_Reallocate_grow_by@V<lambda_1>@?1??append@?$basic_string@DU?$char_traits@D@std@@V?$allocator@D@2@@std@@QAEAAV34@ID@Z@ID@?$basic_string@DU?$char_traits@D@std@@V?$allocator@D@2@@std@@AAEAAV01@IV<lambda_1>@?1??append@01@QAEAAV01@ID@Z@ID@Z 10034c70 f i jsoncpp.obj
 0001:00033dd0       ??$_Reallocate_grow_by@V<lambda_1>@?1??append@?$basic_string@DU?$char_traits@D@std@@V?$allocator@D@2@@std@@QAEAAV34@QBDI@Z@PBDI@?$basic_string@DU?$char_traits@D@std@@V?$allocator@D@2@@std@@AAEAAV01@IV<lambda_1>@?1??append@01@QAEAAV01@QBDI@Z@PBDI@Z 10034dd0 f i jsoncpp.obj
 0001:00033f30       ??0?$istreambuf_iterator@DU?$char_traits@D@std@@@std@@QAE@AAV?$basic_istream@DU?$char_traits@D@std@@@1@@Z 10034f30 f i jsoncpp.obj
 0001:00033f60       ?_Growmap@?$deque@VErrorInfo@OurReader@Json@@V?$allocator@VErrorInfo@OurReader@Json@@@std@@@std@@AAEXI@Z 10034f60 f i jsoncpp.obj
 0001:00034110       ?sputn@?$basic_streambuf@DU?$char_traits@D@std@@@std@@QAE_JPBD_J@Z 10035110 f i jsoncpp.obj
 0001:00034130       ?_Growmap@?$deque@PAVValue@Json@@V?$allocator@PAVValue@Json@@@std@@@std@@AAEXI@Z 10035130 f i jsoncpp.obj
 0001:000342e0       ??0?$basic_string@DU?$char_traits@D@std@@V?$allocator@D@2@@std@@QAE@U_String_constructor_concat_tag@1@ABV01@QBDI2I@Z 100352e0 f i jsoncpp.obj
 0001:000343d0       ?_Xlen@?$deque@HV?$allocator@H@std@@@std@@ABEXXZ 100353d0 f i fake_lag.obj
 0001:000343d0       ?_Xlen@?$deque@PAVValue@Json@@V?$allocator@PAVValue@Json@@@std@@@std@@ABEXXZ 100353d0 f i jsoncpp.obj
 0001:000343d0       ?_Xlen@?$deque@Uchoked_ticks_t@@V?$allocator@Uchoked_ticks_t@@@std@@@std@@ABEXXZ 100353d0 f i fake_lag.obj
 0001:000343d0       ?_Xlen@?$deque@Ucommands_t@@V?$allocator@Ucommands_t@@@std@@@std@@ABEXXZ 100353d0 f i fake_lag.obj
 0001:000343d0       ?_Xlen@?$deque@Urecords_t@@V?$allocator@Urecords_t@@@std@@@std@@ABEXXZ 100353d0 f i animfix.obj
 0001:000343d0       ?_Xlen@?$deque@VErrorInfo@OurReader@Json@@V?$allocator@VErrorInfo@OurReader@Json@@@std@@@std@@ABEXXZ 100353d0 f i jsoncpp.obj
 0001:000343e0       ?_Xran@?$_String_val@U?$_Simple_types@D@std@@@std@@SAXXZ 100353e0 f i jsoncpp.obj
 0001:000343f0       ??$_Insert_string@DU?$char_traits@D@std@@I@std@@YAAAV?$basic_ostream@DU?$char_traits@D@std@@@0@AAV10@QBDI@Z 100353f0 f i jsoncpp.obj
 0001:000345b0       ??$_Emplace_reallocate@V?$basic_string@DU?$char_traits@D@std@@V?$allocator@D@2@@std@@@?$vector@V?$basic_string@DU?$char_traits@D@std@@V?$allocator@D@2@@std@@V?$allocator@V?$basic_string@DU?$char_traits@D@std@@V?$allocator@D@2@@std@@@2@@std@@AAEPAV?$basic_string@DU?$char_traits@D@std@@V?$allocator@D@2@@1@QAV21@$$QAV21@@Z 100355b0 f i jsoncpp.obj
 0001:00034780       ??$_Emplace_reallocate@ABV?$basic_string@DU?$char_traits@D@std@@V?$allocator@D@2@@std@@@?$vector@V?$basic_string@DU?$char_traits@D@std@@V?$allocator@D@2@@std@@V?$allocator@V?$basic_string@DU?$char_traits@D@std@@V?$allocator@D@2@@std@@@2@@std@@AAEPAV?$basic_string@DU?$char_traits@D@std@@V?$allocator@D@2@@1@QAV21@ABV21@@Z 10035780 f i jsoncpp.obj
 0001:00034940       ??$?8DU?$char_traits@D@std@@@std@@YA_NABV?$istreambuf_iterator@DU?$char_traits@D@std@@@0@0@Z 10035940 f i jsoncpp.obj
 0001:000349e0       ??$_Traits_equal@U?$char_traits@D@std@@@std@@YA_NQBDI0I@Z 100359e0 f i jsoncpp.obj
 0001:00034a40       ??$_Reallocate_grow_by@V<lambda_1>@?1??insert@?$basic_string@DU?$char_traits@D@std@@V?$allocator@D@2@@std@@QAEAAV34@IQBDI@Z@IPBDI@?$basic_string@DU?$char_traits@D@std@@V?$allocator@D@2@@std@@AAEAAV01@IV<lambda_1>@?1??insert@01@QAEAAV01@IQBDI@Z@IPBDI@Z 10035a40 f i jsoncpp.obj
 0001:00034b80       ??$construct@V?$basic_string@DU?$char_traits@D@std@@V?$allocator@D@2@@std@@V12@@?$_Default_allocator_traits@V?$allocator@V?$basic_string@DU?$char_traits@D@std@@V?$allocator@D@2@@std@@@std@@@std@@SAXAAV?$allocator@V?$basic_string@DU?$char_traits@D@std@@V?$allocator@D@2@@std@@@1@QAV?$basic_string@DU?$char_traits@D@std@@V?$allocator@D@2@@1@$$QAV31@@Z 10035b80 f i jsoncpp.obj
 0001:00034bc0       ??$_Copy_nodes@$0A@@?$_Tree@V?$_Tmap_traits@VCZString@Value@Json@@V23@U?$less@VCZString@Value@Json@@@std@@V?$allocator@U?$pair@$$CBVCZString@Value@Json@@V23@@std@@@5@$0A@@std@@@std@@IAEPAU?$_Tree_node@U?$pair@$$CBVCZString@Value@Json@@V23@@std@@PAX@1@PAU21@0@Z 10035bc0 f i jsoncpp.obj
 0001:00034cc0       ??$_Find_hint@VCZString@Value@Json@@@?$_Tree@V?$_Tmap_traits@VCZString@Value@Json@@V23@U?$less@VCZString@Value@Json@@@std@@V?$allocator@U?$pair@$$CBVCZString@Value@Json@@V23@@std@@@5@$0A@@std@@@std@@IBE?AU?$_Tree_find_hint_result@PAU?$_Tree_node@U?$pair@$$CBVCZString@Value@Json@@V23@@std@@PAX@std@@@1@QAU?$_Tree_node@U?$pair@$$CBVCZString@Value@Json@@V23@@std@@PAX@1@ABVCZString@Value@Json@@@Z 10035cc0 f i jsoncpp.obj
 0001:00034e83       ??_E?$basic_ostream@DU?$char_traits@D@std@@@std@@$4PPPPPPPM@A@AEPAXI@Z 10035e83 f i jsoncpp.obj
 0001:00034e8b       ??_E?$basic_istream@DU?$char_traits@D@std@@@std@@$4PPPPPPPM@A@AEPAXI@Z 10035e8b f i jsoncpp.obj
 0001:00034e93       ??_E?$basic_ostringstream@DU?$char_traits@D@std@@V?$allocator@D@2@@std@@$4PPPPPPPM@A@AEPAXI@Z 10035e93 f i jsoncpp.obj
 0001:00034ec0       ?_QueueJob@Threading@@YA_KP6AXPAX@Z0_N2@Z 10035ec0 f   threading.obj
 0001:000351d0       ?InitThreads@Threading@@YAXXZ 100361d0 f   threading.obj
 0001:00035480       ?FinishQueue@Threading@@YAX_N@Z 10036480 f   threading.obj
 0001:000354f0       ?IsEmpty@?$LList@UJob@@@@QAE_NXZ 100364f0 f i threading.obj
 0001:00035510       ??1?$vector@ULEntry@?$LList@UJob@@@@V?$allocator@ULEntry@?$LList@UJob@@@@@std@@@std@@QAE@XZ 10036510 f i threading.obj
 0001:00035570       ??1?$vector@UMemRegion@@V?$allocator@UMemRegion@@@std@@@std@@QAE@XZ 10036570 f i threading.obj
 0001:000355d0       ?DoPopFront@?$LList@UJob@@@@QAE?AUJob@@PAVMutex@@@Z 100365d0 f i threading.obj
 0001:000356c0       ?deallocate@?$allocator@ULEntry@?$LList@UJob@@@@@std@@QAEXQAULEntry@?$LList@UJob@@@@I@Z 100366c0 f i threading.obj
 0001:00035700       ?deallocate@?$allocator@UImVec2@@@std@@QAEXQAUImVec2@@I@Z 10036700 f i dllmain.obj
 0001:00035700       ?deallocate@?$allocator@UMemRegion@@@std@@QAEXQAUMemRegion@@I@Z 10036700 f i threading.obj
 0001:00035740       ?Free@?$PackedHeapL@ULEntry@?$LList@UJob@@@@@@QAEXI@Z 10036740 f i threading.obj
 0001:00035860       ??$_Resize_reallocate@U_Value_init_tag@std@@@?$vector@ULEntry@?$LList@UJob@@@@V?$allocator@ULEntry@?$LList@UJob@@@@@std@@@std@@AAEXIABU_Value_init_tag@1@@Z 10036860 f i threading.obj
 0001:00035a10       ??$_Uninitialized_value_construct_n@V?$allocator@ULEntry@?$LList@UJob@@@@@std@@@std@@YAPAULEntry@?$LList@UJob@@@@PAU12@IAAV?$allocator@ULEntry@?$LList@UJob@@@@@0@@Z 10036a10 f i threading.obj
 0001:00035a40       ??$_Emplace_reallocate@UImVec2@@@?$vector@UImVec2@@V?$allocator@UImVec2@@@std@@@std@@AAEPAUImVec2@@QAU2@$$QAU2@@Z 10036a40 f i esp_weapon.obj
 0001:00035a40       ??$_Emplace_reallocate@UMemRegion@@@?$vector@UMemRegion@@V?$allocator@UMemRegion@@@std@@@std@@AAEPAUMemRegion@@QAU2@$$QAU2@@Z 10036a40 f i threading.obj
 0001:00035c10       ?find_convar@c_convar@@QAEPAVc_cvar@@PBD@Z 10036c10 f i global_context.obj
 0001:00035c30       ??R<lambda_1>@?1??init@cvars@@YAXXZ@QBE?AV?$basic_string@DU?$char_traits@D@std@@V?$allocator@D@2@@std@@XZ 10036c30 f i global_context.obj
 0001:00035c50       ??R<lambda_2>@?1??init@cvars@@YAXXZ@QBE?AV?$basic_string@DU?$char_traits@D@std@@V?$allocator@D@2@@std@@XZ 10036c50 f i global_context.obj
 0001:00035c70       ??R<lambda_3>@?1??init@cvars@@YAXXZ@QBE?AV?$basic_string@DU?$char_traits@D@std@@V?$allocator@D@2@@std@@XZ 10036c70 f i global_context.obj
 0001:00035c90       ??R<lambda_4>@?1??init@cvars@@YAXXZ@QBE?AV?$basic_string@DU?$char_traits@D@std@@V?$allocator@D@2@@std@@XZ 10036c90 f i global_context.obj
 0001:00035cb0       ??R<lambda_5>@?1??init@cvars@@YAXXZ@QBE?AV?$basic_string@DU?$char_traits@D@std@@V?$allocator@D@2@@std@@XZ 10036cb0 f i global_context.obj
 0001:00035cd0       ??R<lambda_6>@?1??init@cvars@@YAXXZ@QBE?AV?$basic_string@DU?$char_traits@D@std@@V?$allocator@D@2@@std@@XZ 10036cd0 f i global_context.obj
 0001:00035cf0       ??R<lambda_7>@?1??init@cvars@@YAXXZ@QBE?AV?$basic_string@DU?$char_traits@D@std@@V?$allocator@D@2@@std@@XZ 10036cf0 f i global_context.obj
 0001:00035d10       ??R<lambda_8>@?1??init@cvars@@YAXXZ@QBE?AV?$basic_string@DU?$char_traits@D@std@@V?$allocator@D@2@@std@@XZ 10036d10 f i global_context.obj
 0001:00035d30       ??R<lambda_9>@?1??init@cvars@@YAXXZ@QBE?AV?$basic_string@DU?$char_traits@D@std@@V?$allocator@D@2@@std@@XZ 10036d30 f i global_context.obj
 0001:00035d50       ??R<lambda_10>@?1??init@cvars@@YAXXZ@QBE?AV?$basic_string@DU?$char_traits@D@std@@V?$allocator@D@2@@std@@XZ 10036d50 f i global_context.obj
 0001:00035d70       ??R<lambda_11>@?1??init@cvars@@YAXXZ@QBE?AV?$basic_string@DU?$char_traits@D@std@@V?$allocator@D@2@@std@@XZ 10036d70 f i global_context.obj
 0001:00035d90       ??R<lambda_12>@?1??init@cvars@@YAXXZ@QBE?AV?$basic_string@DU?$char_traits@D@std@@V?$allocator@D@2@@std@@XZ 10036d90 f i global_context.obj
 0001:00035db0       ??R<lambda_13>@?1??init@cvars@@YAXXZ@QBE?AV?$basic_string@DU?$char_traits@D@std@@V?$allocator@D@2@@std@@XZ 10036db0 f i global_context.obj
 0001:00035dd0       ??R<lambda_14>@?1??init@cvars@@YAXXZ@QBE?AV?$basic_string@DU?$char_traits@D@std@@V?$allocator@D@2@@std@@XZ 10036dd0 f i global_context.obj
 0001:00035df0       ??R<lambda_15>@?1??init@cvars@@YAXXZ@QBE?AV?$basic_string@DU?$char_traits@D@std@@V?$allocator@D@2@@std@@XZ 10036df0 f i global_context.obj
 0001:00035e10       ??R<lambda_16>@?1??init@cvars@@YAXXZ@QBE?AV?$basic_string@DU?$char_traits@D@std@@V?$allocator@D@2@@std@@XZ 10036e10 f i global_context.obj
 0001:00035e30       ??R<lambda_17>@?1??init@cvars@@YAXXZ@QBE?AV?$basic_string@DU?$char_traits@D@std@@V?$allocator@D@2@@std@@XZ 10036e30 f i global_context.obj
 0001:00035e50       ??R<lambda_18>@?1??init@cvars@@YAXXZ@QBE?AV?$basic_string@DU?$char_traits@D@std@@V?$allocator@D@2@@std@@XZ 10036e50 f i global_context.obj
 0001:00035e70       ??R<lambda_19>@?1??init@cvars@@YAXXZ@QBE?AV?$basic_string@DU?$char_traits@D@std@@V?$allocator@D@2@@std@@XZ 10036e70 f i global_context.obj
 0001:00035e90       ??R<lambda_20>@?1??init@cvars@@YAXXZ@QBE?AV?$basic_string@DU?$char_traits@D@std@@V?$allocator@D@2@@std@@XZ 10036e90 f i global_context.obj
 0001:00035eb0       ??R<lambda_21>@?1??init@cvars@@YAXXZ@QBE?AV?$basic_string@DU?$char_traits@D@std@@V?$allocator@D@2@@std@@XZ 10036eb0 f i global_context.obj
 0001:00035ed0       ??R<lambda_22>@?1??init@cvars@@YAXXZ@QBE?AV?$basic_string@DU?$char_traits@D@std@@V?$allocator@D@2@@std@@XZ 10036ed0 f i global_context.obj
 0001:00035ef0       ??R<lambda_23>@?1??init@cvars@@YAXXZ@QBE?AV?$basic_string@DU?$char_traits@D@std@@V?$allocator@D@2@@std@@XZ 10036ef0 f i global_context.obj
 0001:00035f10       ??R<lambda_24>@?1??init@cvars@@YAXXZ@QBE?AV?$basic_string@DU?$char_traits@D@std@@V?$allocator@D@2@@std@@XZ 10036f10 f i global_context.obj
 0001:00035f30       ??R<lambda_25>@?1??init@cvars@@YAXXZ@QBE?AV?$basic_string@DU?$char_traits@D@std@@V?$allocator@D@2@@std@@XZ 10036f30 f i global_context.obj
 0001:00035f50       ??R<lambda_26>@?1??init@cvars@@YAXXZ@QBE?AV?$basic_string@DU?$char_traits@D@std@@V?$allocator@D@2@@std@@XZ 10036f50 f i global_context.obj
 0001:00035f70       ??R<lambda_27>@?1??init@cvars@@YAXXZ@QBE?AV?$basic_string@DU?$char_traits@D@std@@V?$allocator@D@2@@std@@XZ 10036f70 f i global_context.obj
 0001:00035f90       ??R<lambda_28>@?1??init@cvars@@YAXXZ@QBE?AV?$basic_string@DU?$char_traits@D@std@@V?$allocator@D@2@@std@@XZ 10036f90 f i global_context.obj
 0001:00035fb0       ??R<lambda_29>@?1??init@cvars@@YAXXZ@QBE?AV?$basic_string@DU?$char_traits@D@std@@V?$allocator@D@2@@std@@XZ 10036fb0 f i global_context.obj
 0001:00035fd0       ??R<lambda_30>@?1??init@cvars@@YAXXZ@QBE?AV?$basic_string@DU?$char_traits@D@std@@V?$allocator@D@2@@std@@XZ 10036fd0 f i global_context.obj
 0001:00035ff0       ??R<lambda_31>@?1??init@cvars@@YAXXZ@QBE?AV?$basic_string@DU?$char_traits@D@std@@V?$allocator@D@2@@std@@XZ 10036ff0 f i global_context.obj
 0001:00036010       ??R<lambda_32>@?1??init@cvars@@YAXXZ@QBE?AV?$basic_string@DU?$char_traits@D@std@@V?$allocator@D@2@@std@@XZ 10037010 f i global_context.obj
 0001:00036030       ??R<lambda_33>@?1??init@cvars@@YAXXZ@QBE?AV?$basic_string@DU?$char_traits@D@std@@V?$allocator@D@2@@std@@XZ 10037030 f i global_context.obj
 0001:00036050       ??R<lambda_34>@?1??init@cvars@@YAXXZ@QBE?AV?$basic_string@DU?$char_traits@D@std@@V?$allocator@D@2@@std@@XZ 10037050 f i global_context.obj
 0001:00036070       ??R<lambda_35>@?1??init@cvars@@YAXXZ@QBE?AV?$basic_string@DU?$char_traits@D@std@@V?$allocator@D@2@@std@@XZ 10037070 f i global_context.obj
 0001:00036090       ??R<lambda_36>@?1??init@cvars@@YAXXZ@QBE?AV?$basic_string@DU?$char_traits@D@std@@V?$allocator@D@2@@std@@XZ 10037090 f i global_context.obj
 0001:000360b0       ??R<lambda_37>@?1??init@cvars@@YAXXZ@QBE?AV?$basic_string@DU?$char_traits@D@std@@V?$allocator@D@2@@std@@XZ 100370b0 f i global_context.obj
 0001:000360d0       ??R<lambda_38>@?1??init@cvars@@YAXXZ@QBE?AV?$basic_string@DU?$char_traits@D@std@@V?$allocator@D@2@@std@@XZ 100370d0 f i global_context.obj
 0001:000360f0       ??R<lambda_39>@?1??init@cvars@@YAXXZ@QBE?AV?$basic_string@DU?$char_traits@D@std@@V?$allocator@D@2@@std@@XZ 100370f0 f i global_context.obj
 0001:00036110       ??R<lambda_40>@?1??init@cvars@@YAXXZ@QBE?AV?$basic_string@DU?$char_traits@D@std@@V?$allocator@D@2@@std@@XZ 10037110 f i global_context.obj
 0001:00036130       ??R<lambda_41>@?1??init@cvars@@YAXXZ@QBE?AV?$basic_string@DU?$char_traits@D@std@@V?$allocator@D@2@@std@@XZ 10037130 f i global_context.obj
 0001:00036150       ??R<lambda_42>@?1??init@cvars@@YAXXZ@QBE?AV?$basic_string@DU?$char_traits@D@std@@V?$allocator@D@2@@std@@XZ 10037150 f i global_context.obj
 0001:00036170       ??R<lambda_43>@?1??init@cvars@@YAXXZ@QBE?AV?$basic_string@DU?$char_traits@D@std@@V?$allocator@D@2@@std@@XZ 10037170 f i global_context.obj
 0001:00036190       ??R<lambda_44>@?1??init@cvars@@YAXXZ@QBE?AV?$basic_string@DU?$char_traits@D@std@@V?$allocator@D@2@@std@@XZ 10037190 f i global_context.obj
 0001:000361b0       ??R<lambda_45>@?1??init@cvars@@YAXXZ@QBE?AV?$basic_string@DU?$char_traits@D@std@@V?$allocator@D@2@@std@@XZ 100371b0 f i global_context.obj
 0001:000361d0       ??R<lambda_46>@?1??init@cvars@@YAXXZ@QBE?AV?$basic_string@DU?$char_traits@D@std@@V?$allocator@D@2@@std@@XZ 100371d0 f i global_context.obj
 0001:000361f0       ??R<lambda_47>@?1??init@cvars@@YAXXZ@QBE?AV?$basic_string@DU?$char_traits@D@std@@V?$allocator@D@2@@std@@XZ 100371f0 f i global_context.obj
 0001:00036210       ??R<lambda_48>@?1??init@cvars@@YAXXZ@QBE?AV?$basic_string@DU?$char_traits@D@std@@V?$allocator@D@2@@std@@XZ 10037210 f i global_context.obj
 0001:00036230       ??R<lambda_49>@?1??init@cvars@@YAXXZ@QBE?AV?$basic_string@DU?$char_traits@D@std@@V?$allocator@D@2@@std@@XZ 10037230 f i global_context.obj
 0001:00036250       ?update_local_player@c_global_context@@QAEXXZ 10037250 f   global_context.obj
 0001:000363b0       ??B?$c_xor_string@$0CI@@@QBE?AV?$basic_string@DU?$char_traits@D@std@@V?$allocator@D@2@@std@@XZ 100373b0 f i global_context.obj
 0001:00036490       ??B?$c_xor_string@$0CA@@@QBE?AV?$basic_string@DU?$char_traits@D@std@@V?$allocator@D@2@@std@@XZ 10037490 f i global_context.obj
 0001:00036570       ??B?$c_xor_string@$0BH@@@QBE?AV?$basic_string@DU?$char_traits@D@std@@V?$allocator@D@2@@std@@XZ 10037570 f i global_context.obj
 0001:00036650       ??B?$c_xor_string@$0BN@@@QBE?AV?$basic_string@DU?$char_traits@D@std@@V?$allocator@D@2@@std@@XZ 10037650 f i global_context.obj
 0001:00036730       ??B?$c_xor_string@$05@@QBE?AV?$basic_string@DU?$char_traits@D@std@@V?$allocator@D@2@@std@@XZ 10037730 f i global_context.obj
 0001:000368e0       ??B?$c_xor_string@$07@@QBE?AV?$basic_string@DU?$char_traits@D@std@@V?$allocator@D@2@@std@@XZ 100378e0 f i global_context.obj
 0001:00036c20       ??B?$c_xor_string@$09@@QBE?AV?$basic_string@DU?$char_traits@D@std@@V?$allocator@D@2@@std@@XZ 10037c20 f i global_context.obj
 0001:00037040       ??B?$c_xor_string@$0BJ@@@QBE?AV?$basic_string@DU?$char_traits@D@std@@V?$allocator@D@2@@std@@XZ 10038040 f i global_context.obj
 0001:00037120       ??B?$c_xor_string@$0BM@@@QBE?AV?$basic_string@DU?$char_traits@D@std@@V?$allocator@D@2@@std@@XZ 10038120 f i global_context.obj
 0001:00037200       ??B?$c_xor_string@$0M@@@QBE?AV?$basic_string@DU?$char_traits@D@std@@V?$allocator@D@2@@std@@XZ 10038200 f i global_context.obj
 0001:000372e0       ??B?$c_xor_string@$0BI@@@QBE?AV?$basic_string@DU?$char_traits@D@std@@V?$allocator@D@2@@std@@XZ 100382e0 f i global_context.obj
 0001:000373c0       ??B?$c_xor_string@$0BE@@@QBE?AV?$basic_string@DU?$char_traits@D@std@@V?$allocator@D@2@@std@@XZ 100383c0 f i global_context.obj
 0001:000374a0       ??B?$c_xor_string@$0N@@@QBE?AV?$basic_string@DU?$char_traits@D@std@@V?$allocator@D@2@@std@@XZ 100384a0 f i global_context.obj
 0001:00037580       ??B?$c_xor_string@$0BG@@@QBE?AV?$basic_string@DU?$char_traits@D@std@@V?$allocator@D@2@@std@@XZ 10038580 f i global_context.obj
 0001:00037660       ??B?$c_xor_string@$0BF@@@QBE?AV?$basic_string@DU?$char_traits@D@std@@V?$allocator@D@2@@std@@XZ 10038660 f i global_context.obj
 0001:00037740       ??B?$c_xor_string@$0O@@@QBE?AV?$basic_string@DU?$char_traits@D@std@@V?$allocator@D@2@@std@@XZ 10038740 f i global_context.obj
 0001:00037820       ??B?$c_xor_string@$0BA@@@QBE?AV?$basic_string@DU?$char_traits@D@std@@V?$allocator@D@2@@std@@XZ 10038820 f i global_context.obj
 0001:00037900       ??B?$c_xor_string@$0L@@@QBE?AV?$basic_string@DU?$char_traits@D@std@@V?$allocator@D@2@@std@@XZ 10038900 f i global_context.obj
 0001:000379e0       ??B?$c_xor_string@$0P@@@QBE?AV?$basic_string@DU?$char_traits@D@std@@V?$allocator@D@2@@std@@XZ 100389e0 f i global_context.obj
 0001:00037ac0       ??B?$c_xor_string@$0BC@@@QBE?AV?$basic_string@DU?$char_traits@D@std@@V?$allocator@D@2@@std@@XZ 10038ac0 f i global_context.obj
 0001:00037ba0       ??B?$c_xor_string@$0BD@@@QBE?AV?$basic_string@DU?$char_traits@D@std@@V?$allocator@D@2@@std@@XZ 10038ba0 f i global_context.obj
 0001:00037c80       ??B?$c_xor_string@$0BB@@@QBE?AV?$basic_string@DU?$char_traits@D@std@@V?$allocator@D@2@@std@@XZ 10038c80 f i global_context.obj
 0001:00037d60       ??C?$unique_ptr@Vc_memory@@U?$default_delete@Vc_memory@@@std@@@std@@QBEPAVc_memory@@XZ 10038d60 f i global_context.obj
 0001:00037d70       ??$?0PAD$0A@@?$basic_string@DU?$char_traits@D@std@@V?$allocator@D@2@@std@@QAE@PAD0ABV?$allocator@D@1@@Z 10038d70 f i global_context.obj
 0001:00037e80       ?enable@c_hooks@detour@hooks@@QAEXXZ 10038e80 f i hooks.obj
 0001:00037eb0       ??0c_protect_guard@vmt@hooks@@QAE@PAXII@Z 10038eb0 f i hooks.obj
 0001:00037fa0       ??1c_protect_guard@vmt@hooks@@QAE@XZ 10038fa0 f i hooks.obj
 0001:00038080       ?setup@c_hooks@vmt@hooks@@QAEXPAX@Z 10039080 f i hooks.obj
 0001:00038130       ?get_bsp_tree_query@c_engine@@QAEPAXXZ 10039130 f i hooks.obj
 0001:00038150       ??R<lambda_187>@?1??init@netvars@@YAXXZ@QBE@XZ 10039150 f i netvar_parser.obj
 0001:00038150       ??R<lambda_189>@?1??init@netvars@@YAXXZ@QBE@XZ 10039150 f i netvar_parser.obj
 0001:00038150       ??R<lambda_191>@?1??init@netvars@@YAXXZ@QBE@XZ 10039150 f i netvar_parser.obj
 0001:00038150       ??R<lambda_193>@?1??init@netvars@@YAXXZ@QBE@XZ 10039150 f i netvar_parser.obj
 0001:00038150       ??R<lambda_1>@?1??hook_vmt@hooks@@YAXXZ@QBE@XZ 10039150 f i hooks.obj
 0001:00038160       ??R<lambda_110>@?1??init@netvars@@YAXXZ@QBE@XZ 10039160 f i netvar_parser.obj
 0001:00038160       ??R<lambda_2>@?1??hook_vmt@hooks@@YAXXZ@QBE@XZ 10039160 f i hooks.obj
 0001:00038170       ??C?$unique_ptr@Vc_netvar_manager@@U?$default_delete@Vc_netvar_manager@@@std@@@std@@QBEPAVc_netvar_manager@@XZ 10039170 f i hooks.obj
 0001:00038180       ??A?$array@Vc_hooks@vmt@hooks@@$0BH@@std@@QAEAAVc_hooks@vmt@hooks@@I@Z 10039180 f i hooks.obj
 0001:000381a0       ??1?$vector@HV?$allocator@H@std@@@std@@QAE@XZ 100391a0 f i hooks.obj
 0001:000381a0       ??1?$vector@PAVc_recv_table@@V?$allocator@PAVc_recv_table@@@std@@@std@@QAE@XZ 100391a0 f i netvar_parser.obj
 0001:000381a0       ?_Tidy@?$vector@PBDV?$allocator@PBD@std@@@std@@AAEXXZ 100391a0 f i keybind.obj
 0001:00038200       ??0?$vector@HV?$allocator@H@std@@@std@@QAE@V?$initializer_list@H@1@ABV?$allocator@H@1@@Z 10039200 f i hooks.obj
 0001:00038280       ??1?$vector@Uhook_t@detour@hooks@@V?$allocator@Uhook_t@detour@hooks@@@std@@@std@@QAE@XZ 10039280 f i hooks.obj
 0001:00038280       ?_Tidy@?$vector@U?$pair@Vvector3d@@_N@std@@V?$allocator@U?$pair@Vvector3d@@_N@std@@@2@@std@@AAEXXZ 10039280 f i dllmain.obj
 0001:000382e0       ?deallocate@?$allocator@H@std@@QAEXQAHI@Z 100392e0 f i hooks.obj
 0001:000382e0       ?deallocate@?$allocator@PAVc_recv_table@@@std@@QAEXQAPAVc_recv_table@@I@Z 100392e0 f i netvar_parser.obj
 0001:00038320       ?deallocate@?$allocator@U?$pair@Vvector3d@@_N@std@@@std@@QAEXQAU?$pair@Vvector3d@@_N@2@I@Z 10039320 f i dllmain.obj
 0001:00038320       ?deallocate@?$allocator@Uhook_t@detour@hooks@@@std@@QAEXQAUhook_t@detour@hooks@@I@Z 10039320 f i hooks.obj
 0001:00038360       ??$obfuscate@$04$0DH@@numbers@@YAIXZ 10039360 f i hooks.obj
 0001:000383a0       ??$hook@P6IXPAX0PBD@Z@c_hooks@vmt@hooks@@QAEXIP6IXPAX0PBD@Z@Z 100393a0 f i hooks.obj
 0001:000383c0       ??$obfuscate@$05$0DI@@numbers@@YAIXZ 100393c0 f i hooks.obj
 0001:00038400       ??$hook@P6IHPAX0@Z@c_hooks@vmt@hooks@@QAEXIP6IHPAX0@Z@Z 10039400 f i hooks.obj
 0001:00038400       ??$hook@P6IXPAX0@Z@c_hooks@vmt@hooks@@QAEXIP6IXPAX0@Z@Z 10039400 f i hooks.obj
 0001:00038400       ??$hook@P6IXPAX0HH@Z@c_hooks@vmt@hooks@@QAEXIP6IXPAX0HH@Z@Z 10039400 f i hooks.obj
 0001:00038400       ??$hook@P6I_NPAX0@Z@c_hooks@vmt@hooks@@QAEXIP6I_NPAX0@Z@Z 10039400 f i hooks.obj
 0001:00038420       ??$obfuscate@$0BH@$0DJ@@numbers@@YAIXZ 10039420 f i hooks.obj
 0001:00038460       ??$hook@P6I_NPAX0H0HH_N@Z@c_hooks@vmt@hooks@@QAEXIP6I_NPAX0H0HH_N@Z@Z 10039460 f i hooks.obj
 0001:00038480       ??$obfuscate@$0BF@$0DK@@numbers@@YAIXZ 10039480 f i hooks.obj
 0001:000384c0       ??$hook@P6IXPAXHHM_N@Z@c_hooks@vmt@hooks@@QAEXIP6IXPAXHHM_N@Z@Z 100394c0 f i hooks.obj
 0001:000384e0       ??$obfuscate@$0CG@$0DL@@numbers@@YAIXZ 100394e0 f i hooks.obj
 0001:00038520       ??$hook@P6I_NPAX0HHH0@Z@c_hooks@vmt@hooks@@QAEXIP6I_NPAX0HHH0@Z@Z 10039520 f i hooks.obj
 0001:00038540       ??$obfuscate@$0CJ@$0DM@@numbers@@YAIXZ 10039540 f i hooks.obj
 0001:00038580       ??$hook@P6IXPAVc_panel@@PAXI_N2@Z@c_hooks@vmt@hooks@@QAEXIP6IXPAVc_panel@@PAXI_N2@Z@Z 10039580 f i hooks.obj
 0001:000385a0       ??$obfuscate@$0HE@$0DN@@numbers@@YAIXZ 100395a0 f i hooks.obj
 0001:000385e0       ??$obfuscate@$0BN@$0DO@@numbers@@YAIXZ 100395e0 f i hooks.obj
 0001:00038620       ??$hook@P6IXPAVc_studio_render@@PAX1ABUdraw_model_info_t@@PAUmatrix3x4_t@@PAM4ABVvector3d@@H@Z@c_hooks@vmt@hooks@@QAEXIP6IXPAVc_studio_render@@PAX1ABUdraw_model_info_t@@PAUmatrix3x4_t@@PAM4ABVvector3d@@H@Z@Z 10039620 f i hooks.obj
 0001:00038640       ??$obfuscate@$0DA@$0DP@@numbers@@YAIXZ 10039640 f i hooks.obj
 0001:00038680       ??$hook@P6IXPAX0ABUstudio_model_array_info2_t@@HPAUstudio_array_data_t@@HH@Z@c_hooks@vmt@hooks@@QAEXIP6IXPAX0ABUstudio_model_array_info2_t@@HPAUstudio_array_data_t@@HH@Z@Z 10039680 f i hooks.obj
 0001:000386a0       ??$obfuscate@$03$0EA@@numbers@@YAIXZ 100396a0 f i hooks.obj
 0001:000386e0       ??$hook@P6IXPAX0ABUray_t@@IPAVc_collideable@@PAVc_game_trace@@@Z@c_hooks@vmt@hooks@@QAEXIP6IXPAX0ABUray_t@@IPAVc_collideable@@PAVc_game_trace@@@Z@Z 100396e0 f i hooks.obj
 0001:00038700       ??$obfuscate@$0BC@$0EB@@numbers@@YAIXZ 10039700 f i hooks.obj
 0001:00038740       ??$hook@P6IXPAX0PAVc_view_setup@@@Z@c_hooks@vmt@hooks@@QAEXIP6IXPAX0PAVc_view_setup@@@Z@Z 10039740 f i hooks.obj
 0001:00038760       ??$obfuscate@$0BI@$0EC@@numbers@@YAIXZ 10039760 f i hooks.obj
 0001:000387a0       ??$hook@P6G_NMPAVc_usercmd@@@Z@c_hooks@vmt@hooks@@QAEXIP6G_NMPAVc_usercmd@@@Z@Z 100397a0 f i hooks.obj
 0001:000387c0       ??$obfuscate@$0CM@$0ED@@numbers@@YAIXZ 100397c0 f i hooks.obj
 0001:00038800       ??$hook@P6I_NPAX0PAVc_view_setup@@@Z@c_hooks@vmt@hooks@@QAEXIP6I_NPAX0PAVc_view_setup@@@Z@Z 10039800 f i hooks.obj
 0001:00038820       ??$obfuscate@$0O@$0EE@@numbers@@YAIXZ 10039820 f i hooks.obj
 0001:00038860       ??$obfuscate@$0BD@$0EF@@numbers@@YAIXZ 10039860 f i hooks.obj
 0001:000388a0       ??$hook@P6IXPAX0PAVc_csplayer@@PAVc_usercmd@@PAVc_movehelper@@@Z@c_hooks@vmt@hooks@@QAEXIP6IXPAX0PAVc_csplayer@@PAVc_usercmd@@PAVc_movehelper@@@Z@Z 100398a0 f i hooks.obj
 0001:000388c0       ??$obfuscate@$00$0EG@@numbers@@YAIXZ 100398c0 f i hooks.obj
 0001:00038900       ??$hook@P6IXPAX0PAVc_csplayer@@PAVc_movedata@@@Z@c_hooks@vmt@hooks@@QAEXIP6IXPAX0PAVc_csplayer@@PAVc_movedata@@@Z@Z 10039900 f i hooks.obj
 0001:00038920       ??$obfuscate@$05$0EH@@numbers@@YAIXZ 10039920 f i hooks.obj
 0001:00038960       ??$hook@P6IHPAX0ABVvector3d@@1PAGH@Z@c_hooks@vmt@hooks@@QAEXIP6IHPAX0ABVvector3d@@1PAGH@Z@Z 10039960 f i hooks.obj
 0001:00038980       ??$obfuscate@$0BL@$0EI@@numbers@@YAIXZ 10039980 f i hooks.obj
 0001:000389c0       ??$obfuscate@$0FK@$0EJ@@numbers@@YAIXZ 100399c0 f i hooks.obj
 0001:00038a00       ??$obfuscate@$0FN@$0EK@@numbers@@YAIXZ 10039a00 f i hooks.obj
 0001:00038a40       ??$obfuscate@$0GF@$0EL@@numbers@@YAIXZ 10039a40 f i hooks.obj
 0001:00038a80       ??$hook@P6IMPAX0HH@Z@c_hooks@vmt@hooks@@QAEXIP6IMPAX0HH@Z@Z 10039a80 f i hooks.obj
 0001:00038aa0       ??$obfuscate@$0N@$0EM@@numbers@@YAIXZ 10039aa0 f i hooks.obj
 0001:00038ae0       ??$obfuscate@$0N@$0EN@@numbers@@YAIXZ 10039ae0 f i hooks.obj
 0001:00038b20       ??$obfuscate@$0N@$0EO@@numbers@@YAIXZ 10039b20 f i hooks.obj
 0001:00038b60       ??$obfuscate@$0N@$0EP@@numbers@@YAIXZ 10039b60 f i hooks.obj
 0001:00038ba0       ??$obfuscate@$0N@$0FA@@numbers@@YAIXZ 10039ba0 f i hooks.obj
 0001:00038be0       ??$obfuscate@$0N@$0FB@@numbers@@YAIXZ 10039be0 f i hooks.obj
 0001:00038c20       ??$obfuscate@$0N@$0FC@@numbers@@YAIXZ 10039c20 f i hooks.obj
 0001:00038c60       ??$obfuscate@$04$0FD@@numbers@@YAIXZ 10039c60 f i hooks.obj
 0001:00038ca0       ??$obfuscate@$05$0FE@@numbers@@YAIXZ 10039ca0 f i hooks.obj
 0001:00038ce0       ??$obfuscate@$03$0FF@@numbers@@YAIXZ 10039ce0 f i hooks.obj
 0001:00038d20       ??$obfuscate@$0CH@$0FG@@numbers@@YAIXZ 10039d20 f i hooks.obj
 0001:00038d60       ??$hook@P6IXPAX0ABVc_view_setup@@@Z@c_hooks@vmt@hooks@@QAEXIP6IXPAX0ABVc_view_setup@@@Z@Z 10039d60 f i hooks.obj
 0001:00038d80       ??$obfuscate@$0CI@$0FH@@numbers@@YAIXZ 10039d80 f i hooks.obj
 0001:00038dc0       ??$hook@P6IXPAX0_N@Z@c_hooks@vmt@hooks@@QAEXIP6IXPAX0_N@Z@Z 10039dc0 f i hooks.obj
 0001:00038de0       ??$obfuscate@$0BF@$0FI@@numbers@@YAIXZ 10039de0 f i hooks.obj
 0001:00038e20       ??$hook@P6IXPAX00ABUdraw_model_state_t@@ABUmodel_render_info_t@@PAUmatrix3x4_t@@@Z@c_hooks@vmt@hooks@@QAEXIP6IXPAX00ABUdraw_model_state_t@@ABUmodel_render_info_t@@PAUmatrix3x4_t@@@Z@Z 10039e20 f i hooks.obj
 0001:00038e40       ??$obfuscate@$0FE@$0FJ@@numbers@@YAIXZ 10039e40 f i hooks.obj
 0001:00038e80       ??$hook@P6IPAVc_material@@PAX0PBD1_N1@Z@c_hooks@vmt@hooks@@QAEXIP6IPAVc_material@@PAX0PBD1_N1@Z@Z 10039e80 f i hooks.obj
 0001:00038ea0       ??$obfuscate@$0CE@$0FK@@numbers@@YAIXZ 10039ea0 f i hooks.obj
 0001:00038ee0       ??$create_hook@P6IXPAX0H@Z@c_hooks@detour@hooks@@QAE_NP6IXPAX0H@Z0@Z 10039ee0 f i hooks.obj
 0001:00038f50       ??$create_hook@P6IXPAVc_csplayer@@PAX@Z@c_hooks@detour@hooks@@QAE_NP6IXPAVc_csplayer@@PAX@Z1@Z 10039f50 f i hooks.obj
 0001:00038f50       ??$create_hook@P6IXPAX0@Z@c_hooks@detour@hooks@@QAE_NP6IXPAX0@Z0@Z 10039f50 f i hooks.obj
 0001:00038f50       ??$create_hook@P6I_NPAX0@Z@c_hooks@detour@hooks@@QAE_NP6I_NPAX0@Z0@Z 10039f50 f i hooks.obj
 0001:00038fc0       ??$create_hook@P6IXPAX0HPAUmodel_list_by_type_t@@@Z@c_hooks@detour@hooks@@QAE_NP6IXPAX0HPAUmodel_list_by_type_t@@@Z0@Z 10039fc0 f i hooks.obj
 0001:00039030       ??$create_hook@P6IXPAX0HHHHHD@Z@c_hooks@detour@hooks@@QAE_NP6IXPAX0HHHHHD@Z0@Z 1003a030 f i hooks.obj
 0001:000390a0       ??$create_hook@P6IXPAX0HHHH@Z@c_hooks@detour@hooks@@QAE_NP6IXPAX0HHHH@Z0@Z 1003a0a0 f i hooks.obj
 0001:00039110       ??$create_hook@P6IXPAVc_glow_object_manager@@PAXH1@Z@c_hooks@detour@hooks@@QAE_NP6IXPAVc_glow_object_manager@@PAXH1@Z1@Z 1003a110 f i hooks.obj
 0001:00039180       ??$create_hook@P6IXPAM0@Z@c_hooks@detour@hooks@@QAE_NP6IXPAM0@ZPAX@Z 1003a180 f i hooks.obj
 0001:000391f0       ??$create_hook@P6IXPAX0AAVvector3d@@@Z@c_hooks@detour@hooks@@QAE_NP6IXPAX0AAVvector3d@@@Z0@Z 1003a1f0 f i hooks.obj
 0001:00039260       ??$create_hook@P6IHPAX0HMMM@Z@c_hooks@detour@hooks@@QAE_NP6IHPAX0HMMM@Z0@Z 1003a260 f i hooks.obj
 0001:000392d0       ??$create_hook@P6I_NPAVi_net_channel_info@@PAXAAVc_net_message@@_N3@Z@c_hooks@detour@hooks@@QAE_NP6I_NPAVi_net_channel_info@@PAXAAVc_net_message@@_N3@Z1@Z 1003a2d0 f i hooks.obj
 0001:00039340       ??$create_hook@P6QXM_N@Z@c_hooks@detour@hooks@@QAE_NP6QXM_N@ZPAX@Z 1003a340 f i hooks.obj
 0001:000393b0       ??$create_hook@P6IXPAVc_netchan@@PAX1_N@Z@c_hooks@detour@hooks@@QAE_NP6IXPAVc_netchan@@PAX1_N@Z1@Z 1003a3b0 f i hooks.obj
 0001:00039420       ??$create_hook@P6I_NPAVc_clientstate@@PAX1@Z@c_hooks@detour@hooks@@QAE_NP6I_NPAVc_clientstate@@PAX1@Z1@Z 1003a420 f i hooks.obj
 0001:00039490       ??$create_hook@P6IHPAX00@Z@c_hooks@detour@hooks@@QAE_NP6IHPAX00@Z0@Z 1003a490 f i hooks.obj
 0001:00039500       ??$create_hook@P6IXPAVc_material@@PAXPAM22@Z@c_hooks@detour@hooks@@QAE_NP6IXPAVc_material@@PAXPAM22@Z1@Z 1003a500 f i hooks.obj
 0001:00039570       ??$create_hook@P6I_NPAVc_csplayer@@PAX@Z@c_hooks@detour@hooks@@QAE_NP6I_NPAVc_csplayer@@PAX@Z1@Z 1003a570 f i hooks.obj
 0001:000395e0       ??$create_hook@P6IXPAVc_animstate@@PAXAAVvector3d@@@Z@c_hooks@detour@hooks@@QAE_NP6IXPAVc_animstate@@PAXAAVvector3d@@@Z1@Z 1003a5e0 f i hooks.obj
 0001:00039650       ??$create_hook@P6I_NPAX0PAUmatrix3x4_t@@HHM@Z@c_hooks@detour@hooks@@QAE_NP6I_NPAX0PAUmatrix3x4_t@@HHM@Z0@Z 1003a650 f i hooks.obj
 0001:000396c0       ??$create_hook@P6IXPAVc_csplayer@@PAXPAVc_studiohdr@@HHHHH@Z@c_hooks@detour@hooks@@QAE_NP6IXPAVc_csplayer@@PAXPAVc_studiohdr@@HHHHH@Z1@Z 1003a6c0 f i hooks.obj
 0001:00039730       ??$create_hook@P6IXPAVc_csplayer@@PAXPAVc_studiohdr@@PAVvector3d@@PAVvector4d@@MH@Z@c_hooks@detour@hooks@@QAE_NP6IXPAVc_csplayer@@PAXPAVc_studiohdr@@PAVvector3d@@PAVvector4d@@MH@Z1@Z 1003a730 f i hooks.obj
 0001:000397a0       ??$create_hook@P6IXPAVc_csplayer@@PAXPAVc_studiohdr@@PAVvector3d@@PAVvector4d@@ABUmatrix3x4_t@@PAE1@Z@c_hooks@detour@hooks@@QAE_NP6IXPAVc_csplayer@@PAXPAVc_studiohdr@@PAVvector3d@@PAVvector4d@@ABUmatrix3x4_t@@PAE1@Z1@Z 1003a7a0 f i hooks.obj
 0001:00039810       ??$create_hook@P6IPAXPAX0@Z@c_hooks@detour@hooks@@QAE_NP6IPAXPAX0@Z0@Z 1003a810 f i hooks.obj
 0001:00039880       ??$create_hook@P6IXPAX0PAVc_csplayer@@AAVvector3d@@2@Z@c_hooks@detour@hooks@@QAE_NP6IXPAX0PAVc_csplayer@@AAVvector3d@@2@Z0@Z 1003a880 f i hooks.obj
 0001:000398f0       ??$create_hook@P6IXPAVc_csplayer@@PAXAAVvector3d@@2AAM33@Z@c_hooks@detour@hooks@@QAE_NP6IXPAVc_csplayer@@PAXAAVvector3d@@2AAM33@Z1@Z 1003a8f0 f i hooks.obj
 0001:00039960       ??$create_hook@P6AHXZ@c_hooks@detour@hooks@@QAE_NP6AHXZPAX@Z 1003a960 f i hooks.obj
 0001:000399d0       ??$create_hook@P6IXPAX0PAVc_baseentity@@AAVvector3d@@2@Z@c_hooks@detour@hooks@@QAE_NP6IXPAX0PAVc_baseentity@@AAVvector3d@@2@Z0@Z 1003a9d0 f i hooks.obj
 0001:00039a40       ??$create_hook@P6IXPAX0PAVc_renderable@@_NHHH@Z@c_hooks@detour@hooks@@QAE_NP6IXPAX0PAVc_renderable@@_NHHH@Z0@Z 1003aa40 f i hooks.obj
 0001:00039ab0       ?allocate@?$allocator@H@std@@QAEPAHI@Z 1003aab0 f i hooks.obj
 0001:00039b10       ??$_Emplace_reallocate@AAUhook_t@detour@hooks@@@?$vector@Uhook_t@detour@hooks@@V?$allocator@Uhook_t@detour@hooks@@@std@@@std@@AAEPAUhook_t@detour@hooks@@QAU234@AAU234@@Z 1003ab10 f i hooks.obj
 0001:00039d00       ?dispatch_user_message@client@tr@@YI_NPAX0HHH0@Z 1003ad00 f   client.obj
 0001:00039de0       ?get_exposure_range@client@tr@@YIXPAM0@Z 1003ade0 f   client.obj
 0001:00039e80       ?perform_screen_overlay@client@tr@@YIXPAX0HHHH@Z 1003ae80 f   client.obj
 0001:00039f40       ?frame_stage_notify@client@tr@@YIXPAX0H@Z 1003af40 f   client.obj
 0001:0003a930       ?create_move@client@tr@@YGXHM_NAA_N@Z 1003b930 f   client.obj
 0001:0003a9e0       ?create_move_wrapper@client@tr@@YIXPAXHHM_N@Z 1003b9e0 f   client.obj
 0001:0003aa00       ?setup_clr_modulation@client@tr@@YIXPAX0HPAUmodel_list_by_type_t@@@Z 1003ba00 f   client.obj
 0001:0003add0       ?draw_models@client@tr@@YIXPAX0HHHHHD@Z 1003bdd0 f   client.obj
 0001:0003ae80       ?calc_view_model_bob@client@tr@@YIXPAX0AAVvector3d@@@Z 1003be80 f   client.obj
 0001:0003af40       ?level_init_pre_entity@client@tr@@YIXPAX0PBD@Z 1003bf40 f   client.obj
 0001:0003b180       ?level_init_post_entity@client@tr@@YIXPAX0@Z 1003c180 f   client.obj
 0001:0003b210       ?physics_simulate@client@tr@@YIXPAVc_csplayer@@PAX@Z 1003c210 f   client.obj
 0001:0003b570       ?write_usercmd_to_delta_buffer@client@tr@@YI_NPAX0H0HH_N@Z 1003c570 f   client.obj
 0001:0003b720       ?update_postscreen_effects@client@tr@@YIXPAX0@Z 1003c720 f   client.obj
 0001:0003b960       ?render_glow_boxes@client@tr@@YIXPAVc_glow_object_manager@@PAXH1@Z 1003c960 f   client.obj
 0001:0003ba00       ??C?$unique_ptr@Vc_listener_entity@@U?$default_delete@Vc_listener_entity@@@std@@@std@@QBEPAVc_listener_entity@@XZ 1003ca00 f i client.obj
 0001:0003ba10       ??C?$unique_ptr@Vc_engine_prediction@@U?$default_delete@Vc_engine_prediction@@@std@@@std@@QBEPAVc_engine_prediction@@XZ 1003ca10 f i client.obj
 0001:0003ba20       ??$original@P6IXPAVc_csplayer@@PAX@ZP6IX01@Z@c_hooks@detour@hooks@@QAEP6IXPAVc_csplayer@@PAX@ZP6IX01@Z@Z 1003ca20 f i client.obj
 0001:0003ba20       ??$original@P6I_NPAX0@ZP6I_N00@Z@c_hooks@detour@hooks@@QAEP6I_NPAX0@ZP6I_N00@Z@Z 1003ca20 f i client_mode.obj
 0001:0003ba70       ?call_createmove_features@@YAXPAVc_usercmd@@@Z 1003ca70 f   client_mode.obj
 0001:0003bdc0       ?override_view@client_mode@tr@@YIXPAX0PAVc_view_setup@@@Z 1003cdc0 f   client_mode.obj
 0001:0003bfe0       ?set_view_model_offsets@client_mode@tr@@YIHPAX0HMMM@Z 1003cfe0 f   client_mode.obj
 0001:0003c170       ?draw_fog@client_mode@tr@@YI_NPAX0@Z 1003d170 f   client_mode.obj
 0001:0003c1f0       ?do_post_screen_effects@client_mode@tr@@YI_NPAX0PAVc_view_setup@@@Z 1003d1f0 f   client_mode.obj
 0001:0003c2b0       ?create_move@client_mode@tr@@YG_NMPAVc_usercmd@@@Z 1003d2b0 f   client_mode.obj
 0001:0003ceb0       ??C?$unique_ptr@Vc_render@@U?$default_delete@Vc_render@@@std@@@std@@QBEPAVc_render@@XZ 1003deb0 f i client_mode.obj
 0001:0003cec0       ??C?$unique_ptr@Vc_chams@@U?$default_delete@Vc_chams@@@std@@@std@@QBEPAVc_chams@@XZ 1003dec0 f i client_mode.obj
 0001:0003ced0       ?cl_foot_contact_shadows_get_int@convars@tr@@YIHPAX0@Z 1003ded0 f   convars.obj
 0001:0003cf70       ?sv_cheats_get_int@convars@tr@@YIHPAX0@Z 1003df70 f   convars.obj
 0001:0003d030       ?cl_csm_shadows_get_int@convars@tr@@YIHPAX0@Z 1003e030 f   convars.obj
 0001:0003d0e0       ?cl_brushfastpath_get_int@convars@tr@@YIHPAX0@Z 1003e0e0 f   convars.obj
 0001:0003d170       ?debug_show_spread_get_int@convars@tr@@YIHPAX0@Z 1003e170 f   convars.obj
 0001:0003d3d0       ?cl_clock_correction_get_int@convars@tr@@YIHPAX0@Z 1003e3d0 f   convars.obj
 0001:0003d460       ?net_showfragments_get_bool@convars@tr@@YI_NPAX0@Z 1003e460 f   convars.obj
 0001:0003d4f0       ?present@direct@tr@@YGJPAUIDirect3DDevice9@@PBUtagRECT@@1PAUHWND__@@PBU_RGNDATA@@@Z 1003e4f0 f   directx.obj
 0001:0003d8b0       ?reset@direct@tr@@YGJPAUIDirect3DDevice9@@PAU_D3DPRESENT_PARAMETERS_@@@Z 1003e8b0 f   directx.obj
 0001:0003d920       ?get_check_sum@c_usercmd@@QBEKXZ 1003e920 f i engine.obj
 0001:0003ed30       ?packet_start@client_state@tr@@YIXPAX0HH@Z 1003fd30 f   engine.obj
 0001:0003f050       ?packet_end@client_state@tr@@YIXPAX0@Z 10040050 f   engine.obj
 0001:0003f460       ??4c_usercmd@@QAEAAV0@ABV0@@Z 10040460 f i engine.obj
 0001:0003f510       ?list_leaves_in_box@engine@tr@@YIHPAX0ABVvector3d@@1PAGH@Z 10040510 f   engine.obj
 0001:0003f790       ?temp_entities@engine@tr@@YI_NPAVc_clientstate@@PAX1@Z 10040790 f   engine.obj
 0001:0003f850       ?send_net_msg@engine@tr@@YI_NPAVi_net_channel_info@@PAXAAVc_net_message@@_N3@Z 10040850 f   engine.obj
 0001:0003f940       ?do_always_noconv@?$codecvt@DDU_Mbstatet@@@std@@MBE_NXZ 10040940 f   dllmain.obj
 0001:0003f940       ?using_static_props_debug@engine@tr@@YI_NPAX0@Z 10040940 f   engine.obj
 0001:0003f940       ___acrt_uninitialize_command_line 10040940 f   libucrt:argv_data.obj
 0001:0003f950       ?get_screen_aspect_ratio@engine@tr@@YIMPAX0HH@Z 10040950 f   engine.obj
 0001:0003fa10       ?is_connected@engine@tr@@YI_NPAX0@Z 10040a10 f   engine.obj
 0001:0003fac0       ?is_paused@engine@tr@@YI_NPAX0@Z 10040ac0 f   engine.obj
 0001:0003fb50       ?is_hltv@engine@tr@@YI_NPAX0@Z 10040b50 f   engine.obj
 0001:0003fc10       ?cl_move@engine@tr@@YQXM_N@Z 10040c10 f   engine.obj
 0001:0003fdd0       ?send_datagram@engine@tr@@YIHPAX00@Z 10040dd0 f   engine.obj
 0001:0003ff60       ?process_packet@engine@tr@@YIXPAVc_netchan@@PAX1_N@Z 10040f60 f   engine.obj
 0001:00040110       ?erase@?$deque@Ucommands_t@@V?$allocator@Ucommands_t@@@std@@@std@@QAE?AV?$_Deque_iterator@V?$_Deque_val@U?$_Deque_simple_types@Ucommands_t@@@std@@@std@@@2@V?$_Deque_const_iterator@V?$_Deque_val@U?$_Deque_simple_types@Ucommands_t@@@std@@@std@@@2@0@Z 10041110 f i engine.obj
 0001:000402f0       ??$original@P6QXM_N@ZP6QXM0@Z@c_hooks@detour@hooks@@QAEP6QXM_N@ZP6QXM0@Z@Z 100412f0 f i engine.obj
 0001:00040330       ?find_material@material_system@tr@@YIPAVc_material@@PAX0PBD1_N1@Z 10041330 f   material_system.obj
 0001:000409f0       ?get_color_modulation@material_system@tr@@YIXPAVc_material@@PAXPAM22@Z 100419f0 f   material_system.obj
 0001:00040d70       ??B?$c_xor_string@$06@@QBE?AV?$basic_string@DU?$char_traits@D@std@@V?$allocator@D@2@@std@@XZ 10041d70 f i material_system.obj
 0001:00040f40       ?viewmodel_sequence@netvar_proxies@tr@@YAXPAVc_recv_proxy_data@@PAX1@Z 10041f40 f   netvar_proxies.obj
 0001:00041110       ?process_interpolated_list@player@tr@@YAHXZ 10042110 f   player_hook.obj
 0001:00041200       ?add_view_model_bob@player@tr@@YIXPAX0PAVc_baseentity@@AAVvector3d@@2@Z 10042200 f   player_hook.obj
 0001:000412b0       ?want_reticle_shown@player@tr@@YI_NPAX0@Z 100422b0 f   player_hook.obj
 0001:00041430       ?standard_blending_rules@player@tr@@YIXPAVc_csplayer@@PAXPAVc_studiohdr@@PAVvector3d@@PAVvector4d@@MH@Z 10042430 f   player_hook.obj
 0001:000415f0       ?calc_viewmodel_view@player@tr@@YIXPAX0PAVc_csplayer@@AAVvector3d@@2@Z 100425f0 f   player_hook.obj
 0001:00041a60       ?model_renderable_animating@player@tr@@YIPAXPAX0@Z 10042a60 f   player_hook.obj
 0001:00041b10       ?build_transformations@player@tr@@YIXPAVc_csplayer@@PAXPAVc_studiohdr@@HHHHH@Z 10042b10 f   player_hook.obj
 0001:00041cc0       ?should_skip_anim_frame@player@tr@@YI_NPAVc_csplayer@@PAX@Z 10042cc0 f   player_hook.obj
 0001:00041e20       ?do_extra_bone_processing@player@tr@@YIXPAVc_csplayer@@PAXPAVc_studiohdr@@PAVvector3d@@PAVvector4d@@ABUmatrix3x4_t@@PAE1@Z 10042e20 f   player_hook.obj
 0001:00041f90       ?add_renderable@player@tr@@YIXPAX0PAVc_renderable@@_NHHH@Z 10042f90 f   player_hook.obj
 0001:00042080       ?update_clientside_animation@player@tr@@YIXPAVc_csplayer@@PAX@Z 10043080 f   player_hook.obj
 0001:000421c0       ?calc_view@player@tr@@YIXPAVc_csplayer@@PAXAAVvector3d@@2AAM33@Z 100431c0 f   player_hook.obj
 0001:00042270       ?modify_eye_position@player@tr@@YIXPAVc_animstate@@PAXAAVvector3d@@@Z 10043270 f   player_hook.obj
 0001:00042330       ?setup_bones@player@tr@@YI_NPAX0PAUmatrix3x4_t@@HHM@Z 10043330 f   player_hook.obj
 0001:000424f0       ?in_prediction@prediction@tr@@YI_NPAX0@Z 100434f0 f   prediction.obj
 0001:00042660       ?run_command@prediction@tr@@YIXPAX0PAVc_csplayer@@PAVc_usercmd@@PAVc_movehelper@@@Z 10043660 f   prediction.obj
 0001:00042900       ?process_movement@prediction@tr@@YIXPAX0PAVc_csplayer@@PAVc_movedata@@@Z 10043900 f   prediction.obj
 0001:000429a0       ?on_render_start@view_render@tr@@YIXPAX0@Z 100439a0 f   view_render.obj
 0001:00042d70       ?render_2d_effects_post_hud@view_render@tr@@YIXPAX0ABVc_view_setup@@@Z 10043d70 f   view_render.obj
 0001:00042e10       ?render_smoke_overlay@view_render@tr@@YIXPAX0_N@Z 10043e10 f   view_render.obj
 0001:00042eb0       ?draw_model@studio_render@tr@@YIXPAVc_studio_render@@PAX1ABUdraw_model_info_t@@PAUmatrix3x4_t@@PAM4ABVvector3d@@H@Z 10043eb0 f   studio_render.obj
 0001:00042f60       ?draw_model_array@studio_render@tr@@YIXPAX0ABUstudio_model_array_info2_t@@HPAUstudio_array_data_t@@HH@Z 10043f60 f   studio_render.obj
 0001:00043010       ?draw_model_execute@model_render@tr@@YIXPAX00ABUdraw_model_state_t@@ABUmodel_render_info_t@@PAUmatrix3x4_t@@@Z 10044010 f   studio_render.obj
 0001:00043340       ?on_screen_size_changed@surface@tr@@YIXPAX0HH@Z 10044340 f   surface.obj
 0001:00043420       ?clip_ray_to_collideable@trace@tr@@YIXPAX0ABUray_t@@IPAVc_collideable@@PAVc_game_trace@@@Z 10044420 f   trace.obj
 0001:000434c0       ?paint_traverse@panel@tr@@YIXPAVc_panel@@PAXI_N2@Z 100444c0 f   vgui_panel.obj
 0001:00043910       ?_Tidy@?$vector@Upanels_t@panel@tr@@V?$allocator@Upanels_t@panel@tr@@@std@@@std@@AAEXXZ 10044910 f i vgui_panel.obj
 0001:00043990       ??$clamp@E@std@@YAABEABE00@Z 10044990 f i vgui_panel.obj
 0001:000439b0       ??$_Destroy_range@V?$allocator@Upanels_t@panel@tr@@@std@@@std@@YAXPAUpanels_t@panel@tr@@QAU123@AAV?$allocator@Upanels_t@panel@tr@@@0@@Z 100449b0 f i vgui_panel.obj
 0001:00043a10       ?wnd_proc@tr@@YGJPAUHWND__@@IIJ@Z 10044a10 f   wnd_proc.obj
 0001:00043c10       ??0ray_t@@QAE@ABVvector3d@@0@Z 10044c10 f i engine_trace.obj
 0001:00043d40       ??0ray_t@@QAE@ABVvector3d@@000@Z 10044d40 f i engine_trace.obj
 0001:00043f20       ?should_hit_entity@c_trace_filter@@UAE_NPAVc_baseentity@@H@Z 10044f20 f   engine_trace.obj
 0001:00043fa0       ?trace_line@c_engine_trace@@QAEXABVvector3d@@0HPAVc_handle_entity@@HPAVc_game_trace@@@Z 10044fa0 f   engine_trace.obj
 0001:00044090       ?trace_hull@c_engine_trace@@QAEXABVvector3d@@000HPAVc_handle_entity@@HPAVc_game_trace@@@Z 10045090 f   engine_trace.obj
 0001:00044190       ?get_view_model@c_baseentity@@QAEPAV1@XZ 10045190 f   entity.obj
 0001:00044200       ?get_hitbox_position@c_csplayer@@QAE?AVvector3d@@HPAUmatrix3x4_t@@@Z 10045200 f   entity.obj
 0001:00044480       ?get_active_weapon@c_csplayer@@QAEPAVc_basecombatweapon@@XZ 10045480 f   entity.obj
 0001:000444f0       ?get_studio_hdr@c_csplayer@@QAEPAVc_studiohdr@@XZ 100454f0 f   entity.obj
 0001:00044520       ?interpolate_moveparent_pos@c_csplayer@@QAEXXZ 10045520 f   entity.obj
 0001:000445f0       ?force_update@c_csplayer@@QAEXXZ 100455f0 f   entity.obj
 0001:00044830       ?get_weapon_world_model@c_basecombatweapon@@QAEPAV1@XZ 10045830 f   entity.obj
 0001:000448a0       ?find_in_datamap@@YAIPAUdatamap_t@@PBD@Z 100458a0 f   entity.obj
 0001:00044fc0       ??1?$unique_ptr@Vc_key_states@@U?$default_delete@Vc_key_states@@@std@@@std@@QAE@XZ 10045fc0 f i key_states.obj
 0001:00044ff0       ?angle_matrix@matrix3x4_t@@QAEXABVvector3d@@@Z 10045ff0 f i math.obj
 0001:00045140       ?angle_to_vectors@math@@YAXVvector3d@@AAV2@11@Z 10046140 f   math.obj
 0001:000452d0       ?normalize@math@@YA?AVvector3d@@V2@_N@Z 100462d0 f   math.obj
 0001:00045370       ?segment_to_segment@math@@YAMABVvector3d@@0AAV2@1@Z 10046370 f   math.obj
 0001:00045670       ?matrix_copy@math@@YAXABUmatrix3x4_t@@AAU2@@Z 10046670 f   math.obj
 0001:000456b0       ?contact_transforms@math@@YAXABUmatrix3x4_t@@0AAU2@@Z 100466b0 f   math.obj
 0001:00045960       ?random_seed@math@@YAXI@Z  10046960 f   math.obj
 0001:00045ad0       ?random_float@math@@YAMMM@Z 10046ad0 f   math.obj
 0001:00045c80       ??B?$c_xor_string@$0GN@@@QBE?AV?$basic_string@DU?$char_traits@D@std@@V?$allocator@D@2@@std@@XZ 10046c80 f i displacement.obj
 0001:00045d60       ??B?$c_xor_string@$0HH@@@QBE?AV?$basic_string@DU?$char_traits@D@std@@V?$allocator@D@2@@std@@XZ 10046d60 f i displacement.obj
 0001:00045e50       ??B?$c_xor_string@$0EA@@@QBE?AV?$basic_string@DU?$char_traits@D@std@@V?$allocator@D@2@@std@@XZ 10046e50 f i displacement.obj
 0001:00045f40       ??B?$c_xor_string@$0DC@@@QBE?AV?$basic_string@DU?$char_traits@D@std@@V?$allocator@D@2@@std@@XZ 10046f40 f i displacement.obj
 0001:00046020       ??B?$c_xor_string@$0BL@@@QBE?AV?$basic_string@DU?$char_traits@D@std@@V?$allocator@D@2@@std@@XZ 10047020 f i displacement.obj
 0001:00046100       ??B?$c_xor_string@$0DO@@@QBE?AV?$basic_string@DU?$char_traits@D@std@@V?$allocator@D@2@@std@@XZ 10047100 f i displacement.obj
 0001:000461f0       ??B?$c_xor_string@$0FO@@@QBE?AV?$basic_string@DU?$char_traits@D@std@@V?$allocator@D@2@@std@@XZ 100471f0 f i displacement.obj
 0001:000462e0       ??B?$c_xor_string@$0CO@@@QBE?AV?$basic_string@DU?$char_traits@D@std@@V?$allocator@D@2@@std@@XZ 100472e0 f i displacement.obj
 0001:000463d0       ??B?$c_xor_string@$0CE@@@QBE?AV?$basic_string@DU?$char_traits@D@std@@V?$allocator@D@2@@std@@XZ 100473d0 f i displacement.obj
 0001:000464b0       ??B?$c_xor_string@$0DK@@@QBE?AV?$basic_string@DU?$char_traits@D@std@@V?$allocator@D@2@@std@@XZ 100474b0 f i displacement.obj
 0001:000465a0       ??B?$c_xor_string@$0DB@@@QBE?AV?$basic_string@DU?$char_traits@D@std@@V?$allocator@D@2@@std@@XZ 100475a0 f i displacement.obj
 0001:00046690       ??B?$c_xor_string@$0EF@@@QBE?AV?$basic_string@DU?$char_traits@D@std@@V?$allocator@D@2@@std@@XZ 10047690 f i displacement.obj
 0001:00046780       ??B?$c_xor_string@$0HN@@@QBE?AV?$basic_string@DU?$char_traits@D@std@@V?$allocator@D@2@@std@@XZ 10047780 f i displacement.obj
 0001:00046870       ??B?$c_xor_string@$0DJ@@@QBE?AV?$basic_string@DU?$char_traits@D@std@@V?$allocator@D@2@@std@@XZ 10047870 f i displacement.obj
 0001:00046960       ??B?$c_xor_string@$0DI@@@QBE?AV?$basic_string@DU?$char_traits@D@std@@V?$allocator@D@2@@std@@XZ 10047960 f i displacement.obj
 0001:00046a40       ??B?$c_xor_string@$0EC@@@QBE?AV?$basic_string@DU?$char_traits@D@std@@V?$allocator@D@2@@std@@XZ 10047a40 f i displacement.obj
 0001:00046b20       ??B?$c_xor_string@$0EO@@@QBE?AV?$basic_string@DU?$char_traits@D@std@@V?$allocator@D@2@@std@@XZ 10047b20 f i displacement.obj
 0001:00046c00       ??B?$c_xor_string@$0CB@@@QBE?AV?$basic_string@DU?$char_traits@D@std@@V?$allocator@D@2@@std@@XZ 10047c00 f i displacement.obj
 0001:00046ce0       ??B?$c_xor_string@$0DD@@@QBE?AV?$basic_string@DU?$char_traits@D@std@@V?$allocator@D@2@@std@@XZ 10047ce0 f i displacement.obj
 0001:00046dd0       ??B?$c_xor_string@$0CC@@@QBE?AV?$basic_string@DU?$char_traits@D@std@@V?$allocator@D@2@@std@@XZ 10047dd0 f i displacement.obj
 0001:00046eb0       ??B?$c_xor_string@$0EN@@@QBE?AV?$basic_string@DU?$char_traits@D@std@@V?$allocator@D@2@@std@@XZ 10047eb0 f i displacement.obj
 0001:00046fa0       ??B?$c_xor_string@$0CF@@@QBE?AV?$basic_string@DU?$char_traits@D@std@@V?$allocator@D@2@@std@@XZ 10047fa0 f i displacement.obj
 0001:00047090       ??B?$c_xor_string@$0DL@@@QBE?AV?$basic_string@DU?$char_traits@D@std@@V?$allocator@D@2@@std@@XZ 10048090 f i displacement.obj
 0001:00047180       ??B?$c_xor_string@$0ED@@@QBE?AV?$basic_string@DU?$char_traits@D@std@@V?$allocator@D@2@@std@@XZ 10048180 f i displacement.obj
 0001:00047270       ??B?$c_xor_string@$0EJ@@@QBE?AV?$basic_string@DU?$char_traits@D@std@@V?$allocator@D@2@@std@@XZ 10048270 f i displacement.obj
 0001:00047350       ??B?$c_xor_string@$0EI@@@QBE?AV?$basic_string@DU?$char_traits@D@std@@V?$allocator@D@2@@std@@XZ 10048350 f i displacement.obj
 0001:00047440       ??B?$c_xor_string@$0DA@@@QBE?AV?$basic_string@DU?$char_traits@D@std@@V?$allocator@D@2@@std@@XZ 10048440 f i displacement.obj
 0001:00047520       ??B?$c_xor_string@$0CP@@@QBE?AV?$basic_string@DU?$char_traits@D@std@@V?$allocator@D@2@@std@@XZ 10048520 f i displacement.obj
 0001:00047610       ??B?$c_xor_string@$0CN@@@QBE?AV?$basic_string@DU?$char_traits@D@std@@V?$allocator@D@2@@std@@XZ 10048610 f i displacement.obj
 0001:000476f0       ??B?$c_xor_string@$0DG@@@QBE?AV?$basic_string@DU?$char_traits@D@std@@V?$allocator@D@2@@std@@XZ 100486f0 f i displacement.obj
 0001:000477d0       ??B?$c_xor_string@$0DF@@@QBE?AV?$basic_string@DU?$char_traits@D@std@@V?$allocator@D@2@@std@@XZ 100487d0 f i displacement.obj
 0001:000478b0       ??B?$c_xor_string@$0CL@@@QBE?AV?$basic_string@DU?$char_traits@D@std@@V?$allocator@D@2@@std@@XZ 100488b0 f i displacement.obj
 0001:00047990       ??B?$c_xor_string@$0CG@@@QBE?AV?$basic_string@DU?$char_traits@D@std@@V?$allocator@D@2@@std@@XZ 10048990 f i displacement.obj
 0001:00047a70       ??B?$c_xor_string@$0CH@@@QBE?AV?$basic_string@DU?$char_traits@D@std@@V?$allocator@D@2@@std@@XZ 10048a70 f i displacement.obj
 0001:00047b50       ??B?$c_xor_string@$0CM@@@QBE?AV?$basic_string@DU?$char_traits@D@std@@V?$allocator@D@2@@std@@XZ 10048b50 f i displacement.obj
 0001:00047c30       ??B?$c_xor_string@$0BK@@@QBE?AV?$basic_string@DU?$char_traits@D@std@@V?$allocator@D@2@@std@@XZ 10048c30 f i displacement.obj
 0001:00047d10       ??B?$c_xor_string@$0BP@@@QBE?AV?$basic_string@DU?$char_traits@D@std@@V?$allocator@D@2@@std@@XZ 10048d10 f i displacement.obj
 0001:00047df0       ??B?$c_xor_string@$0CJ@@@QBE?AV?$basic_string@DU?$char_traits@D@std@@V?$allocator@D@2@@std@@XZ 10048df0 f i displacement.obj
 0001:00047ed0       ??B?$c_xor_string@$0GG@@@QBE?AV?$basic_string@DU?$char_traits@D@std@@V?$allocator@D@2@@std@@XZ 10048ed0 f i displacement.obj
 0001:00047fb0       ??B?$c_xor_string@$0BO@@@QBE?AV?$basic_string@DU?$char_traits@D@std@@V?$allocator@D@2@@std@@XZ 10048fb0 f i displacement.obj
 0001:00048090       ??B?$c_xor_string@$0CK@@@QBE?AV?$basic_string@DU?$char_traits@D@std@@V?$allocator@D@2@@std@@XZ 10049090 f i displacement.obj
 0001:00048170       ??B?$c_xor_string@$0EH@@@QBE?AV?$basic_string@DU?$char_traits@D@std@@V?$allocator@D@2@@std@@XZ 10049170 f i displacement.obj
 0001:00048260       ??B?$c_xor_string@$0CD@@@QBE?AV?$basic_string@DU?$char_traits@D@std@@V?$allocator@D@2@@std@@XZ 10049260 f i displacement.obj
 0001:00048340       ?get_interface@c_memory@@QAE?AVc_address@@PAUHINSTANCE__@@ABV?$basic_string@DU?$char_traits@D@std@@V?$allocator@D@2@@std@@@Z 10049340 f   memory.obj
 0001:000484f0       ?find_pattern@c_memory@@QAE?AVc_address@@PAUHINSTANCE__@@PBD@Z 100494f0 f   memory.obj
 0001:000486b0       ??1?$unique_ptr@Vc_auto_wall@@U?$default_delete@Vc_auto_wall@@@std@@@std@@QAE@XZ 100496b0 f i dllmain.obj
 0001:000486b0       ??1?$unique_ptr@Vc_glow_esp@@U?$default_delete@Vc_glow_esp@@@std@@@std@@QAE@XZ 100496b0 f i dllmain.obj
 0001:000486b0       ??1?$unique_ptr@Vc_memory@@U?$default_delete@Vc_memory@@@std@@@std@@QAE@XZ 100496b0 f i memory.obj
 0001:000486b0       ??1?$unique_ptr@Vc_ping_spike@@U?$default_delete@Vc_ping_spike@@@std@@@std@@QAE@XZ 100496b0 f i dllmain.obj
 0001:000486b0       ??1?$unique_ptr@Vc_player_esp@@U?$default_delete@Vc_player_esp@@@std@@@std@@QAE@XZ 100496b0 f i dllmain.obj
 0001:000486b0       ??1?$unique_ptr@Vc_visuals_wrapper@@U?$default_delete@Vc_visuals_wrapper@@@std@@@std@@QAE@XZ 100496b0 f i dllmain.obj
 0001:000486b0       ??1?$unique_ptr@Vc_weapon_esp@@U?$default_delete@Vc_weapon_esp@@@std@@@std@@QAE@XZ 100496b0 f i dllmain.obj
 0001:000486d0       ?init@c_netvar_manager@@QAEXXZ 100496d0 f   netvar_parser.obj
 0001:00048720       ?get_offset@c_netvar_manager@@QAEIII@Z 10049720 f   netvar_parser.obj
 0001:00048740       ?get_prop@c_netvar_manager@@AAEHPAVc_recv_table@@IPAPAVc_recv_prop@@@Z 10049740 f   netvar_parser.obj
 0001:00048840       ?get_table@c_netvar_manager@@AAEPAVc_recv_table@@I@Z 10049840 f   netvar_parser.obj
 0001:000488d0       ?hook_prop@c_netvar_manager@@QAE_NIIP6AXPBVc_recv_proxy_data@@PAX1@ZAAP6AX011@Z_N@Z 100498d0 f   netvar_parser.obj
 0001:00048920       ??$hash_compute@D@hash@@YAIIQBDI_N@Z 10049920 f i netvar_parser.obj
 0001:00048980       ??R<lambda_65>@?1??init@netvars@@YAXXZ@QBE@XZ 10049980 f i netvar_parser.obj
 0001:00048980       ??R<lambda_67>@?1??init@netvars@@YAXXZ@QBE@XZ 10049980 f i netvar_parser.obj
 0001:00048980       ??R<lambda_69>@?1??init@netvars@@YAXXZ@QBE@XZ 10049980 f i netvar_parser.obj
 0001:00048990       ??R<lambda_66>@?1??init@netvars@@YAXXZ@QBE@XZ 10049990 f i netvar_parser.obj
 0001:000489a0       ??R<lambda_68>@?1??init@netvars@@YAXXZ@QBE@XZ 100499a0 f i netvar_parser.obj
 0001:000489b0       ??R<lambda_70>@?1??init@netvars@@YAXXZ@QBE@XZ 100499b0 f i netvar_parser.obj
 0001:000489c0       ??R<lambda_101>@?1??init@netvars@@YAXXZ@QBE@XZ 100499c0 f i netvar_parser.obj
 0001:000489c0       ??R<lambda_103>@?1??init@netvars@@YAXXZ@QBE@XZ 100499c0 f i netvar_parser.obj
 0001:000489c0       ??R<lambda_105>@?1??init@netvars@@YAXXZ@QBE@XZ 100499c0 f i netvar_parser.obj
 0001:000489c0       ??R<lambda_71>@?1??init@netvars@@YAXXZ@QBE@XZ 100499c0 f i netvar_parser.obj
 0001:000489c0       ??R<lambda_73>@?1??init@netvars@@YAXXZ@QBE@XZ 100499c0 f i netvar_parser.obj
 0001:000489c0       ??R<lambda_75>@?1??init@netvars@@YAXXZ@QBE@XZ 100499c0 f i netvar_parser.obj
 0001:000489c0       ??R<lambda_77>@?1??init@netvars@@YAXXZ@QBE@XZ 100499c0 f i netvar_parser.obj
 0001:000489c0       ??R<lambda_79>@?1??init@netvars@@YAXXZ@QBE@XZ 100499c0 f i netvar_parser.obj
 0001:000489c0       ??R<lambda_81>@?1??init@netvars@@YAXXZ@QBE@XZ 100499c0 f i netvar_parser.obj
 0001:000489c0       ??R<lambda_83>@?1??init@netvars@@YAXXZ@QBE@XZ 100499c0 f i netvar_parser.obj
 0001:000489c0       ??R<lambda_85>@?1??init@netvars@@YAXXZ@QBE@XZ 100499c0 f i netvar_parser.obj
 0001:000489c0       ??R<lambda_87>@?1??init@netvars@@YAXXZ@QBE@XZ 100499c0 f i netvar_parser.obj
 0001:000489c0       ??R<lambda_89>@?1??init@netvars@@YAXXZ@QBE@XZ 100499c0 f i netvar_parser.obj
 0001:000489c0       ??R<lambda_91>@?1??init@netvars@@YAXXZ@QBE@XZ 100499c0 f i netvar_parser.obj
 0001:000489c0       ??R<lambda_93>@?1??init@netvars@@YAXXZ@QBE@XZ 100499c0 f i netvar_parser.obj
 0001:000489c0       ??R<lambda_95>@?1??init@netvars@@YAXXZ@QBE@XZ 100499c0 f i netvar_parser.obj
 0001:000489c0       ??R<lambda_97>@?1??init@netvars@@YAXXZ@QBE@XZ 100499c0 f i netvar_parser.obj
 0001:000489c0       ??R<lambda_99>@?1??init@netvars@@YAXXZ@QBE@XZ 100499c0 f i netvar_parser.obj
 0001:000489d0       ??R<lambda_72>@?1??init@netvars@@YAXXZ@QBE@XZ 100499d0 f i netvar_parser.obj
 0001:000489e0       ??R<lambda_74>@?1??init@netvars@@YAXXZ@QBE@XZ 100499e0 f i netvar_parser.obj
 0001:000489f0       ??R<lambda_76>@?1??init@netvars@@YAXXZ@QBE@XZ 100499f0 f i netvar_parser.obj
 0001:00048a00       ??R<lambda_78>@?1??init@netvars@@YAXXZ@QBE@XZ 10049a00 f i netvar_parser.obj
 0001:00048a10       ??R<lambda_80>@?1??init@netvars@@YAXXZ@QBE@XZ 10049a10 f i netvar_parser.obj
 0001:00048a20       ??R<lambda_82>@?1??init@netvars@@YAXXZ@QBE@XZ 10049a20 f i netvar_parser.obj
 0001:00048a30       ??R<lambda_84>@?1??init@netvars@@YAXXZ@QBE@XZ 10049a30 f i netvar_parser.obj
 0001:00048a40       ??R<lambda_86>@?1??init@netvars@@YAXXZ@QBE@XZ 10049a40 f i netvar_parser.obj
 0001:00048a50       ??R<lambda_88>@?1??init@netvars@@YAXXZ@QBE@XZ 10049a50 f i netvar_parser.obj
 0001:00048a60       ??R<lambda_90>@?1??init@netvars@@YAXXZ@QBE@XZ 10049a60 f i netvar_parser.obj
 0001:00048a70       ??R<lambda_92>@?1??init@netvars@@YAXXZ@QBE@XZ 10049a70 f i netvar_parser.obj
 0001:00048a80       ??R<lambda_94>@?1??init@netvars@@YAXXZ@QBE@XZ 10049a80 f i netvar_parser.obj
 0001:00048a90       ??R<lambda_96>@?1??init@netvars@@YAXXZ@QBE@XZ 10049a90 f i netvar_parser.obj
 0001:00048aa0       ??R<lambda_98>@?1??init@netvars@@YAXXZ@QBE@XZ 10049aa0 f i netvar_parser.obj
 0001:00048ab0       ??R<lambda_100>@?1??init@netvars@@YAXXZ@QBE@XZ 10049ab0 f i netvar_parser.obj
 0001:00048ac0       ??R<lambda_102>@?1??init@netvars@@YAXXZ@QBE@XZ 10049ac0 f i netvar_parser.obj
 0001:00048ad0       ??R<lambda_104>@?1??init@netvars@@YAXXZ@QBE@XZ 10049ad0 f i netvar_parser.obj
 0001:00048ae0       ??R<lambda_106>@?1??init@netvars@@YAXXZ@QBE@XZ 10049ae0 f i netvar_parser.obj
 0001:00048af0       ??R<lambda_107>@?1??init@netvars@@YAXXZ@QBE@XZ 10049af0 f i netvar_parser.obj
 0001:00048af0       ??R<lambda_109>@?1??init@netvars@@YAXXZ@QBE@XZ 10049af0 f i netvar_parser.obj
 0001:00048af0       ??R<lambda_111>@?1??init@netvars@@YAXXZ@QBE@XZ 10049af0 f i netvar_parser.obj
 0001:00048af0       ??R<lambda_113>@?1??init@netvars@@YAXXZ@QBE@XZ 10049af0 f i netvar_parser.obj
 0001:00048af0       ??R<lambda_115>@?1??init@netvars@@YAXXZ@QBE@XZ 10049af0 f i netvar_parser.obj
 0001:00048af0       ??R<lambda_117>@?1??init@netvars@@YAXXZ@QBE@XZ 10049af0 f i netvar_parser.obj
 0001:00048af0       ??R<lambda_119>@?1??init@netvars@@YAXXZ@QBE@XZ 10049af0 f i netvar_parser.obj
 0001:00048b00       ??R<lambda_108>@?1??init@netvars@@YAXXZ@QBE@XZ 10049b00 f i netvar_parser.obj
 0001:00048b10       ??R<lambda_112>@?1??init@netvars@@YAXXZ@QBE@XZ 10049b10 f i netvar_parser.obj
 0001:00048b20       ??R<lambda_114>@?1??init@netvars@@YAXXZ@QBE@XZ 10049b20 f i netvar_parser.obj
 0001:00048b30       ??R<lambda_116>@?1??init@netvars@@YAXXZ@QBE@XZ 10049b30 f i netvar_parser.obj
 0001:00048b40       ??R<lambda_118>@?1??init@netvars@@YAXXZ@QBE@XZ 10049b40 f i netvar_parser.obj
 0001:00048b50       ??R<lambda_120>@?1??init@netvars@@YAXXZ@QBE@XZ 10049b50 f i netvar_parser.obj
 0001:00048b60       ??R<lambda_121>@?1??init@netvars@@YAXXZ@QBE@XZ 10049b60 f i netvar_parser.obj
 0001:00048b60       ??R<lambda_123>@?1??init@netvars@@YAXXZ@QBE@XZ 10049b60 f i netvar_parser.obj
 0001:00048b60       ??R<lambda_125>@?1??init@netvars@@YAXXZ@QBE@XZ 10049b60 f i netvar_parser.obj
 0001:00048b60       ??R<lambda_127>@?1??init@netvars@@YAXXZ@QBE@XZ 10049b60 f i netvar_parser.obj
 0001:00048b60       ??R<lambda_129>@?1??init@netvars@@YAXXZ@QBE@XZ 10049b60 f i netvar_parser.obj
 0001:00048b60       ??R<lambda_131>@?1??init@netvars@@YAXXZ@QBE@XZ 10049b60 f i netvar_parser.obj
 0001:00048b60       ??R<lambda_133>@?1??init@netvars@@YAXXZ@QBE@XZ 10049b60 f i netvar_parser.obj
 0001:00048b60       ??R<lambda_135>@?1??init@netvars@@YAXXZ@QBE@XZ 10049b60 f i netvar_parser.obj
 0001:00048b60       ??R<lambda_137>@?1??init@netvars@@YAXXZ@QBE@XZ 10049b60 f i netvar_parser.obj
 0001:00048b60       ??R<lambda_139>@?1??init@netvars@@YAXXZ@QBE@XZ 10049b60 f i netvar_parser.obj
 0001:00048b70       ??R<lambda_122>@?1??init@netvars@@YAXXZ@QBE@XZ 10049b70 f i netvar_parser.obj
 0001:00048b80       ??R<lambda_124>@?1??init@netvars@@YAXXZ@QBE@XZ 10049b80 f i netvar_parser.obj
 0001:00048b90       ??R<lambda_126>@?1??init@netvars@@YAXXZ@QBE@XZ 10049b90 f i netvar_parser.obj
 0001:00048ba0       ??R<lambda_128>@?1??init@netvars@@YAXXZ@QBE@XZ 10049ba0 f i netvar_parser.obj
 0001:00048bb0       ??R<lambda_130>@?1??init@netvars@@YAXXZ@QBE@XZ 10049bb0 f i netvar_parser.obj
 0001:00048bc0       ??R<lambda_132>@?1??init@netvars@@YAXXZ@QBE@XZ 10049bc0 f i netvar_parser.obj
 0001:00048bd0       ??R<lambda_134>@?1??init@netvars@@YAXXZ@QBE@XZ 10049bd0 f i netvar_parser.obj
 0001:00048be0       ??R<lambda_136>@?1??init@netvars@@YAXXZ@QBE@XZ 10049be0 f i netvar_parser.obj
 0001:00048bf0       ??R<lambda_138>@?1??init@netvars@@YAXXZ@QBE@XZ 10049bf0 f i netvar_parser.obj
 0001:00048c00       ??R<lambda_140>@?1??init@netvars@@YAXXZ@QBE@XZ 10049c00 f i netvar_parser.obj
 0001:00048c10       ??R<lambda_141>@?1??init@netvars@@YAXXZ@QBE@XZ 10049c10 f i netvar_parser.obj
 0001:00048c10       ??R<lambda_143>@?1??init@netvars@@YAXXZ@QBE@XZ 10049c10 f i netvar_parser.obj
 0001:00048c10       ??R<lambda_145>@?1??init@netvars@@YAXXZ@QBE@XZ 10049c10 f i netvar_parser.obj
 0001:00048c10       ??R<lambda_147>@?1??init@netvars@@YAXXZ@QBE@XZ 10049c10 f i netvar_parser.obj
 0001:00048c20       ??R<lambda_142>@?1??init@netvars@@YAXXZ@QBE@XZ 10049c20 f i netvar_parser.obj
 0001:00048c30       ??R<lambda_144>@?1??init@netvars@@YAXXZ@QBE@XZ 10049c30 f i netvar_parser.obj
 0001:00048c40       ??R<lambda_146>@?1??init@netvars@@YAXXZ@QBE@XZ 10049c40 f i netvar_parser.obj
 0001:00048c50       ??R<lambda_148>@?1??init@netvars@@YAXXZ@QBE@XZ 10049c50 f i netvar_parser.obj
 0001:00048c60       ??R<lambda_149>@?1??init@netvars@@YAXXZ@QBE@XZ 10049c60 f i netvar_parser.obj
 0001:00048c60       ??R<lambda_151>@?1??init@netvars@@YAXXZ@QBE@XZ 10049c60 f i netvar_parser.obj
 0001:00048c70       ??R<lambda_150>@?1??init@netvars@@YAXXZ@QBE@XZ 10049c70 f i netvar_parser.obj
 0001:00048c80       ??R<lambda_152>@?1??init@netvars@@YAXXZ@QBE@XZ 10049c80 f i netvar_parser.obj
 0001:00048c90       ??R<lambda_153>@?1??init@netvars@@YAXXZ@QBE@XZ 10049c90 f i netvar_parser.obj
 0001:00048ca0       ??R<lambda_154>@?1??init@netvars@@YAXXZ@QBE@XZ 10049ca0 f i netvar_parser.obj
 0001:00048cb0       ??R<lambda_155>@?1??init@netvars@@YAXXZ@QBE@XZ 10049cb0 f i netvar_parser.obj
 0001:00048cb0       ??R<lambda_157>@?1??init@netvars@@YAXXZ@QBE@XZ 10049cb0 f i netvar_parser.obj
 0001:00048cb0       ??R<lambda_159>@?1??init@netvars@@YAXXZ@QBE@XZ 10049cb0 f i netvar_parser.obj
 0001:00048cb0       ??R<lambda_161>@?1??init@netvars@@YAXXZ@QBE@XZ 10049cb0 f i netvar_parser.obj
 0001:00048cc0       ??R<lambda_156>@?1??init@netvars@@YAXXZ@QBE@XZ 10049cc0 f i netvar_parser.obj
 0001:00048cd0       ??R<lambda_158>@?1??init@netvars@@YAXXZ@QBE@XZ 10049cd0 f i netvar_parser.obj
 0001:00048ce0       ??R<lambda_160>@?1??init@netvars@@YAXXZ@QBE@XZ 10049ce0 f i netvar_parser.obj
 0001:00048cf0       ??R<lambda_162>@?1??init@netvars@@YAXXZ@QBE@XZ 10049cf0 f i netvar_parser.obj
 0001:00048d00       ??R<lambda_163>@?1??init@netvars@@YAXXZ@QBE@XZ 10049d00 f i netvar_parser.obj
 0001:00048d00       ??R<lambda_165>@?1??init@netvars@@YAXXZ@QBE@XZ 10049d00 f i netvar_parser.obj
 0001:00048d00       ??R<lambda_167>@?1??init@netvars@@YAXXZ@QBE@XZ 10049d00 f i netvar_parser.obj
 0001:00048d00       ??R<lambda_169>@?1??init@netvars@@YAXXZ@QBE@XZ 10049d00 f i netvar_parser.obj
 0001:00048d00       ??R<lambda_171>@?1??init@netvars@@YAXXZ@QBE@XZ 10049d00 f i netvar_parser.obj
 0001:00048d00       ??R<lambda_173>@?1??init@netvars@@YAXXZ@QBE@XZ 10049d00 f i netvar_parser.obj
 0001:00048d00       ??R<lambda_175>@?1??init@netvars@@YAXXZ@QBE@XZ 10049d00 f i netvar_parser.obj
 0001:00048d00       ??R<lambda_177>@?1??init@netvars@@YAXXZ@QBE@XZ 10049d00 f i netvar_parser.obj
 0001:00048d00       ??R<lambda_179>@?1??init@netvars@@YAXXZ@QBE@XZ 10049d00 f i netvar_parser.obj
 0001:00048d00       ??R<lambda_181>@?1??init@netvars@@YAXXZ@QBE@XZ 10049d00 f i netvar_parser.obj
 0001:00048d00       ??R<lambda_183>@?1??init@netvars@@YAXXZ@QBE@XZ 10049d00 f i netvar_parser.obj
 0001:00048d10       ??R<lambda_164>@?1??init@netvars@@YAXXZ@QBE@XZ 10049d10 f i netvar_parser.obj
 0001:00048d20       ??R<lambda_166>@?1??init@netvars@@YAXXZ@QBE@XZ 10049d20 f i netvar_parser.obj
 0001:00048d30       ??R<lambda_168>@?1??init@netvars@@YAXXZ@QBE@XZ 10049d30 f i netvar_parser.obj
 0001:00048d40       ??R<lambda_170>@?1??init@netvars@@YAXXZ@QBE@XZ 10049d40 f i netvar_parser.obj
 0001:00048d50       ??R<lambda_172>@?1??init@netvars@@YAXXZ@QBE@XZ 10049d50 f i netvar_parser.obj
 0001:00048d60       ??R<lambda_174>@?1??init@netvars@@YAXXZ@QBE@XZ 10049d60 f i netvar_parser.obj
 0001:00048d70       ??R<lambda_176>@?1??init@netvars@@YAXXZ@QBE@XZ 10049d70 f i netvar_parser.obj
 0001:00048d80       ??R<lambda_178>@?1??init@netvars@@YAXXZ@QBE@XZ 10049d80 f i netvar_parser.obj
 0001:00048d90       ??R<lambda_180>@?1??init@netvars@@YAXXZ@QBE@XZ 10049d90 f i netvar_parser.obj
 0001:00048da0       ??R<lambda_182>@?1??init@netvars@@YAXXZ@QBE@XZ 10049da0 f i netvar_parser.obj
 0001:00048db0       ??R<lambda_184>@?1??init@netvars@@YAXXZ@QBE@XZ 10049db0 f i netvar_parser.obj
 0001:00048dc0       ??R<lambda_185>@?1??init@netvars@@YAXXZ@QBE@XZ 10049dc0 f i netvar_parser.obj
 0001:00048dd0       ??R<lambda_186>@?1??init@netvars@@YAXXZ@QBE@XZ 10049dd0 f i netvar_parser.obj
 0001:00048de0       ??R<lambda_188>@?1??init@netvars@@YAXXZ@QBE@XZ 10049de0 f i netvar_parser.obj
 0001:00048df0       ??R<lambda_190>@?1??init@netvars@@YAXXZ@QBE@XZ 10049df0 f i netvar_parser.obj
 0001:00048e00       ??R<lambda_192>@?1??init@netvars@@YAXXZ@QBE@XZ 10049e00 f i netvar_parser.obj
 0001:00048e10       ??R<lambda_194>@?1??init@netvars@@YAXXZ@QBE@XZ 10049e10 f i netvar_parser.obj
 0001:00048e20       ??R<lambda_195>@?1??init@netvars@@YAXXZ@QBE@XZ 10049e20 f i netvar_parser.obj
 0001:00048e20       ??R<lambda_197>@?1??init@netvars@@YAXXZ@QBE@XZ 10049e20 f i netvar_parser.obj
 0001:00048e20       ??R<lambda_199>@?1??init@netvars@@YAXXZ@QBE@XZ 10049e20 f i netvar_parser.obj
 0001:00048e20       ??R<lambda_201>@?1??init@netvars@@YAXXZ@QBE@XZ 10049e20 f i netvar_parser.obj
 0001:00048e20       ??R<lambda_203>@?1??init@netvars@@YAXXZ@QBE@XZ 10049e20 f i netvar_parser.obj
 0001:00048e30       ??R<lambda_196>@?1??init@netvars@@YAXXZ@QBE@XZ 10049e30 f i netvar_parser.obj
 0001:00048e40       ??R<lambda_198>@?1??init@netvars@@YAXXZ@QBE@XZ 10049e40 f i netvar_parser.obj
 0001:00048e50       ??R<lambda_200>@?1??init@netvars@@YAXXZ@QBE@XZ 10049e50 f i netvar_parser.obj
 0001:00048e60       ??R<lambda_202>@?1??init@netvars@@YAXXZ@QBE@XZ 10049e60 f i netvar_parser.obj
 0001:00048e70       ??R<lambda_204>@?1??init@netvars@@YAXXZ@QBE@XZ 10049e70 f i netvar_parser.obj
 0001:00048e80       ??R<lambda_205>@?1??init@netvars@@YAXXZ@QBE@XZ 10049e80 f i netvar_parser.obj
 0001:00048e80       ??R<lambda_207>@?1??init@netvars@@YAXXZ@QBE@XZ 10049e80 f i netvar_parser.obj
 0001:00048e80       ??R<lambda_209>@?1??init@netvars@@YAXXZ@QBE@XZ 10049e80 f i netvar_parser.obj
 0001:00048e80       ??R<lambda_211>@?1??init@netvars@@YAXXZ@QBE@XZ 10049e80 f i netvar_parser.obj
 0001:00048e80       ??R<lambda_213>@?1??init@netvars@@YAXXZ@QBE@XZ 10049e80 f i netvar_parser.obj
 0001:00048e90       ??R<lambda_206>@?1??init@netvars@@YAXXZ@QBE@XZ 10049e90 f i netvar_parser.obj
 0001:00048ea0       ??R<lambda_208>@?1??init@netvars@@YAXXZ@QBE@XZ 10049ea0 f i netvar_parser.obj
 0001:00048eb0       ??R<lambda_210>@?1??init@netvars@@YAXXZ@QBE@XZ 10049eb0 f i netvar_parser.obj
 0001:00048ec0       ??R<lambda_212>@?1??init@netvars@@YAXXZ@QBE@XZ 10049ec0 f i netvar_parser.obj
 0001:00048ed0       ??R<lambda_214>@?1??init@netvars@@YAXXZ@QBE@XZ 10049ed0 f i netvar_parser.obj
 0001:00048ee0       ??R<lambda_215>@?1??init@netvars@@YAXXZ@QBE@XZ 10049ee0 f i netvar_parser.obj
 0001:00048ee0       ??R<lambda_217>@?1??init@netvars@@YAXXZ@QBE@XZ 10049ee0 f i netvar_parser.obj
 0001:00048ef0       ??R<lambda_216>@?1??init@netvars@@YAXXZ@QBE@XZ 10049ef0 f i netvar_parser.obj
 0001:00048f00       ??R<lambda_218>@?1??init@netvars@@YAXXZ@QBE@XZ 10049f00 f i netvar_parser.obj
 0001:00048f10       ??R<lambda_219>@?1??init@netvars@@YAXXZ@QBE@XZ 10049f10 f i netvar_parser.obj
 0001:00048f20       ??R<lambda_220>@?1??init@netvars@@YAXXZ@QBE@XZ 10049f20 f i netvar_parser.obj
 0001:00048f30       ??R<lambda_221>@?1??init@netvars@@YAXXZ@QBE@XZ 10049f30 f i netvar_parser.obj
 0001:00048f30       ??R<lambda_223>@?1??init@netvars@@YAXXZ@QBE@XZ 10049f30 f i netvar_parser.obj
 0001:00048f30       ??R<lambda_225>@?1??init@netvars@@YAXXZ@QBE@XZ 10049f30 f i netvar_parser.obj
 0001:00048f30       ??R<lambda_227>@?1??init@netvars@@YAXXZ@QBE@XZ 10049f30 f i netvar_parser.obj
 0001:00048f30       ??R<lambda_229>@?1??init@netvars@@YAXXZ@QBE@XZ 10049f30 f i netvar_parser.obj
 0001:00048f30       ??R<lambda_231>@?1??init@netvars@@YAXXZ@QBE@XZ 10049f30 f i netvar_parser.obj
 0001:00048f30       ??R<lambda_233>@?1??init@netvars@@YAXXZ@QBE@XZ 10049f30 f i netvar_parser.obj
 0001:00048f40       ??R<lambda_222>@?1??init@netvars@@YAXXZ@QBE@XZ 10049f40 f i netvar_parser.obj
 0001:00048f50       ??R<lambda_224>@?1??init@netvars@@YAXXZ@QBE@XZ 10049f50 f i netvar_parser.obj
 0001:00048f60       ??R<lambda_226>@?1??init@netvars@@YAXXZ@QBE@XZ 10049f60 f i netvar_parser.obj
 0001:00048f70       ??R<lambda_228>@?1??init@netvars@@YAXXZ@QBE@XZ 10049f70 f i netvar_parser.obj
 0001:00048f80       ??R<lambda_230>@?1??init@netvars@@YAXXZ@QBE@XZ 10049f80 f i netvar_parser.obj
 0001:00048f90       ??R<lambda_232>@?1??init@netvars@@YAXXZ@QBE@XZ 10049f90 f i netvar_parser.obj
 0001:00048fa0       ??R<lambda_234>@?1??init@netvars@@YAXXZ@QBE@XZ 10049fa0 f i netvar_parser.obj
 0001:00048fb0       ??R<lambda_235>@?1??init@netvars@@YAXXZ@QBE@XZ 10049fb0 f i netvar_parser.obj
 0001:00048fb0       ??R<lambda_237>@?1??init@netvars@@YAXXZ@QBE@XZ 10049fb0 f i netvar_parser.obj
 0001:00048fb0       ??R<lambda_239>@?1??init@netvars@@YAXXZ@QBE@XZ 10049fb0 f i netvar_parser.obj
 0001:00048fc0       ??R<lambda_236>@?1??init@netvars@@YAXXZ@QBE@XZ 10049fc0 f i netvar_parser.obj
 0001:00048fd0       ??R<lambda_238>@?1??init@netvars@@YAXXZ@QBE@XZ 10049fd0 f i netvar_parser.obj
 0001:00048fe0       ??R<lambda_240>@?1??init@netvars@@YAXXZ@QBE@XZ 10049fe0 f i netvar_parser.obj
 0001:00048ff0       ??R<lambda_241>@?1??init@netvars@@YAXXZ@QBE@XZ 10049ff0 f i netvar_parser.obj
 0001:00048ff0       ??R<lambda_243>@?1??init@netvars@@YAXXZ@QBE@XZ 10049ff0 f i netvar_parser.obj
 0001:00049000       ??R<lambda_242>@?1??init@netvars@@YAXXZ@QBE@XZ 1004a000 f i netvar_parser.obj
 0001:00049010       ??R<lambda_244>@?1??init@netvars@@YAXXZ@QBE@XZ 1004a010 f i netvar_parser.obj
 0001:00049020       ??R<lambda_245>@?1??init@netvars@@YAXXZ@QBE@XZ 1004a020 f i netvar_parser.obj
 0001:00049020       ??R<lambda_247>@?1??init@netvars@@YAXXZ@QBE@XZ 1004a020 f i netvar_parser.obj
 0001:00049030       ??R<lambda_246>@?1??init@netvars@@YAXXZ@QBE@XZ 1004a030 f i netvar_parser.obj
 0001:00049040       ??R<lambda_248>@?1??init@netvars@@YAXXZ@QBE@XZ 1004a040 f i netvar_parser.obj
 0001:00049050       ??R<lambda_249>@?1??init@netvars@@YAXXZ@QBE@XZ 1004a050 f i netvar_parser.obj
 0001:00049060       ??R<lambda_250>@?1??init@netvars@@YAXXZ@QBE@XZ 1004a060 f i netvar_parser.obj
 0001:00049070       ??R<lambda_251>@?1??init@netvars@@YAXXZ@QBE@XZ 1004a070 f i netvar_parser.obj
 0001:00049070       ??R<lambda_253>@?1??init@netvars@@YAXXZ@QBE@XZ 1004a070 f i netvar_parser.obj
 0001:00049070       ??R<lambda_255>@?1??init@netvars@@YAXXZ@QBE@XZ 1004a070 f i netvar_parser.obj
 0001:00049070       ??R<lambda_257>@?1??init@netvars@@YAXXZ@QBE@XZ 1004a070 f i netvar_parser.obj
 0001:00049070       ??R<lambda_259>@?1??init@netvars@@YAXXZ@QBE@XZ 1004a070 f i netvar_parser.obj
 0001:00049070       ??R<lambda_261>@?1??init@netvars@@YAXXZ@QBE@XZ 1004a070 f i netvar_parser.obj
 0001:00049080       ??R<lambda_252>@?1??init@netvars@@YAXXZ@QBE@XZ 1004a080 f i netvar_parser.obj
 0001:00049090       ??R<lambda_254>@?1??init@netvars@@YAXXZ@QBE@XZ 1004a090 f i netvar_parser.obj
 0001:000490a0       ??R<lambda_256>@?1??init@netvars@@YAXXZ@QBE@XZ 1004a0a0 f i netvar_parser.obj
 0001:000490b0       ??R<lambda_258>@?1??init@netvars@@YAXXZ@QBE@XZ 1004a0b0 f i netvar_parser.obj
 0001:000490c0       ??R<lambda_260>@?1??init@netvars@@YAXXZ@QBE@XZ 1004a0c0 f i netvar_parser.obj
 0001:000490d0       ??R<lambda_262>@?1??init@netvars@@YAXXZ@QBE@XZ 1004a0d0 f i netvar_parser.obj
 0001:000490e0       ??R<lambda_263>@?1??init@netvars@@YAXXZ@QBE@XZ 1004a0e0 f i netvar_parser.obj
 0001:000490e0       ??R<lambda_265>@?1??init@netvars@@YAXXZ@QBE@XZ 1004a0e0 f i netvar_parser.obj
 0001:000490e0       ??R<lambda_269>@?1??init@netvars@@YAXXZ@QBE@XZ 1004a0e0 f i netvar_parser.obj
 0001:000490f0       ??R<lambda_264>@?1??init@netvars@@YAXXZ@QBE@XZ 1004a0f0 f i netvar_parser.obj
 0001:00049100       ??R<lambda_266>@?1??init@netvars@@YAXXZ@QBE@XZ 1004a100 f i netvar_parser.obj
 0001:00049110       ??R<lambda_267>@?1??init@netvars@@YAXXZ@QBE@XZ 1004a110 f i netvar_parser.obj
 0001:00049120       ??R<lambda_268>@?1??init@netvars@@YAXXZ@QBE@XZ 1004a120 f i netvar_parser.obj
 0001:00049130       ??R<lambda_270>@?1??init@netvars@@YAXXZ@QBE@XZ 1004a130 f i netvar_parser.obj
 0001:00049140       ??1?$unique_ptr@Vc_netvar_manager@@U?$default_delete@Vc_netvar_manager@@@std@@@std@@QAE@XZ 1004a140 f i netvar_parser.obj
 0001:00049160       ??$_Emplace_reallocate@ABQAVc_recv_table@@@?$vector@PAVc_recv_table@@V?$allocator@PAVc_recv_table@@@std@@@std@@AAEPAPAVc_recv_table@@QAPAV2@ABQAV2@@Z 1004a160 f i netvar_parser.obj
 0001:00049330       ??R<lambda_1>@?1??init@xor_strs@@YAXXZ@QBE?AV?$basic_string@DU?$char_traits@D@std@@V?$allocator@D@2@@std@@XZ 1004a330 f i protect.obj
 0001:00049350       ??R<lambda_2>@?1??init@xor_strs@@YAXXZ@QBE?AV?$basic_string@DU?$char_traits@D@std@@V?$allocator@D@2@@std@@XZ 1004a350 f i protect.obj
 0001:00049370       ??R<lambda_3>@?1??init@xor_strs@@YAXXZ@QBE?AV?$basic_string@DU?$char_traits@D@std@@V?$allocator@D@2@@std@@XZ 1004a370 f i protect.obj
 0001:00049390       ??R<lambda_4>@?1??init@xor_strs@@YAXXZ@QBE?AV?$basic_string@DU?$char_traits@D@std@@V?$allocator@D@2@@std@@XZ 1004a390 f i protect.obj
 0001:000493b0       ??R<lambda_5>@?1??init@xor_strs@@YAXXZ@QBE?AV?$basic_string@DU?$char_traits@D@std@@V?$allocator@D@2@@std@@XZ 1004a3b0 f i protect.obj
 0001:000493d0       ??R<lambda_6>@?1??init@xor_strs@@YAXXZ@QBE?AV?$basic_string@DU?$char_traits@D@std@@V?$allocator@D@2@@std@@XZ 1004a3d0 f i protect.obj
 0001:000493f0       ??R<lambda_7>@?1??init@xor_strs@@YAXXZ@QBE?AV?$basic_string@DU?$char_traits@D@std@@V?$allocator@D@2@@std@@XZ 1004a3f0 f i protect.obj
 0001:00049410       ??R<lambda_8>@?1??init@xor_strs@@YAXXZ@QBE?AV?$basic_string@DU?$char_traits@D@std@@V?$allocator@D@2@@std@@XZ 1004a410 f i protect.obj
 0001:00049430       ??R<lambda_9>@?1??init@xor_strs@@YAXXZ@QBE?AV?$basic_string@DU?$char_traits@D@std@@V?$allocator@D@2@@std@@XZ 1004a430 f i protect.obj
 0001:00049450       ??R<lambda_10>@?1??init@xor_strs@@YAXXZ@QBE?AV?$basic_string@DU?$char_traits@D@std@@V?$allocator@D@2@@std@@XZ 1004a450 f i protect.obj
 0001:00049470       ??R<lambda_11>@?1??init@xor_strs@@YAXXZ@QBE?AV?$basic_string@DU?$char_traits@D@std@@V?$allocator@D@2@@std@@XZ 1004a470 f i protect.obj
 0001:00049490       ??R<lambda_12>@?1??init@xor_strs@@YAXXZ@QBE?AV?$basic_string@DU?$char_traits@D@std@@V?$allocator@D@2@@std@@XZ 1004a490 f i protect.obj
 0001:000494b0       ??R<lambda_13>@?1??init@xor_strs@@YAXXZ@QBE?AV?$basic_string@DU?$char_traits@D@std@@V?$allocator@D@2@@std@@XZ 1004a4b0 f i protect.obj
 0001:000494d0       ??R<lambda_14>@?1??init@xor_strs@@YAXXZ@QBE?AV?$basic_string@DU?$char_traits@D@std@@V?$allocator@D@2@@std@@XZ 1004a4d0 f i protect.obj
 0001:000494f0       ??R<lambda_15>@?1??init@xor_strs@@YAXXZ@QBE?AV?$basic_string@DU?$char_traits@D@std@@V?$allocator@D@2@@std@@XZ 1004a4f0 f i protect.obj
 0001:00049510       ??R<lambda_16>@?1??init@xor_strs@@YAXXZ@QBE?AV?$basic_string@DU?$char_traits@D@std@@V?$allocator@D@2@@std@@XZ 1004a510 f i protect.obj
 0001:00049530       ??R<lambda_17>@?1??init@xor_strs@@YAXXZ@QBE?AV?$basic_string@DU?$char_traits@D@std@@V?$allocator@D@2@@std@@XZ 1004a530 f i protect.obj
 0001:00049550       ??R<lambda_18>@?1??init@xor_strs@@YAXXZ@QBE?AV?$basic_string@DU?$char_traits@D@std@@V?$allocator@D@2@@std@@XZ 1004a550 f i protect.obj
 0001:00049570       ??R<lambda_19>@?1??init@xor_strs@@YAXXZ@QBE?AV?$basic_string@DU?$char_traits@D@std@@V?$allocator@D@2@@std@@XZ 1004a570 f i protect.obj
 0001:00049590       ??R<lambda_20>@?1??init@xor_strs@@YAXXZ@QBE?AV?$basic_string@DU?$char_traits@D@std@@V?$allocator@D@2@@std@@XZ 1004a590 f i protect.obj
 0001:000495b0       ??R<lambda_21>@?1??init@xor_strs@@YAXXZ@QBE?AV?$basic_string@DU?$char_traits@D@std@@V?$allocator@D@2@@std@@XZ 1004a5b0 f i protect.obj
 0001:000495d0       ??R<lambda_22>@?1??init@xor_strs@@YAXXZ@QBE?AV?$basic_string@DU?$char_traits@D@std@@V?$allocator@D@2@@std@@XZ 1004a5d0 f i protect.obj
 0001:000495f0       ??R<lambda_23>@?1??init@xor_strs@@YAXXZ@QBE?AV?$basic_string@DU?$char_traits@D@std@@V?$allocator@D@2@@std@@XZ 1004a5f0 f i protect.obj
 0001:00049610       ??R<lambda_24>@?1??init@xor_strs@@YAXXZ@QBE?AV?$basic_string@DU?$char_traits@D@std@@V?$allocator@D@2@@std@@XZ 1004a610 f i protect.obj
 0001:00049630       ??R<lambda_25>@?1??init@xor_strs@@YAXXZ@QBE?AV?$basic_string@DU?$char_traits@D@std@@V?$allocator@D@2@@std@@XZ 1004a630 f i protect.obj
 0001:00049650       ??R<lambda_26>@?1??init@xor_strs@@YAXXZ@QBE?AV?$basic_string@DU?$char_traits@D@std@@V?$allocator@D@2@@std@@XZ 1004a650 f i protect.obj
 0001:00049670       ??R<lambda_27>@?1??init@xor_strs@@YAXXZ@QBE?AV?$basic_string@DU?$char_traits@D@std@@V?$allocator@D@2@@std@@XZ 1004a670 f i protect.obj
 0001:00049690       ??R<lambda_28>@?1??init@xor_strs@@YAXXZ@QBE?AV?$basic_string@DU?$char_traits@D@std@@V?$allocator@D@2@@std@@XZ 1004a690 f i protect.obj
 0001:000496b0       ??R<lambda_29>@?1??init@xor_strs@@YAXXZ@QBE?AV?$basic_string@DU?$char_traits@D@std@@V?$allocator@D@2@@std@@XZ 1004a6b0 f i protect.obj
 0001:000496d0       ??R<lambda_30>@?1??init@xor_strs@@YAXXZ@QBE?AV?$basic_string@DU?$char_traits@D@std@@V?$allocator@D@2@@std@@XZ 1004a6d0 f i protect.obj
 0001:000496f0       ??R<lambda_31>@?1??init@xor_strs@@YAXXZ@QBE?AV?$basic_string@DU?$char_traits@D@std@@V?$allocator@D@2@@std@@XZ 1004a6f0 f i protect.obj
 0001:00049710       ??R<lambda_32>@?1??init@xor_strs@@YAXXZ@QBE?AV?$basic_string@DU?$char_traits@D@std@@V?$allocator@D@2@@std@@XZ 1004a710 f i protect.obj
 0001:00049730       ??R<lambda_33>@?1??init@xor_strs@@YAXXZ@QBE?AV?$basic_string@DU?$char_traits@D@std@@V?$allocator@D@2@@std@@XZ 1004a730 f i protect.obj
 0001:00049750       ??R<lambda_34>@?1??init@xor_strs@@YAXXZ@QBE?AV?$basic_string@DU?$char_traits@D@std@@V?$allocator@D@2@@std@@XZ 1004a750 f i protect.obj
 0001:00049770       ??R<lambda_35>@?1??init@xor_strs@@YAXXZ@QBE?AV?$basic_string@DU?$char_traits@D@std@@V?$allocator@D@2@@std@@XZ 1004a770 f i protect.obj
 0001:00049790       ??R<lambda_36>@?1??init@xor_strs@@YAXXZ@QBE?AV?$basic_string@DU?$char_traits@D@std@@V?$allocator@D@2@@std@@XZ 1004a790 f i protect.obj
 0001:000497b0       ??R<lambda_37>@?1??init@xor_strs@@YAXXZ@QBE?AV?$basic_string@DU?$char_traits@D@std@@V?$allocator@D@2@@std@@XZ 1004a7b0 f i protect.obj
 0001:000497d0       ??R<lambda_38>@?1??init@xor_strs@@YAXXZ@QBE?AV?$basic_string@DU?$char_traits@D@std@@V?$allocator@D@2@@std@@XZ 1004a7d0 f i protect.obj
 0001:000497f0       ??R<lambda_39>@?1??init@xor_strs@@YAXXZ@QBE?AV?$basic_string@DU?$char_traits@D@std@@V?$allocator@D@2@@std@@XZ 1004a7f0 f i protect.obj
 0001:00049810       ??R<lambda_40>@?1??init@xor_strs@@YAXXZ@QBE?AV?$basic_string@DU?$char_traits@D@std@@V?$allocator@D@2@@std@@XZ 1004a810 f i protect.obj
 0001:00049830       ??R<lambda_41>@?1??init@xor_strs@@YAXXZ@QBE?AV?$basic_string@DU?$char_traits@D@std@@V?$allocator@D@2@@std@@XZ 1004a830 f i protect.obj
 0001:00049850       ??R<lambda_42>@?1??init@xor_strs@@YAXXZ@QBE?AV?$basic_string@DU?$char_traits@D@std@@V?$allocator@D@2@@std@@XZ 1004a850 f i protect.obj
 0001:00049870       ??R<lambda_43>@?1??init@xor_strs@@YAXXZ@QBE?AV?$basic_string@DU?$char_traits@D@std@@V?$allocator@D@2@@std@@XZ 1004a870 f i protect.obj
 0001:00049890       ??R<lambda_44>@?1??init@xor_strs@@YAXXZ@QBE?AV?$basic_string@DU?$char_traits@D@std@@V?$allocator@D@2@@std@@XZ 1004a890 f i protect.obj
 0001:000498b0       ??R<lambda_45>@?1??init@xor_strs@@YAXXZ@QBE?AV?$basic_string@DU?$char_traits@D@std@@V?$allocator@D@2@@std@@XZ 1004a8b0 f i protect.obj
 0001:000498d0       ??R<lambda_46>@?1??init@xor_strs@@YAXXZ@QBE?AV?$basic_string@DU?$char_traits@D@std@@V?$allocator@D@2@@std@@XZ 1004a8d0 f i protect.obj
 0001:000498f0       ??R<lambda_47>@?1??init@xor_strs@@YAXXZ@QBE?AV?$basic_string@DU?$char_traits@D@std@@V?$allocator@D@2@@std@@XZ 1004a8f0 f i protect.obj
 0001:00049910       ??R<lambda_48>@?1??init@xor_strs@@YAXXZ@QBE?AV?$basic_string@DU?$char_traits@D@std@@V?$allocator@D@2@@std@@XZ 1004a910 f i protect.obj
 0001:00049930       ??R<lambda_49>@?1??init@xor_strs@@YAXXZ@QBE?AV?$basic_string@DU?$char_traits@D@std@@V?$allocator@D@2@@std@@XZ 1004a930 f i protect.obj
 0001:00049950       ??R<lambda_50>@?1??init@xor_strs@@YAXXZ@QBE?AV?$basic_string@DU?$char_traits@D@std@@V?$allocator@D@2@@std@@XZ 1004a950 f i protect.obj
 0001:00049970       ??R<lambda_51>@?1??init@xor_strs@@YAXXZ@QBE?AV?$basic_string@DU?$char_traits@D@std@@V?$allocator@D@2@@std@@XZ 1004a970 f i protect.obj
 0001:00049990       ??R<lambda_52>@?1??init@xor_strs@@YAXXZ@QBE?AV?$basic_string@DU?$char_traits@D@std@@V?$allocator@D@2@@std@@XZ 1004a990 f i protect.obj
 0001:000499b0       ??R<lambda_53>@?1??init@xor_strs@@YAXXZ@QBE?AV?$basic_string@DU?$char_traits@D@std@@V?$allocator@D@2@@std@@XZ 1004a9b0 f i protect.obj
 0001:000499d0       ??R<lambda_54>@?1??init@xor_strs@@YAXXZ@QBE?AV?$basic_string@DU?$char_traits@D@std@@V?$allocator@D@2@@std@@XZ 1004a9d0 f i protect.obj
 0001:000499f0       ??R<lambda_55>@?1??init@xor_strs@@YAXXZ@QBE?AV?$basic_string@DU?$char_traits@D@std@@V?$allocator@D@2@@std@@XZ 1004a9f0 f i protect.obj
 0001:00049a10       ??R<lambda_56>@?1??init@xor_strs@@YAXXZ@QBE?AV?$basic_string@DU?$char_traits@D@std@@V?$allocator@D@2@@std@@XZ 1004aa10 f i protect.obj
 0001:00049a30       ??R<lambda_57>@?1??init@xor_strs@@YAXXZ@QBE?AV?$basic_string@DU?$char_traits@D@std@@V?$allocator@D@2@@std@@XZ 1004aa30 f i protect.obj
 0001:00049a50       ??R<lambda_58>@?1??init@xor_strs@@YAXXZ@QBE?AV?$basic_string@DU?$char_traits@D@std@@V?$allocator@D@2@@std@@XZ 1004aa50 f i protect.obj
 0001:00049a70       ??R<lambda_59>@?1??init@xor_strs@@YAXXZ@QBE?AV?$basic_string@DU?$char_traits@D@std@@V?$allocator@D@2@@std@@XZ 1004aa70 f i protect.obj
 0001:00049a90       ??R<lambda_60>@?1??init@xor_strs@@YAXXZ@QBE?AV?$basic_string@DU?$char_traits@D@std@@V?$allocator@D@2@@std@@XZ 1004aa90 f i protect.obj
 0001:00049ab0       ??R<lambda_61>@?1??init@xor_strs@@YAXXZ@QBE?AV?$basic_string@DU?$char_traits@D@std@@V?$allocator@D@2@@std@@XZ 1004aab0 f i protect.obj
 0001:00049ad0       ??R<lambda_62>@?1??init@xor_strs@@YAXXZ@QBE?AV?$basic_string@DU?$char_traits@D@std@@V?$allocator@D@2@@std@@XZ 1004aad0 f i protect.obj
 0001:00049af0       ??R<lambda_63>@?1??init@xor_strs@@YAXXZ@QBE?AV?$basic_string@DU?$char_traits@D@std@@V?$allocator@D@2@@std@@XZ 1004aaf0 f i protect.obj
 0001:00049b10       ??R<lambda_64>@?1??init@xor_strs@@YAXXZ@QBE?AV?$basic_string@DU?$char_traits@D@std@@V?$allocator@D@2@@std@@XZ 1004ab10 f i protect.obj
 0001:00049b30       ??R<lambda_65>@?1??init@xor_strs@@YAXXZ@QBE?AV?$basic_string@DU?$char_traits@D@std@@V?$allocator@D@2@@std@@XZ 1004ab30 f i protect.obj
 0001:00049b50       ??R<lambda_66>@?1??init@xor_strs@@YAXXZ@QBE?AV?$basic_string@DU?$char_traits@D@std@@V?$allocator@D@2@@std@@XZ 1004ab50 f i protect.obj
 0001:00049b70       ??R<lambda_67>@?1??init@xor_strs@@YAXXZ@QBE?AV?$basic_string@DU?$char_traits@D@std@@V?$allocator@D@2@@std@@XZ 1004ab70 f i protect.obj
 0001:00049b90       ??R<lambda_68>@?1??init@xor_strs@@YAXXZ@QBE?AV?$basic_string@DU?$char_traits@D@std@@V?$allocator@D@2@@std@@XZ 1004ab90 f i protect.obj
 0001:00049bb0       ??R<lambda_69>@?1??init@xor_strs@@YAXXZ@QBE?AV?$basic_string@DU?$char_traits@D@std@@V?$allocator@D@2@@std@@XZ 1004abb0 f i protect.obj
 0001:00049bd0       ??R<lambda_70>@?1??init@xor_strs@@YAXXZ@QBE?AV?$basic_string@DU?$char_traits@D@std@@V?$allocator@D@2@@std@@XZ 1004abd0 f i protect.obj
 0001:00049bf0       ??R<lambda_71>@?1??init@xor_strs@@YAXXZ@QBE?AV?$basic_string@DU?$char_traits@D@std@@V?$allocator@D@2@@std@@XZ 1004abf0 f i protect.obj
 0001:00049c10       ??B?$c_xor_string@$02@@QBE?AV?$basic_string@DU?$char_traits@D@std@@V?$allocator@D@2@@std@@XZ 1004ac10 f i protect.obj
 0001:00049cf0       ??B?$c_xor_string@$08@@QBE?AV?$basic_string@DU?$char_traits@D@std@@V?$allocator@D@2@@std@@XZ 1004acf0 f i protect.obj
 0001:0004a0b0       ??B?$c_xor_string@$03@@QBE?AV?$basic_string@DU?$char_traits@D@std@@V?$allocator@D@2@@std@@XZ 1004b0b0 f i protect.obj
 0001:0004a1c0       ??B?$c_xor_string@$04@@QBE?AV?$basic_string@DU?$char_traits@D@std@@V?$allocator@D@2@@std@@XZ 1004b1c0 f i protect.obj
 0001:0004a310       ?clear_textures@c_blur_effect@@SAXXZ 1004b310 f i render.obj
 0001:0004a370       ?instance@c_blur_effect@@CAAAV1@XZ 1004b370 f i render.obj
 0001:0004a400       ?begin@c_blur_effect@@CAXPBUImDrawList@@PBUImDrawCmd@@@Z 1004b400 f i render.obj
 0001:0004a410       ?first_pass@c_blur_effect@@CAXPBUImDrawList@@PBUImDrawCmd@@@Z 1004b410 f i render.obj
 0001:0004a4f0       ?second_pass@c_blur_effect@@CAXPBUImDrawList@@PBUImDrawCmd@@@Z 1004b4f0 f i render.obj
 0001:0004a5d0       ?end@c_blur_effect@@CAXPBUImDrawList@@PBUImDrawCmd@@@Z 1004b5d0 f i render.obj
 0001:0004a620       ?_begin@c_blur_effect@@AAEXXZ 1004b620 f i render.obj
 0001:0004a7e0       ?_draw@c_blur_effect@@AAEXPAUImDrawList@@UImVec2@@1UImColor@@MH@Z 1004b7e0 f i render.obj
 0001:0004b370       ?update_screen_size@c_render@@QAEXXZ 1004c370 f   render.obj
 0001:0004b3b0       ?string@c_render@@QAAXMMVcolor@@HPAUImFont@@PBDZZ 1004c3b0 f   render.obj
 0001:0004bdf0       ?rect@c_render@@QAEXMMMMVcolor@@MM@Z 1004cdf0 f   render.obj
 0001:0004bfb0       ?filled_triangle_gradient@c_render@@QAEXMMMMMMVcolor@@00@Z 1004cfb0 f   render.obj
 0001:0004c360       ?filled_circle@c_render@@QAEXMMMVcolor@@H@Z 1004d360 f   render.obj
 0001:0004c4c0       ?world_to_screen@c_render@@QAE_NABVvector3d@@AAVvector2d@@_N@Z 1004d4c0 f   render.obj
 0001:0004c6a0       ?init@render@@YAXXZ        1004d6a0 f   render.obj
 0001:0004c7c0       ?multi_byte_to_wide@render@@YA?AV?$basic_string@_WU?$char_traits@_W@std@@V?$allocator@_W@2@@std@@ABV?$basic_string_view@DU?$char_traits@D@std@@@3@@Z 1004d7c0 f   render.obj
 0001:0004c890       ?text@render@@YAXHHABVcolor@@KIABV?$basic_string@DU?$char_traits@D@std@@V?$allocator@D@2@@std@@@Z 1004d890 f   render.obj
 0001:0004c9b0       ??1?$unique_ptr@Vc_render@@U?$default_delete@Vc_render@@@std@@@std@@QAE@XZ 1004d9b0 f i render.obj
 0001:0004c9d0       ??$_Construct@$0A@_W@?$basic_string@_WU?$char_traits@_W@std@@V?$allocator@_W@2@@std@@AAEX_WI@Z 1004d9d0 f i render.obj
 0001:0004cb20       ?do_encoding@codecvt_base@std@@MBEHXZ 1004db20 f i dllmain.obj
 0001:0004cb20       ?do_max_length@codecvt_base@std@@MBEHXZ 1004db20 f i dllmain.obj
 0001:0004cb20       ?get_trace_type@c_trace_filter_world_only@@UBE?AW4trace_type_t@@XZ 1004db20 f i anti_aim.obj
 0001:0004cb30       ?now@steady_clock@chrono@std@@SA?AV?$time_point@Usteady_clock@chrono@std@@V?$duration@_JU?$ratio@$00$0DLJKMKAA@@std@@@23@@23@XZ 1004db30 f i dllmain.obj
 0001:0004cbe0       ??_Ec_game_event_listener2@@UAEPAXI@Z 1004dbe0 f i * CIL library *:* CIL module *
 0001:0004cbe0       ??_Gc_game_event_listener2@@UAEPAXI@Z 1004dbe0 f i dllmain.obj
 0001:0004cc10       ?get_event_debug_id@c_event_listener@@UAEHXZ 1004dc10 f i dllmain.obj
 0001:0004cc20       ??1nade_path_t@c_grenade_warning@@QAE@XZ 1004dc20 f i dllmain.obj
 0001:0004ccc0       ??_D?$basic_ofstream@DU?$char_traits@D@std@@@std@@QAEXXZ 1004dcc0 f i dllmain.obj
 0001:0004cd20       ??R<lambda_2>@?1??cheat_load@@YAXXZ@QBE?AV?$basic_string@DU?$char_traits@D@std@@V?$allocator@D@2@@std@@XZ 1004dd20 f i dllmain.obj
 0001:0004cd40       ??R<lambda_3>@?1??cheat_load@@YAXXZ@QBE?AV?$basic_string@DU?$char_traits@D@std@@V?$allocator@D@2@@std@@XZ 1004dd40 f i dllmain.obj
 0001:0004cd80       ?cheat_init@@YAXPAUHINSTANCE__@@@Z 1004dd80 f i dllmain.obj
 0001:00055b90       _DllMain@12                10056b90 f   dllmain.obj
 0001:00055c80       ??1?$unique_ptr@Vc_engine_prediction@@U?$default_delete@Vc_engine_prediction@@@std@@@std@@QAE@XZ 10056c80 f i dllmain.obj
 0001:00055ca0       ??1?$unique_ptr@Vc_local_animation_fix@@U?$default_delete@Vc_local_animation_fix@@@std@@@std@@QAE@XZ 10056ca0 f i dllmain.obj
 0001:00055cc0       ??1?$unique_ptr@Vc_animation_fix@@U?$default_delete@Vc_animation_fix@@@std@@@std@@QAE@XZ 10056cc0 f i dllmain.obj
 0001:00055ce0       ??1?$unique_ptr@Vc_event_logger@@U?$default_delete@Vc_event_logger@@@std@@@std@@QAE@XZ 10056ce0 f i dllmain.obj
 0001:00055d00       ??1?$unique_ptr@Vc_event_visuals@@U?$default_delete@Vc_event_visuals@@@std@@@std@@QAE@XZ 10056d00 f i dllmain.obj
 0001:00055d40       ??1?$unique_ptr@Vc_chams@@U?$default_delete@Vc_chams@@@std@@@std@@QAE@XZ 10056d40 f i dllmain.obj
 0001:00055d70       ??1?$unique_ptr@Vc_grenade_warning@@U?$default_delete@Vc_grenade_warning@@@std@@@std@@QAE@XZ 10056d70 f i dllmain.obj
 0001:00055db0       ??1?$unique_ptr@Vc_local_visuals@@U?$default_delete@Vc_local_visuals@@@std@@@std@@QAE@XZ 10056db0 f i dllmain.obj
 0001:00055e20       ??1?$unique_ptr@Vc_anti_aim@@U?$default_delete@Vc_anti_aim@@@std@@@std@@QAE@XZ 10056e20 f i dllmain.obj
 0001:00055e40       ??1?$unique_ptr@Vc_exploits@@U?$default_delete@Vc_exploits@@@std@@@std@@QAE@XZ 10056e40 f i dllmain.obj
 0001:00055e60       ??1?$unique_ptr@Vc_movement@@U?$default_delete@Vc_movement@@@std@@@std@@QAE@XZ 10056e60 f i dllmain.obj
 0001:00055e60       ??1?$unique_ptr@Vc_tickbase@@U?$default_delete@Vc_tickbase@@@std@@@std@@QAE@XZ 10056e60 f i dllmain.obj
 0001:00055e80       ??1?$unique_ptr@Vc_fake_lag@@U?$default_delete@Vc_fake_lag@@@std@@@std@@QAE@XZ 10056e80 f i dllmain.obj
 0001:00055ef0       ??1?$unique_ptr@Vc_listener_entity@@U?$default_delete@Vc_listener_entity@@@std@@@std@@QAE@XZ 10056ef0 f i dllmain.obj
 0001:00055f10       ??C?$unique_ptr@Vc_event_listener@@U?$default_delete@Vc_event_listener@@@std@@@std@@QBEPAVc_event_listener@@XZ 10056f10 f i dllmain.obj
 0001:00055f20       ??1?$unique_ptr@Vc_event_listener@@U?$default_delete@Vc_event_listener@@@std@@@std@@QAE@XZ 10056f20 f i dllmain.obj
 0001:00055f30       ??1?$unique_ptr@Vc_utils@@U?$default_delete@Vc_utils@@@std@@@std@@QAE@XZ 10056f30 f i dllmain.obj
 0001:00055f50       ??1?$unique_ptr@Vc_world_modulation@@U?$default_delete@Vc_world_modulation@@@std@@@std@@QAE@XZ 10056f50 f i dllmain.obj
 0001:00055fb0       ?imbue@?$basic_filebuf@DU?$char_traits@D@std@@@std@@MAEXABVlocale@2@@Z 10056fb0 f i dllmain.obj
 0001:00055fd0       ?sync@?$basic_filebuf@DU?$char_traits@D@std@@@std@@MAEHXZ 10056fd0 f i dllmain.obj
 0001:00056000       ?setbuf@?$basic_filebuf@DU?$char_traits@D@std@@@std@@MAEPAV?$basic_streambuf@DU?$char_traits@D@std@@@2@PAD_J@Z 10057000 f i dllmain.obj
 0001:00056060       ?seekpos@?$basic_filebuf@DU?$char_traits@D@std@@@std@@MAE?AV?$fpos@U_Mbstatet@@@2@V32@H@Z 10057060 f i dllmain.obj
 0001:00056130       ?seekoff@?$basic_filebuf@DU?$char_traits@D@std@@@std@@MAE?AV?$fpos@U_Mbstatet@@@2@_JHH@Z 10057130 f i dllmain.obj
 0001:00056240       ?xsputn@?$basic_filebuf@DU?$char_traits@D@std@@@std@@MAE_JPBD_J@Z 10057240 f i dllmain.obj
 0001:00056400       ?xsgetn@?$basic_filebuf@DU?$char_traits@D@std@@@std@@MAE_JPAD_J@Z 10057400 f i dllmain.obj
 0001:000565e0       ?uflow@?$basic_filebuf@DU?$char_traits@D@std@@@std@@MAEHXZ 100575e0 f i dllmain.obj
 0001:00056890       ?underflow@?$basic_filebuf@DU?$char_traits@D@std@@@std@@MAEHXZ 10057890 f i dllmain.obj
 0001:000568d0       ?pbackfail@?$basic_filebuf@DU?$char_traits@D@std@@@std@@MAEHH@Z 100578d0 f i dllmain.obj
 0001:00056980       ?overflow@?$basic_filebuf@DU?$char_traits@D@std@@@std@@MAEHH@Z 10057980 f i dllmain.obj
 0001:00056af0       ?_Unlock@?$basic_filebuf@DU?$char_traits@D@std@@@std@@UAEXXZ 10057af0 f i dllmain.obj
 0001:00056b00       ?_Lock@?$basic_filebuf@DU?$char_traits@D@std@@@std@@UAEXXZ 10057b00 f i dllmain.obj
 0001:00056b10       ??1?$basic_filebuf@DU?$char_traits@D@std@@@std@@UAE@XZ 10057b10 f i dllmain.obj
 0001:00056b80       ??1?$vector@Uaim_shot_record_t@@V?$allocator@Uaim_shot_record_t@@@std@@@std@@QAE@XZ 10057b80 f i dllmain.obj
 0001:00056c00       ??1?$vector@Upoint_t@@V?$allocator@Upoint_t@@@std@@@std@@QAE@XZ 10057c00 f i dllmain.obj
 0001:00056c70       ??1?$vector@Umessage_t@c_event_logger@@V?$allocator@Umessage_t@c_event_logger@@@std@@@std@@QAE@XZ 10057c70 f i dllmain.obj
 0001:00056cf0       ??1?$vector@Uhitmarker_t@@V?$allocator@Uhitmarker_t@@@std@@@std@@QAE@XZ 10057cf0 f i dllmain.obj
 0001:00056d60       ??1?$vector@Ushot_record_t@c_chams@@V?$allocator@Ushot_record_t@c_chams@@@std@@@std@@QAE@XZ 10057d60 f i dllmain.obj
 0001:00056dc0       ??0?$vector@V?$basic_string@DU?$char_traits@D@std@@V?$allocator@D@2@@std@@V?$allocator@V?$basic_string@DU?$char_traits@D@std@@V?$allocator@D@2@@std@@@2@@std@@QAE@V?$initializer_list@V?$basic_string@DU?$char_traits@D@std@@V?$allocator@D@2@@std@@@1@ABV?$allocator@V?$basic_string@DU?$char_traits@D@std@@V?$allocator@D@2@@std@@@1@@Z 10057dc0 f i dllmain.obj
 0001:00056eb0       ??_E?$basic_filebuf@DU?$char_traits@D@std@@@std@@UAEPAXI@Z 10057eb0 f i * CIL library *:* CIL module *
 0001:00056eb0       ??_G?$basic_filebuf@DU?$char_traits@D@std@@@std@@UAEPAXI@Z 10057eb0 f i dllmain.obj
 0001:00056ee0       ??_E?$basic_ofstream@DU?$char_traits@D@std@@@std@@UAEPAXI@Z 10057ee0 f i * CIL library *:* CIL module *
 0001:00056ee0       ??_G?$basic_ofstream@DU?$char_traits@D@std@@@std@@UAEPAXI@Z 10057ee0 f i dllmain.obj
 0001:00056f10       ?do_length@?$codecvt@DDU_Mbstatet@@@std@@MBEHAAU_Mbstatet@@PBD1I@Z 10057f10 f i dllmain.obj
 0001:00056f30       ?do_unshift@?$codecvt@DDU_Mbstatet@@@std@@MBEHAAU_Mbstatet@@PAD1AAPAD@Z 10057f30 f i dllmain.obj
 0001:00056f50       ?do_in@?$codecvt@DDU_Mbstatet@@@std@@MBEHAAU_Mbstatet@@PBD1AAPBDPAD3AAPAD@Z 10057f50 f i dllmain.obj
 0001:00056f50       ?do_out@?$codecvt@DDU_Mbstatet@@@std@@MBEHAAU_Mbstatet@@PBD1AAPBDPAD3AAPAD@Z 10057f50 f i dllmain.obj
 0001:00056f70       ??R?$default_delete@Vc_rage_bot@@@std@@QBEXPAVc_rage_bot@@@Z 10057f70 f i dllmain.obj
 0001:00056fc0       ??R?$default_delete@Vc_esp_store@@@std@@QBEXPAVc_esp_store@@@Z 10057fc0 f i dllmain.obj
 0001:00057030       ?_Initcvt@?$basic_filebuf@DU?$char_traits@D@std@@@std@@IAEXABV?$codecvt@DDU_Mbstatet@@@2@@Z 10058030 f i dllmain.obj
 0001:000570c0       ?_Endwrite@?$basic_filebuf@DU?$char_traits@D@std@@@std@@IAE_NXZ 100580c0 f i dllmain.obj
 0001:00057190       ?_Init@?$basic_filebuf@DU?$char_traits@D@std@@@std@@IAEXPAU_iobuf@@W4_Initfl@12@@Z 10058190 f i dllmain.obj
 0001:00057280       ?close@?$basic_filebuf@DU?$char_traits@D@std@@@std@@QAEPAV12@XZ 10058280 f i dllmain.obj
 0001:00057380       ??0?$basic_filebuf@DU?$char_traits@D@std@@@std@@QAE@XZ 10058380 f i dllmain.obj
 0001:00057420       ?_Tidy@?$deque@Urecords_t@@V?$allocator@Urecords_t@@@std@@@std@@AAEXXZ 10058420 f i dllmain.obj
 0001:000574c0       ??_E?$codecvt@DDU_Mbstatet@@@std@@MAEPAXI@Z 100584c0 f i * CIL library *:* CIL module *
 0001:000574c0       ??_G?$codecvt@DDU_Mbstatet@@@std@@MAEPAXI@Z 100584c0 f i dllmain.obj
 0001:000574f0       ??1?$array@Uanim_player_t@c_animation_fix@@$0EB@@std@@QAE@XZ 100584f0 f i dllmain.obj
 0001:00057530       ??1?$array@V?$vector@Ubullet_tracer_t@c_event_visuals@@V?$allocator@Ubullet_tracer_t@c_event_visuals@@@std@@@std@@$0EB@@std@@QAE@XZ 10058530 f i dllmain.obj
 0001:000575b0       ??1player_info_t@c_esp_store@@QAE@XZ 100585b0 f i dllmain.obj
 0001:00057690       ??1?$array@Uesp_objects_t@@$0BE@@std@@QAE@XZ 10058690 f i dllmain.obj
 0001:00057700       ??1world_info_t@c_esp_store@@QAE@XZ 10058700 f i dllmain.obj
 0001:000577a0       ??1?$_Hash@V?$_Umap_traits@KMV?$_Uhash_compare@KU?$hash@K@std@@U?$equal_to@K@2@@std@@V?$allocator@U?$pair@$$CBKM@std@@@2@$0A@@std@@@std@@QAE@XZ 100587a0 f i dllmain.obj
 0001:000577a0       ??1?$_Hash@V?$_Umap_traits@PBDHV?$_Uhash_compare@PBDU?$hash@PBD@std@@U?$equal_to@PBD@2@@std@@V?$allocator@U?$pair@QBDH@std@@@2@$0A@@std@@@std@@QAE@XZ 100587a0 f i slider.obj
 0001:000577a0       ??1?$_Hash@V?$_Umap_traits@PBDUcombo_info_t@@V?$_Uhash_compare@PBDU?$hash@PBD@std@@U?$equal_to@PBD@2@@std@@V?$allocator@U?$pair@QBDUcombo_info_t@@@std@@@3@$0A@@std@@@std@@QAE@XZ 100587a0 f i combo_box.obj
 0001:000577a0       ??1?$_Hash@V?$_Umap_traits@PBDUmulti_combo_info_t@@V?$_Uhash_compare@PBDU?$hash@PBD@std@@U?$equal_to@PBD@2@@std@@V?$allocator@U?$pair@QBDUmulti_combo_info_t@@@std@@@3@$0A@@std@@@std@@QAE@XZ 100587a0 f i multi_combo_box.obj
 0001:000577a0       ??1?$_Hash@V?$_Umap_traits@PBD_NV?$_Uhash_compare@PBDU?$hash@PBD@std@@U?$equal_to@PBD@2@@std@@V?$allocator@U?$pair@QBD_N@std@@@2@$0A@@std@@@std@@QAE@XZ 100587a0 f i button.obj
 0001:000577f0       ??1?$array@V?$vector@Ulistened_entity_t@@V?$allocator@Ulistened_entity_t@@@std@@@std@@$06@std@@QAE@XZ 100587f0 f i dllmain.obj
 0001:00057870       ?deallocate@?$allocator@Uaim_shot_record_t@@@std@@QAEXQAUaim_shot_record_t@@I@Z 10058870 f i dllmain.obj
 0001:000578b0       ?deallocate@?$allocator@Upoint_t@@@std@@QAEXQAUpoint_t@@I@Z 100588b0 f i dllmain.obj
 0001:000578f0       ?deallocate@?$allocator@Umessage_t@c_event_logger@@@std@@QAEXQAUmessage_t@c_event_logger@@I@Z 100588f0 f i dllmain.obj
 0001:00057930       ?deallocate@?$allocator@Uhitmarker_t@@@std@@QAEXQAUhitmarker_t@@I@Z 10058930 f i dllmain.obj
 0001:00057970       ?deallocate@?$allocator@Ushot_record_t@c_chams@@@std@@QAEXQAUshot_record_t@c_chams@@I@Z 10058970 f i dllmain.obj
 0001:000579a0       ??1?$_Hash_vec@V?$allocator@V?$_List_unchecked_iterator@V?$_List_val@U?$_List_simple_types@U?$pair@$$CBKM@std@@@std@@@std@@@std@@@std@@@std@@QAE@XZ 100589a0 f i dllmain.obj
 0001:000579a0       ??1?$_Hash_vec@V?$allocator@V?$_List_unchecked_iterator@V?$_List_val@U?$_List_simple_types@U?$pair@$$CBKUnade_path_t@c_grenade_warning@@@std@@@std@@@std@@@std@@@std@@@std@@QAE@XZ 100589a0 f i dllmain.obj
 0001:000579a0       ??1?$_Hash_vec@V?$allocator@V?$_List_unchecked_iterator@V?$_List_val@U?$_List_simple_types@U?$pair@QBDH@std@@@std@@@std@@@std@@@std@@@std@@QAE@XZ 100589a0 f i slider.obj
 0001:000579a0       ??1?$_Hash_vec@V?$allocator@V?$_List_unchecked_iterator@V?$_List_val@U?$_List_simple_types@U?$pair@QBDUcolor_picker_info_t@@@std@@@std@@@std@@@std@@@std@@@std@@QAE@XZ 100589a0 f i color_picker.obj
 0001:000579a0       ??1?$_Hash_vec@V?$allocator@V?$_List_unchecked_iterator@V?$_List_val@U?$_List_simple_types@U?$pair@QBDUcombo_info_t@@@std@@@std@@@std@@@std@@@std@@@std@@QAE@XZ 100589a0 f i combo_box.obj
 0001:000579a0       ??1?$_Hash_vec@V?$allocator@V?$_List_unchecked_iterator@V?$_List_val@U?$_List_simple_types@U?$pair@QBDUmulti_combo_info_t@@@std@@@std@@@std@@@std@@@std@@@std@@QAE@XZ 100589a0 f i multi_combo_box.obj
 0001:000579a0       ??1?$_Hash_vec@V?$allocator@V?$_List_unchecked_iterator@V?$_List_val@U?$_List_simple_types@U?$pair@QBD_N@std@@@std@@@std@@@std@@@std@@@std@@QAE@XZ 100589a0 f i button.obj
 0001:00057a00       ??1?$list@U?$pair@$$CBKUnade_path_t@c_grenade_warning@@@std@@V?$allocator@U?$pair@$$CBKUnade_path_t@c_grenade_warning@@@std@@@2@@std@@QAE@XZ 10058a00 f i dllmain.obj
 0001:00057a50       ?deallocate@?$allocator@Ulistened_entity_t@@@std@@QAEXQAUlistened_entity_t@@I@Z 10058a50 f i dllmain.obj
 0001:00057a90       ?_Tidy@?$deque@HV?$allocator@H@std@@@std@@AAEXXZ 10058a90 f i dllmain.obj
 0001:00057b20       ?_Tidy@?$deque@Uchoked_ticks_t@@V?$allocator@Uchoked_ticks_t@@@std@@@std@@AAEXXZ 10058b20 f i dllmain.obj
 0001:00057b20       ?_Tidy@?$deque@Ucommands_t@@V?$allocator@Ucommands_t@@@std@@@std@@AAEXXZ 10058b20 f i dllmain.obj
 0001:00057bb0       ??$_To_absolute_time@_JU?$ratio@$00$0DOI@@std@@@std@@YA?A_PABV?$duration@_JU?$ratio@$00$0DOI@@std@@@chrono@0@@Z 10058bb0 f i dllmain.obj
 0001:00057c50       ??$make_unique@Vc_world_modulation@@$$V$0A@@std@@YA?AV?$unique_ptr@Vc_world_modulation@@U?$default_delete@Vc_world_modulation@@@std@@@0@XZ 10058c50 f i dllmain.obj
 0001:00057c80       ??$?4U?$default_delete@Vc_world_modulation@@@std@@$0A@@?$unique_ptr@Vc_world_modulation@@U?$default_delete@Vc_world_modulation@@@std@@@std@@QAEAAV01@$$QAV01@@Z 10058c80 f i dllmain.obj
 0001:00057d10       ??$make_unique@Vc_utils@@$$V$0A@@std@@YA?AV?$unique_ptr@Vc_utils@@U?$default_delete@Vc_utils@@@std@@@0@XZ 10058d10 f i dllmain.obj
 0001:00057d30       ??$?4U?$default_delete@Vc_utils@@@std@@$0A@@?$unique_ptr@Vc_utils@@U?$default_delete@Vc_utils@@@std@@@std@@QAEAAV01@$$QAV01@@Z 10058d30 f i dllmain.obj
 0001:00057d70       ??$make_unique@Vc_movement@@$$V$0A@@std@@YA?AV?$unique_ptr@Vc_movement@@U?$default_delete@Vc_movement@@@std@@@0@XZ 10058d70 f i dllmain.obj
 0001:00057db0       ??$?4U?$default_delete@Vc_movement@@@std@@$0A@@?$unique_ptr@Vc_movement@@U?$default_delete@Vc_movement@@@std@@@std@@QAEAAV01@$$QAV01@@Z 10058db0 f i dllmain.obj
 0001:00057df0       ??$make_unique@Vc_event_listener@@$$V$0A@@std@@YA?AV?$unique_ptr@Vc_event_listener@@U?$default_delete@Vc_event_listener@@@std@@@0@XZ 10058df0 f i dllmain.obj
 0001:00057f60       ??$?4U?$default_delete@Vc_event_listener@@@std@@$0A@@?$unique_ptr@Vc_event_listener@@U?$default_delete@Vc_event_listener@@@std@@@std@@QAEAAV01@$$QAV01@@Z 10058f60 f i dllmain.obj
 0001:00057fa0       ??$make_unique@Vc_listener_entity@@$$V$0A@@std@@YA?AV?$unique_ptr@Vc_listener_entity@@U?$default_delete@Vc_listener_entity@@@std@@@0@XZ 10058fa0 f i dllmain.obj
 0001:00058060       ??$?4U?$default_delete@Vc_listener_entity@@@std@@$0A@@?$unique_ptr@Vc_listener_entity@@U?$default_delete@Vc_listener_entity@@@std@@@std@@QAEAAV01@$$QAV01@@Z 10059060 f i dllmain.obj
 0001:000580b0       ??$make_unique@Vc_fake_lag@@$$V$0A@@std@@YA?AV?$unique_ptr@Vc_fake_lag@@U?$default_delete@Vc_fake_lag@@@std@@@0@XZ 100590b0 f i dllmain.obj
 0001:000581f0       ??$?4U?$default_delete@Vc_fake_lag@@@std@@$0A@@?$unique_ptr@Vc_fake_lag@@U?$default_delete@Vc_fake_lag@@@std@@@std@@QAEAAV01@$$QAV01@@Z 100591f0 f i dllmain.obj
 0001:000582a0       ??$make_unique@Vc_tickbase@@$$V$0A@@std@@YA?AV?$unique_ptr@Vc_tickbase@@U?$default_delete@Vc_tickbase@@@std@@@0@XZ 100592a0 f i dllmain.obj
 0001:000582d0       ??$?4U?$default_delete@Vc_tickbase@@@std@@$0A@@?$unique_ptr@Vc_tickbase@@U?$default_delete@Vc_tickbase@@@std@@@std@@QAEAAV01@$$QAV01@@Z 100592d0 f i dllmain.obj
 0001:00058310       ??$make_unique@Vc_exploits@@$$V$0A@@std@@YA?AV?$unique_ptr@Vc_exploits@@U?$default_delete@Vc_exploits@@@std@@@0@XZ 10059310 f i dllmain.obj
 0001:00058370       ??$?4U?$default_delete@Vc_exploits@@@std@@$0A@@?$unique_ptr@Vc_exploits@@U?$default_delete@Vc_exploits@@@std@@@std@@QAEAAV01@$$QAV01@@Z 10059370 f i dllmain.obj
 0001:000583b0       ??$make_unique@Vc_anti_aim@@$$V$0A@@std@@YA?AV?$unique_ptr@Vc_anti_aim@@U?$default_delete@Vc_anti_aim@@@std@@@0@XZ 100593b0 f i dllmain.obj
 0001:00058480       ??$?4U?$default_delete@Vc_anti_aim@@@std@@$0A@@?$unique_ptr@Vc_anti_aim@@U?$default_delete@Vc_anti_aim@@@std@@@std@@QAEAAV01@$$QAV01@@Z 10059480 f i dllmain.obj
 0001:000584d0       ??$make_unique@Vc_ping_spike@@$$V$0A@@std@@YA?AV?$unique_ptr@Vc_ping_spike@@U?$default_delete@Vc_ping_spike@@@std@@@0@XZ 100594d0 f i dllmain.obj
 0001:000584f0       ??$?4U?$default_delete@Vc_ping_spike@@@std@@$0A@@?$unique_ptr@Vc_ping_spike@@U?$default_delete@Vc_ping_spike@@@std@@@std@@QAEAAV01@$$QAV01@@Z 100594f0 f i dllmain.obj
 0001:00058530       ??$make_unique@Vc_auto_wall@@$$V$0A@@std@@YA?AV?$unique_ptr@Vc_auto_wall@@U?$default_delete@Vc_auto_wall@@@std@@@0@XZ 10059530 f i dllmain.obj
 0001:00058530       ??$make_unique@Vc_glow_esp@@$$V$0A@@std@@YA?AV?$unique_ptr@Vc_glow_esp@@U?$default_delete@Vc_glow_esp@@@std@@@0@XZ 10059530 f i dllmain.obj
 0001:00058530       ??$make_unique@Vc_memory@@$$V$0A@@std@@YA?AV?$unique_ptr@Vc_memory@@U?$default_delete@Vc_memory@@@std@@@0@XZ 10059530 f i dllmain.obj
 0001:00058530       ??$make_unique@Vc_player_esp@@$$V$0A@@std@@YA?AV?$unique_ptr@Vc_player_esp@@U?$default_delete@Vc_player_esp@@@std@@@0@XZ 10059530 f i dllmain.obj
 0001:00058530       ??$make_unique@Vc_visuals_wrapper@@$$V$0A@@std@@YA?AV?$unique_ptr@Vc_visuals_wrapper@@U?$default_delete@Vc_visuals_wrapper@@@std@@@0@XZ 10059530 f i dllmain.obj
 0001:00058530       ??$make_unique@Vc_weapon_esp@@$$V$0A@@std@@YA?AV?$unique_ptr@Vc_weapon_esp@@U?$default_delete@Vc_weapon_esp@@@std@@@0@XZ 10059530 f i dllmain.obj
 0001:00058550       ??$?4U?$default_delete@Vc_visuals_wrapper@@@std@@$0A@@?$unique_ptr@Vc_visuals_wrapper@@U?$default_delete@Vc_visuals_wrapper@@@std@@@std@@QAEAAV01@$$QAV01@@Z 10059550 f i dllmain.obj
 0001:00058590       ??$make_unique@Vc_local_visuals@@$$V$0A@@std@@YA?AV?$unique_ptr@Vc_local_visuals@@U?$default_delete@Vc_local_visuals@@@std@@@0@XZ 10059590 f i dllmain.obj
 0001:000585f0       ??$?4U?$default_delete@Vc_local_visuals@@@std@@$0A@@?$unique_ptr@Vc_local_visuals@@U?$default_delete@Vc_local_visuals@@@std@@@std@@QAEAAV01@$$QAV01@@Z 100595f0 f i dllmain.obj
 0001:00058680       ??$make_unique@Vc_grenade_warning@@$$V$0A@@std@@YA?AV?$unique_ptr@Vc_grenade_warning@@U?$default_delete@Vc_grenade_warning@@@std@@@0@XZ 10059680 f i dllmain.obj
 0001:000587c0       ??$?4U?$default_delete@Vc_grenade_warning@@@std@@$0A@@?$unique_ptr@Vc_grenade_warning@@U?$default_delete@Vc_grenade_warning@@@std@@@std@@QAEAAV01@$$QAV01@@Z 100597c0 f i dllmain.obj
 0001:00058830       ??$?4U?$default_delete@Vc_glow_esp@@@std@@$0A@@?$unique_ptr@Vc_glow_esp@@U?$default_delete@Vc_glow_esp@@@std@@@std@@QAEAAV01@$$QAV01@@Z 10059830 f i dllmain.obj
 0001:00058870       ??$make_unique@Vc_esp_store@@$$V$0A@@std@@YA?AV?$unique_ptr@Vc_esp_store@@U?$default_delete@Vc_esp_store@@@std@@@0@XZ 10059870 f i dllmain.obj
 0001:000588a0       ??$?4U?$default_delete@Vc_esp_store@@@std@@$0A@@?$unique_ptr@Vc_esp_store@@U?$default_delete@Vc_esp_store@@@std@@@std@@QAEAAV01@$$QAV01@@Z 100598a0 f i dllmain.obj
 0001:000588e0       ??$?4U?$default_delete@Vc_player_esp@@@std@@$0A@@?$unique_ptr@Vc_player_esp@@U?$default_delete@Vc_player_esp@@@std@@@std@@QAEAAV01@$$QAV01@@Z 100598e0 f i dllmain.obj
 0001:00058920       ??$?4U?$default_delete@Vc_weapon_esp@@@std@@$0A@@?$unique_ptr@Vc_weapon_esp@@U?$default_delete@Vc_weapon_esp@@@std@@@std@@QAEAAV01@$$QAV01@@Z 10059920 f i dllmain.obj
 0001:00058960       ??$make_unique@Vc_chams@@$$V$0A@@std@@YA?AV?$unique_ptr@Vc_chams@@U?$default_delete@Vc_chams@@@std@@@0@XZ 10059960 f i dllmain.obj
 0001:00058990       ??$?4U?$default_delete@Vc_chams@@@std@@$0A@@?$unique_ptr@Vc_chams@@U?$default_delete@Vc_chams@@@std@@@std@@QAEAAV01@$$QAV01@@Z 10059990 f i dllmain.obj
 0001:000589f0       ??$make_unique@Vc_event_visuals@@$$V$0A@@std@@YA?AV?$unique_ptr@Vc_event_visuals@@U?$default_delete@Vc_event_visuals@@@std@@@0@XZ 100599f0 f i dllmain.obj
 0001:00058a70       ??$?4U?$default_delete@Vc_event_visuals@@@std@@$0A@@?$unique_ptr@Vc_event_visuals@@U?$default_delete@Vc_event_visuals@@@std@@@std@@QAEAAV01@$$QAV01@@Z 10059a70 f i dllmain.obj
 0001:00058ae0       ??$make_unique@Vc_event_logger@@$$V$0A@@std@@YA?AV?$unique_ptr@Vc_event_logger@@U?$default_delete@Vc_event_logger@@@std@@@0@XZ 10059ae0 f i dllmain.obj
 0001:00058ae0       ??$make_unique@Vc_netvar_manager@@$$V$0A@@std@@YA?AV?$unique_ptr@Vc_netvar_manager@@U?$default_delete@Vc_netvar_manager@@@std@@@0@XZ 10059ae0 f i dllmain.obj
 0001:00058b10       ??$?4U?$default_delete@Vc_event_logger@@@std@@$0A@@?$unique_ptr@Vc_event_logger@@U?$default_delete@Vc_event_logger@@@std@@@std@@QAEAAV01@$$QAV01@@Z 10059b10 f i dllmain.obj
 0001:00058b60       ??$make_unique@Vc_animation_fix@@$$V$0A@@std@@YA?AV?$unique_ptr@Vc_animation_fix@@U?$default_delete@Vc_animation_fix@@@std@@@0@XZ 10059b60 f i dllmain.obj
 0001:00058b90       ??$?4U?$default_delete@Vc_animation_fix@@@std@@$0A@@?$unique_ptr@Vc_animation_fix@@U?$default_delete@Vc_animation_fix@@@std@@@std@@QAEAAV01@$$QAV01@@Z 10059b90 f i dllmain.obj
 0001:00058be0       ??$make_unique@Vc_local_animation_fix@@$$V$0A@@std@@YA?AV?$unique_ptr@Vc_local_animation_fix@@U?$default_delete@Vc_local_animation_fix@@@std@@@0@XZ 10059be0 f i dllmain.obj
 0001:00058dc0       ??$?4U?$default_delete@Vc_local_animation_fix@@@std@@$0A@@?$unique_ptr@Vc_local_animation_fix@@U?$default_delete@Vc_local_animation_fix@@@std@@@std@@QAEAAV01@$$QAV01@@Z 10059dc0 f i dllmain.obj
 0001:00058e00       ??$make_unique@Vc_engine_prediction@@$$V$0A@@std@@YA?AV?$unique_ptr@Vc_engine_prediction@@U?$default_delete@Vc_engine_prediction@@@std@@@0@XZ 10059e00 f i dllmain.obj
 0001:00058e30       ??$?4U?$default_delete@Vc_engine_prediction@@@std@@$0A@@?$unique_ptr@Vc_engine_prediction@@U?$default_delete@Vc_engine_prediction@@@std@@@std@@QAEAAV01@$$QAV01@@Z 10059e30 f i dllmain.obj
 0001:00058e70       ??$?4U?$default_delete@Vc_auto_wall@@@std@@$0A@@?$unique_ptr@Vc_auto_wall@@U?$default_delete@Vc_auto_wall@@@std@@@std@@QAEAAV01@$$QAV01@@Z 10059e70 f i dllmain.obj
 0001:00058eb0       ??$make_unique@Vc_rage_bot@@$$V$0A@@std@@YA?AV?$unique_ptr@Vc_rage_bot@@U?$default_delete@Vc_rage_bot@@@std@@@0@XZ 10059eb0 f i dllmain.obj
 0001:00058ee0       ??$?4U?$default_delete@Vc_rage_bot@@@std@@$0A@@?$unique_ptr@Vc_rage_bot@@U?$default_delete@Vc_rage_bot@@@std@@@std@@QAEAAV01@$$QAV01@@Z 10059ee0 f i dllmain.obj
 0001:00058f60       ??$?4U?$default_delete@Vc_netvar_manager@@@std@@$0A@@?$unique_ptr@Vc_netvar_manager@@U?$default_delete@Vc_netvar_manager@@@std@@@std@@QAEAAV01@$$QAV01@@Z 10059f60 f i dllmain.obj
 0001:00058fb0       ??$make_unique@Vc_key_states@@$$V$0A@@std@@YA?AV?$unique_ptr@Vc_key_states@@U?$default_delete@Vc_key_states@@@std@@@0@XZ 10059fb0 f i dllmain.obj
 0001:00058ff0       ??$?4U?$default_delete@Vc_key_states@@@std@@$0A@@?$unique_ptr@Vc_key_states@@U?$default_delete@Vc_key_states@@@std@@@std@@QAEAAV01@$$QAV01@@Z 10059ff0 f i dllmain.obj
 0001:00059030       ??$?4U?$default_delete@Vc_memory@@@std@@$0A@@?$unique_ptr@Vc_memory@@U?$default_delete@Vc_memory@@@std@@@std@@QAEAAV01@$$QAV01@@Z 1005a030 f i dllmain.obj
 0001:00059070       ??$make_unique@Vc_render@@$$V$0A@@std@@YA?AV?$unique_ptr@Vc_render@@U?$default_delete@Vc_render@@@std@@@0@XZ 1005a070 f i dllmain.obj
 0001:000590d0       ??$?4U?$default_delete@Vc_render@@@std@@$0A@@?$unique_ptr@Vc_render@@U?$default_delete@Vc_render@@@std@@@std@@QAEAAV01@$$QAV01@@Z 1005a0d0 f i dllmain.obj
 0001:00059110       ??$endl@DU?$char_traits@D@std@@@std@@YAAAV?$basic_ostream@DU?$char_traits@D@std@@@0@AAV10@@Z 1005a110 f i dllmain.obj
 0001:00059210       ??$use_facet@V?$codecvt@DDU_Mbstatet@@@std@@@std@@YAABV?$codecvt@DDU_Mbstatet@@@0@ABVlocale@0@@Z 1005a210 f i dllmain.obj
 0001:00059420       ??$_Destroy_range@V?$allocator@Uaim_shot_record_t@@@std@@@std@@YAXPAUaim_shot_record_t@@QAU1@AAV?$allocator@Uaim_shot_record_t@@@0@@Z 1005a420 f i dllmain.obj
 0001:00059490       ??$_Destroy_range@V?$allocator@Umessage_t@c_event_logger@@@std@@@std@@YAXPAUmessage_t@c_event_logger@@QAU12@AAV?$allocator@Umessage_t@c_event_logger@@@0@@Z 1005a490 f i dllmain.obj
 0001:00059500       ??0c_esp_store@@QAE@XZ     1005a500 f i dllmain.obj
 0001:00059850       ??0c_chams@@QAE@XZ         1005a850 f i dllmain.obj
 0001:000599d0       ??0c_engine_prediction@@QAE@XZ 1005a9d0 f i dllmain.obj
 0001:00059c40       ??0c_rage_bot@@QAE@XZ      1005ac40 f i dllmain.obj
 0001:00059f40       ??_Ec_event_listener@@UAEPAXI@Z 1005af40 f i * CIL library *:* CIL module *
 0001:00059f40       ??_Gc_event_listener@@UAEPAXI@Z 1005af40 f i dllmain.obj
 0001:00059f70       ?put@?$basic_ostream@DU?$char_traits@D@std@@@std@@QAEAAV12@D@Z 1005af70 f i dllmain.obj
 0001:0005a080       ??0?$unordered_map@KUnade_path_t@c_grenade_warning@@U?$hash@K@std@@U?$equal_to@K@4@V?$allocator@U?$pair@$$CBKUnade_path_t@c_grenade_warning@@@std@@@4@@std@@QAE@XZ 1005b080 f i dllmain.obj
 0001:0005a0f0       ??0?$unordered_map@KMU?$hash@K@std@@U?$equal_to@K@2@V?$allocator@U?$pair@$$CBKM@std@@@2@@std@@QAE@XZ 1005b0f0 f i dllmain.obj
 0001:0005a160       ?_Assign_grow@?$_Hash_vec@V?$allocator@V?$_List_unchecked_iterator@V?$_List_val@U?$_List_simple_types@U?$pair@$$CBKM@std@@@std@@@std@@@std@@@std@@@std@@QAEXIV?$_List_unchecked_iterator@V?$_List_val@U?$_List_simple_types@U?$pair@$$CBKM@std@@@std@@@std@@@2@@Z 1005b160 f i dllmain.obj
 0001:0005a160       ?_Assign_grow@?$_Hash_vec@V?$allocator@V?$_List_unchecked_iterator@V?$_List_val@U?$_List_simple_types@U?$pair@$$CBKUnade_path_t@c_grenade_warning@@@std@@@std@@@std@@@std@@@std@@@std@@QAEXIV?$_List_unchecked_iterator@V?$_List_val@U?$_List_simple_types@U?$pair@$$CBKUnade_path_t@c_grenade_warning@@@std@@@std@@@std@@@2@@Z 1005b160 f i dllmain.obj
 0001:0005a160       ?_Assign_grow@?$_Hash_vec@V?$allocator@V?$_List_unchecked_iterator@V?$_List_val@U?$_List_simple_types@U?$pair@QBDUcolor_picker_info_t@@@std@@@std@@@std@@@std@@@std@@@std@@QAEXIV?$_List_unchecked_iterator@V?$_List_val@U?$_List_simple_types@U?$pair@QBDUcolor_picker_info_t@@@std@@@std@@@std@@@2@@Z 1005b160 f i color_picker.obj
 0001:0005a160       ?_Assign_grow@?$_Hash_vec@V?$allocator@V?$_List_unchecked_iterator@V?$_List_val@U?$_List_simple_types@U?$pair@QBDUcombo_info_t@@@std@@@std@@@std@@@std@@@std@@@std@@QAEXIV?$_List_unchecked_iterator@V?$_List_val@U?$_List_simple_types@U?$pair@QBDUcombo_info_t@@@std@@@std@@@std@@@2@@Z 1005b160 f i combo_box.obj
 0001:0005a160       ?_Assign_grow@?$_Hash_vec@V?$allocator@V?$_List_unchecked_iterator@V?$_List_val@U?$_List_simple_types@U?$pair@QBDUmulti_combo_info_t@@@std@@@std@@@std@@@std@@@std@@@std@@QAEXIV?$_List_unchecked_iterator@V?$_List_val@U?$_List_simple_types@U?$pair@QBDUmulti_combo_info_t@@@std@@@std@@@std@@@2@@Z 1005b160 f i multi_combo_box.obj
 0001:0005a160       ?_Assign_grow@?$_Hash_vec@V?$allocator@V?$_List_unchecked_iterator@V?$_List_val@U?$_List_simple_types@U?$pair@QBD_N@std@@@std@@@std@@@std@@@std@@@std@@QAEXIV?$_List_unchecked_iterator@V?$_List_val@U?$_List_simple_types@U?$pair@QBD_N@std@@@std@@@std@@@2@@Z 1005b160 f i button.obj
 0001:0005a250       ??$__builtin_array_init_helper@Uanim_player_t@c_animation_fix@@@@YAXPAUanim_player_t@c_animation_fix@@I@Z 1005b250 f i dllmain.obj
 0001:0005a520       ??$sleep_until@Usteady_clock@chrono@std@@V?$duration@_JU?$ratio@$00$0DLJKMKAA@@std@@@23@@this_thread@std@@YAXABV?$time_point@Usteady_clock@chrono@std@@V?$duration@_JU?$ratio@$00$0DLJKMKAA@@std@@@23@@chrono@1@@Z 1005b520 f i dllmain.obj
 0001:0005a630       ??$fill@PAV?$_List_unchecked_iterator@V?$_List_val@U?$_List_simple_types@U?$pair@$$CBKM@std@@@std@@@std@@@std@@V12@@std@@YAXQAV?$_List_unchecked_iterator@V?$_List_val@U?$_List_simple_types@U?$pair@$$CBKM@std@@@std@@@std@@@0@0ABV10@@Z 1005b630 f i dllmain.obj
 0001:0005a630       ??$fill@PAV?$_List_unchecked_iterator@V?$_List_val@U?$_List_simple_types@U?$pair@$$CBKUnade_path_t@c_grenade_warning@@@std@@@std@@@std@@@std@@V12@@std@@YAXQAV?$_List_unchecked_iterator@V?$_List_val@U?$_List_simple_types@U?$pair@$$CBKUnade_path_t@c_grenade_warning@@@std@@@std@@@std@@@0@0ABV10@@Z 1005b630 f i dllmain.obj
 0001:0005a630       ??$fill@PAV?$_List_unchecked_iterator@V?$_List_val@U?$_List_simple_types@U?$pair@QBDUcolor_picker_info_t@@@std@@@std@@@std@@@std@@V12@@std@@YAXQAV?$_List_unchecked_iterator@V?$_List_val@U?$_List_simple_types@U?$pair@QBDUcolor_picker_info_t@@@std@@@std@@@std@@@0@0ABV10@@Z 1005b630 f i color_picker.obj
 0001:0005a630       ??$fill@PAV?$_List_unchecked_iterator@V?$_List_val@U?$_List_simple_types@U?$pair@QBDUcombo_info_t@@@std@@@std@@@std@@@std@@V12@@std@@YAXQAV?$_List_unchecked_iterator@V?$_List_val@U?$_List_simple_types@U?$pair@QBDUcombo_info_t@@@std@@@std@@@std@@@0@0ABV10@@Z 1005b630 f i combo_box.obj
 0001:0005a630       ??$fill@PAV?$_List_unchecked_iterator@V?$_List_val@U?$_List_simple_types@U?$pair@QBDUmulti_combo_info_t@@@std@@@std@@@std@@@std@@V12@@std@@YAXQAV?$_List_unchecked_iterator@V?$_List_val@U?$_List_simple_types@U?$pair@QBDUmulti_combo_info_t@@@std@@@std@@@std@@@0@0ABV10@@Z 1005b630 f i multi_combo_box.obj
 0001:0005a630       ??$fill@PAV?$_List_unchecked_iterator@V?$_List_val@U?$_List_simple_types@U?$pair@QBD_N@std@@@std@@@std@@@std@@V12@@std@@YAXQAV?$_List_unchecked_iterator@V?$_List_val@U?$_List_simple_types@U?$pair@QBD_N@std@@@std@@@std@@@0@0ABV10@@Z 1005b630 f i button.obj
 0001:0005a6a0       ??$__builtin_array_init_helper@Uesp_objects_t@@@@YAXPAUesp_objects_t@@I@Z 1005b6a0 f i dllmain.obj
 0001:0005a710       ??$__builtin_array_init_helper@Vc_animation_layers@@@@YAXPAVc_animation_layers@@I@Z 1005b710 f i dllmain.obj
 0001:0005a788       ??_E?$basic_ofstream@DU?$char_traits@D@std@@@std@@$4PPPPPPPM@A@AEPAXI@Z 1005b788 f i dllmain.obj
 0001:0005a790       ?should_hit_entity@c_trace_filter_world_and_props_only@@UAE_NPAVc_baseentity@@H@Z 1005b790 f i local_player_visuals.obj
 0001:0005a790       ?should_hit_entity@c_trace_filter_world_only@@UAE_NPAVc_baseentity@@H@Z 1005b790 f i anti_aim.obj
 0001:0005a7a0       ?get_config@c_anti_aim@@QAEPAUanti_aim_angles_t@@XZ 1005b7a0 f   anti_aim.obj
 0001:0005a910       ?get_closest_player@c_anti_aim@@QAEPAVc_csplayer@@_N0@Z 1005b910 f   anti_aim.obj
 0001:0005ade0       ?is_peeking@c_anti_aim@@QAE_NXZ 1005bde0 f   anti_aim.obj
 0001:0005b570       ?automatic_edge@c_anti_aim@@AAEXXZ 1005c570 f   anti_aim.obj
 0001:0005bc30       ?on_pre_predict@c_anti_aim@@QAEXXZ 1005cc30 f   anti_aim.obj
 0001:0005bf60       ?on_predict_start@c_anti_aim@@QAEXXZ 1005cf60 f   anti_aim.obj
 0001:0005c850       ?on_predict_end@c_anti_aim@@QAEXXZ 1005d850 f   anti_aim.obj
 0001:0005c8d0       ??A?$array@Uanti_aim_angles_t@@$02@std@@QAEAAUanti_aim_angles_t@@I@Z 1005d8d0 f i anti_aim.obj
 0001:0005c8e0       ?should_shift_cmd@c_exploits@@QAE_NPAH0PAXH1HH@Z 1005d8e0 f   exploits.obj
 0001:0005cb90       ?recharging@c_exploits@@QAE_NPAVc_usercmd@@@Z 1005db90 f   exploits.obj
 0001:0005cbf0       ?double_tap@c_exploits@@QAEXXZ 1005dbf0 f   exploits.obj
 0001:0005d1b0       ?hide_shots@c_exploits@@QAEXXZ 1005e1b0 f   exploits.obj
 0001:0005d3f0       ?get_max_choke@c_fake_lag@@AAEHXZ 1005e3f0 f   fake_lag.obj
 0001:0005d4a0       ?bypass_choke_limit@c_fake_lag@@AAEXXZ 1005e4a0 f   fake_lag.obj
 0001:0005d690       ?get_choke_amount@c_fake_lag@@QAEHXZ 1005e690 f   fake_lag.obj
 0001:0005d810       ?on_predict_end@c_fake_lag@@QAEXXZ 1005e810 f   fake_lag.obj
 0001:0005da80       ?_Growmap@?$deque@HV?$allocator@H@std@@@std@@AAEXI@Z 1005ea80 f i fake_lag.obj
 0001:0005dc30       ?_Growmap@?$deque@Uchoked_ticks_t@@V?$allocator@Uchoked_ticks_t@@@std@@@std@@AAEXI@Z 1005ec30 f i fake_lag.obj
 0001:0005dc30       ?_Growmap@?$deque@Ucommands_t@@V?$allocator@Ucommands_t@@@std@@@std@@AAEXI@Z 1005ec30 f i fake_lag.obj
 0001:0005ddd0       ?to_string@std@@YA?AV?$basic_string@DU?$char_traits@D@std@@V?$allocator@D@2@@1@H@Z 1005edd0 f i config_system.obj
 0001:0005de70       ?save_clr@@YAXAAVValue@Json@@V?$basic_string@DU?$char_traits@D@std@@V?$allocator@D@2@@std@@PAVcolor@@@Z 1005ee70 f i config_system.obj
 0001:0005e280       ?save_bind@@YAXAAVValue@Json@@V?$basic_string@DU?$char_traits@D@std@@V?$allocator@D@2@@std@@ABUkey_binds_t@@@Z 1005f280 f i config_system.obj
 0001:0005e4b0       ?load_uint@@YAXABVValue@Json@@V?$basic_string@DU?$char_traits@D@std@@V?$allocator@D@2@@std@@AAI@Z 1005f4b0 f i config_system.obj
 0001:0005e580       ?load_clr@@YAXABVValue@Json@@V?$basic_string@DU?$char_traits@D@std@@V?$allocator@D@2@@std@@AAVcolor@@@Z 1005f580 f i config_system.obj
 0001:0005e900       ?load_bind@@YAXAAVValue@Json@@V?$basic_string@DU?$char_traits@D@std@@V?$allocator@D@2@@std@@AAUkey_binds_t@@@Z 1005f900 f i config_system.obj
 0001:0005eae0       ?load_int@@YAXABVValue@Json@@V?$basic_string@DU?$char_traits@D@std@@V?$allocator@D@2@@std@@AAH@Z 1005fae0 f i config_system.obj
 0001:0005ebb0       ?load_bool@@YAXABVValue@Json@@V?$basic_string@DU?$char_traits@D@std@@V?$allocator@D@2@@std@@AA_N@Z 1005fbb0 f i config_system.obj
 0001:0005ec80       ?load_float@@YAXABVValue@Json@@V?$basic_string@DU?$char_traits@D@std@@V?$allocator@D@2@@std@@AAM@Z 1005fc80 f i config_system.obj
 0001:0005ed50       ?is_dir@@YA_NPBD@Z         1005fd50 f i config_system.obj
 0001:0005eef0       ??_D?$basic_ifstream@DU?$char_traits@D@std@@@std@@QAEXXZ 1005fef0 f i config_system.obj
 0001:0005ef50       ?create_config_folder@config@@YAXXZ 1005ff50 f   config_system.obj
 0001:0005f2a0       ?save@config@@YAXABV?$basic_string@DU?$char_traits@D@std@@V?$allocator@D@2@@std@@@Z 100602a0 f   config_system.obj
 0001:00065b60       ?load@config@@YAXABV?$basic_string@DU?$char_traits@D@std@@V?$allocator@D@2@@std@@@Z 10066b60 f   config_system.obj
 0001:0006ac60       ??_D?$basic_stringstream@DU?$char_traits@D@std@@V?$allocator@D@2@@std@@QAEXXZ 1006bc60 f i config_system.obj
 0001:0006acf0       ??0?$basic_stringstream@DU?$char_traits@D@std@@V?$allocator@D@2@@std@@QAE@XZ 1006bcf0 f i config_system.obj
 0001:0006ade0       ??0?$basic_ofstream@DU?$char_traits@D@std@@@std@@QAE@ABV?$basic_string@DU?$char_traits@D@std@@V?$allocator@D@2@@1@HH@Z 1006bde0 f i config_system.obj
 0001:0006aed0       ??B?$c_xor_string@$00@@QBE?AV?$basic_string@DU?$char_traits@D@std@@V?$allocator@D@2@@std@@XZ 1006bed0 f i config_system.obj
 0001:0006af40       ??0?$basic_ifstream@DU?$char_traits@D@std@@@std@@QAE@ABV?$basic_string@DU?$char_traits@D@std@@V?$allocator@D@2@@1@HH@Z 1006bf40 f i config_system.obj
 0001:0006b030       ??B?$c_xor_string@$01@@QBE?AV?$basic_string@DU?$char_traits@D@std@@V?$allocator@D@2@@std@@XZ 1006c030 f i config_system.obj
 0001:0006b130       ??A?$array@Uesp_t@visuals_t@configs_t@@$01@std@@QAEAAUesp_t@visuals_t@configs_t@@I@Z 1006c130 f i config_system.obj
 0001:0006b150       ??A?$array@Uweapon_config_t@@$05@std@@QAEAAUweapon_config_t@@I@Z 1006c150 f i config_system.obj
 0001:0006b170       ??_E?$basic_stringstream@DU?$char_traits@D@std@@V?$allocator@D@2@@std@@UAEPAXI@Z 1006c170 f i * CIL library *:* CIL module *
 0001:0006b170       ??_G?$basic_stringstream@DU?$char_traits@D@std@@V?$allocator@D@2@@std@@UAEPAXI@Z 1006c170 f i config_system.obj
 0001:0006b1a0       ??_E?$basic_iostream@DU?$char_traits@D@std@@@std@@UAEPAXI@Z 1006c1a0 f i * CIL library *:* CIL module *
 0001:0006b1a0       ??_G?$basic_iostream@DU?$char_traits@D@std@@@std@@UAEPAXI@Z 1006c1a0 f i config_system.obj
 0001:0006b220       ??_E?$basic_ifstream@DU?$char_traits@D@std@@@std@@UAEPAXI@Z 1006c220 f i * CIL library *:* CIL module *
 0001:0006b220       ??_G?$basic_ifstream@DU?$char_traits@D@std@@@std@@UAEPAXI@Z 1006c220 f i config_system.obj
 0001:0006b250       ?open@?$basic_filebuf@DU?$char_traits@D@std@@@std@@QAEPAV12@PBDHH@Z 1006c250 f i config_system.obj
 0001:0006b2d0       ??$?0V?$istreambuf_iterator@DU?$char_traits@D@std@@@std@@$0A@@?$basic_string@DU?$char_traits@D@std@@V?$allocator@D@2@@std@@QAE@V?$istreambuf_iterator@DU?$char_traits@D@std@@@1@0ABV?$allocator@D@1@@Z 1006c2d0 f i config_system.obj
 0001:0006b350       ??$?HDU?$char_traits@D@std@@V?$allocator@D@1@@std@@YA?AV?$basic_string@DU?$char_traits@D@std@@V?$allocator@D@2@@0@ABV10@QBD@Z 1006c350 f i config_system.obj
 0001:0006b3b0       ??$?HDU?$char_traits@D@std@@V?$allocator@D@1@@std@@YA?AV?$basic_string@DU?$char_traits@D@std@@V?$allocator@D@2@@0@ABV10@0@Z 1006c3b0 f i config_system.obj
 0001:0006b410       ??$?HDU?$char_traits@D@std@@V?$allocator@D@1@@std@@YA?AV?$basic_string@DU?$char_traits@D@std@@V?$allocator@D@2@@0@$$QAV10@0@Z 1006c410 f i config_system.obj
 0001:0006b430       ??0?$basic_string@DU?$char_traits@D@std@@V?$allocator@D@2@@std@@QAE@U_String_constructor_concat_tag@1@AAV01@1@Z 1006c430 f i config_system.obj
 0001:0006b610       ??$_Construct_from_iter@V?$istreambuf_iterator@DU?$char_traits@D@std@@@std@@V12@$$T@?$basic_string@DU?$char_traits@D@std@@V?$allocator@D@2@@std@@AAEXV?$istreambuf_iterator@DU?$char_traits@D@std@@@1@V21@$$T@Z 1006c610 f i config_system.obj
 0001:0006b813       ??_E?$basic_stringstream@DU?$char_traits@D@std@@V?$allocator@D@2@@std@@$4PPPPPPPM@A@AEPAXI@Z 1006c813 f i config_system.obj
 0001:0006b81b       ??_E?$basic_ifstream@DU?$char_traits@D@std@@@std@@$4PPPPPPPM@A@AEPAXI@Z 1006c81b f i config_system.obj
 0001:0006b823       ??_E?$basic_iostream@DU?$char_traits@D@std@@@std@@$4PPPPPPPM@A@AEPAXI@Z 1006c823 f i config_system.obj
 0001:0006b830       ?did_hit@c_game_trace@@QBE_NXZ 1006c830 f i utils.obj
 0001:0006b850       ?update_shot_time@c_utils@@QAEXXZ 1006c850 f   utils.obj
 0001:0006bb00       ?extrapolate@c_utils@@QAEXPAVc_csplayer@@AAVvector3d@@1AAH_N@Z 1006cb00 f   utils.obj
 0001:0006c0d0       ?clantag@c_utils@@QAEXXZ   1006d0d0 f   utils.obj
 0001:0006c4b0       ?buybot@c_utils@@QAEXXZ    1006d4b0 f   utils.obj
 0001:0006cc60       ?update_viewmodel_sequence@c_utils@@QAEXPAVc_usercmd@@_N@Z 1006dc60 f   utils.obj
 0001:0006ce50       ?update_mouse_delta@c_utils@@QAEXXZ 1006de50 f   utils.obj
 0001:0006d080       ?auto_revolver@c_utils@@QAEXXZ 1006e080 f   utils.obj
 0001:0006d560       ?auto_pistol@c_utils@@QAEXXZ 1006e560 f   utils.obj
 0001:0006d980       ?is_able_to_shoot@c_utils@@QAE_N_N@Z 1006e980 f   utils.obj
 0001:0006dde0       ?is_firing@c_utils@@QAE_NXZ 1006ede0 f   utils.obj
 0001:0006e100       ?on_pre_predict@c_utils@@QAEXXZ 1006f100 f   utils.obj
 0001:0006e190       ?on_predict_start@c_utils@@QAEXXZ 1006f190 f   utils.obj
 0001:0006e310       ?force_stop@c_movement@@QAEXXZ 1006f310 f   movement.obj
 0001:0006e830       ?auto_strafe@c_movement@@AAEXXZ 1006f830 f   movement.obj
 0001:0006ef20       ?force_speed@c_movement@@QAEXM@Z 1006ff20 f   movement.obj
 0001:0006f090       ?fix_movement@c_movement@@QAEXPAVc_usercmd@@AAVvector3d@@@Z 10070090 f   movement.obj
 0001:0006f380       ?on_pre_predict@c_movement@@QAEXXZ 10070380 f   movement.obj
 0001:0006f5d0       ?on_predict_start@c_movement@@QAEXXZ 100705d0 f   movement.obj
 0001:0006f850       _sprintf_s                 10070850 f i world_modulation.obj
 0001:0006f890       ?skybox_changer@c_world_modulation@@AAEXXZ 10070890 f   world_modulation.obj
 0001:0006fa90       ?fog_changer@c_world_modulation@@AAEXXZ 10070a90 f   world_modulation.obj
 0001:0006fc80       ?reset@player_info_t@c_esp_store@@QAEX_N@Z 10070c80 f i listener_entity.obj
 0001:0006fe30       ?on_entity_created@c_listener_entity@@UAEXPAVc_baseentity@@@Z 10070e30 f   listener_entity.obj
 0001:0006ffc0       ?on_entity_deleted@c_listener_entity@@UAEXPAVc_baseentity@@@Z 10070fc0 f   listener_entity.obj
 0001:00070230       ?init_entities@c_listener_entity@@QAEXXZ 10071230 f   listener_entity.obj
 0001:00070320       ?erase@?$_Hash@V?$_Umap_traits@KUnade_path_t@c_grenade_warning@@V?$_Uhash_compare@KU?$hash@K@std@@U?$equal_to@K@2@@std@@V?$allocator@U?$pair@$$CBKUnade_path_t@c_grenade_warning@@@std@@@4@$0A@@std@@@std@@QAEIABK@Z 10071320 f i listener_entity.obj
 0001:000703f0       ??$_Find_last@K@?$_Hash@V?$_Umap_traits@KUnade_path_t@c_grenade_warning@@V?$_Uhash_compare@KU?$hash@K@std@@U?$equal_to@K@2@@std@@V?$allocator@U?$pair@$$CBKUnade_path_t@c_grenade_warning@@@std@@@4@$0A@@std@@@std@@IBE?AU?$_Hash_find_last_result@PAU?$_List_node@U?$pair@$$CBKUnade_path_t@c_grenade_warning@@@std@@PAX@std@@@1@ABKI@Z 100713f0 f i listener_entity.obj
 0001:000703f0       ??$_Find_last@PBD@?$_Hash@V?$_Umap_traits@PBD_NV?$_Uhash_compare@PBDU?$hash@PBD@std@@U?$equal_to@PBD@2@@std@@V?$allocator@U?$pair@QBD_N@std@@@2@$0A@@std@@@std@@IBE?AU?$_Hash_find_last_result@PAU?$_List_node@U?$pair@QBD_N@std@@PAX@std@@@1@ABQBDI@Z 100713f0 f i button.obj
 0001:00070460       ??$_Emplace_reallocate@AAPAVc_baseentity@@@?$vector@Ulistened_entity_t@@V?$allocator@Ulistened_entity_t@@@std@@@std@@AAEPAUlistened_entity_t@@QAU2@AAPAVc_baseentity@@@Z 10071460 f i listener_entity.obj
 0001:00070660       ??$construct@Ulistened_entity_t@@AAPAVc_baseentity@@@?$_Default_allocator_traits@V?$allocator@Ulistened_entity_t@@@std@@@std@@SAXAAV?$allocator@Ulistened_entity_t@@@1@QAUlistened_entity_t@@AAPAVc_baseentity@@@Z 10071660 f i listener_entity.obj
 0001:000706a0       ??$_Uninitialized_move@PAUlistened_entity_t@@V?$allocator@Ulistened_entity_t@@@std@@@std@@YAPAUlistened_entity_t@@QAU1@0PAU1@AAV?$allocator@Ulistened_entity_t@@@0@@Z 100716a0 f i listener_entity.obj
 0001:000706e0       ?fire_game_event@c_event_listener@@UAEXPAVc_game_event@@@Z 100716e0 f   listener_event.obj
 0001:000708a0       ?init_events@c_event_listener@@QAEXXZ 100718a0 f   listener_event.obj
 0001:000708e0       ?button@@YAXPBDHHP6AXXZ_N@Z 100718e0 f   button.obj
 0001:00070b50       ??A?$unordered_map@PBD_NU?$hash@PBD@std@@U?$equal_to@PBD@2@V?$allocator@U?$pair@QBD_N@std@@@2@@std@@QAEAA_NABQBD@Z 10071b50 f i button.obj
 0001:00070b70       ??$_Try_emplace@ABQBD$$V@?$_Hash@V?$_Umap_traits@PBD_NV?$_Uhash_compare@PBDU?$hash@PBD@std@@U?$equal_to@PBD@2@@std@@V?$allocator@U?$pair@QBD_N@std@@@2@$0A@@std@@@std@@IAE?AU?$pair@PAU?$_List_node@U?$pair@QBD_N@std@@PAX@std@@_N@1@ABQBD@Z 10071b70 f i button.obj
 0001:00070d20       ?_Forced_rehash@?$_Hash@V?$_Umap_traits@KMV?$_Uhash_compare@KU?$hash@K@std@@U?$equal_to@K@2@@std@@V?$allocator@U?$pair@$$CBKM@std@@@2@$0A@@std@@@std@@IAEXI@Z 10071d20 f i grenade_warning.obj
 0001:00070d20       ?_Forced_rehash@?$_Hash@V?$_Umap_traits@KUnade_path_t@c_grenade_warning@@V?$_Uhash_compare@KU?$hash@K@std@@U?$equal_to@K@2@@std@@V?$allocator@U?$pair@$$CBKUnade_path_t@c_grenade_warning@@@std@@@4@$0A@@std@@@std@@IAEXI@Z 10071d20 f i grenade_warning.obj
 0001:00070d20       ?_Forced_rehash@?$_Hash@V?$_Umap_traits@PBD_NV?$_Uhash_compare@PBDU?$hash@PBD@std@@U?$equal_to@PBD@2@@std@@V?$allocator@U?$pair@QBD_N@std@@@2@$0A@@std@@@std@@IAEXI@Z 10071d20 f i button.obj
 0001:00070e90       ??$_Invoke@V?$tuple@P6AXXZ@std@@$0A@@thread@std@@CGIPAX@Z 10071e90 f i button.obj
 0001:00070ec0       ?checkbox@@YAXPBDPA_NH_N@Z 10071ec0 f   checkbox.obj
 0001:00071040       ?manage_alpha@color@@QAE?AV1@H@Z 10072040 f i color_picker.obj
 0001:00071070       ?get_hue@color@@QAEMXZ     10072070 f i color_picker.obj
 0001:00071150       ??1?$_Hash@V?$_Umap_traits@PBDUcolor_picker_info_t@@V?$_Uhash_compare@PBDU?$hash@PBD@std@@U?$equal_to@PBD@2@@std@@V?$allocator@U?$pair@QBDUcolor_picker_info_t@@@std@@@3@$0A@@std@@@std@@QAE@XZ 10072150 f i color_picker.obj
 0001:000711a0       ?color_picker@@YAXPBDPAVcolor@@H_N2@Z 100721a0 f   color_picker.obj
 0001:000734a0       ??$_Try_emplace@ABQBD$$V@?$_Hash@V?$_Umap_traits@PBDUcolor_picker_info_t@@V?$_Uhash_compare@PBDU?$hash@PBD@std@@U?$equal_to@PBD@2@@std@@V?$allocator@U?$pair@QBDUcolor_picker_info_t@@@std@@@3@$0A@@std@@@std@@IAE?AU?$pair@PAU?$_List_node@U?$pair@QBDUcolor_picker_info_t@@@std@@PAX@std@@_N@1@ABQBD@Z 100744a0 f i color_picker.obj
 0001:00073670       ?_Forced_rehash@?$_Hash@V?$_Umap_traits@PBDUcolor_picker_info_t@@V?$_Uhash_compare@PBDU?$hash@PBD@std@@U?$equal_to@PBD@2@@std@@V?$allocator@U?$pair@QBDUcolor_picker_info_t@@@std@@@3@$0A@@std@@@std@@IAEXI@Z 10074670 f i color_picker.obj
 0001:000737f0       ??$_Find_last@PBD@?$_Hash@V?$_Umap_traits@PBDUcolor_picker_info_t@@V?$_Uhash_compare@PBDU?$hash@PBD@std@@U?$equal_to@PBD@2@@std@@V?$allocator@U?$pair@QBDUcolor_picker_info_t@@@std@@@3@$0A@@std@@@std@@IBE?AU?$_Hash_find_last_result@PAU?$_List_node@U?$pair@QBDUcolor_picker_info_t@@@std@@PAX@std@@@1@ABQBDI@Z 100747f0 f i color_picker.obj
 0001:00073860       ?combo_box@@YA_NPBDPAHHABV?$vector@PBDV?$allocator@PBD@std@@@std@@_N@Z 10074860 f   combo_box.obj
 0001:00073cd0       ??$_Try_emplace@ABQBD$$V@?$_Hash@V?$_Umap_traits@PBDUcombo_info_t@@V?$_Uhash_compare@PBDU?$hash@PBD@std@@U?$equal_to@PBD@2@@std@@V?$allocator@U?$pair@QBDUcombo_info_t@@@std@@@3@$0A@@std@@@std@@IAE?AU?$pair@PAU?$_List_node@U?$pair@QBDUcombo_info_t@@@std@@PAX@std@@_N@1@ABQBD@Z 10074cd0 f i combo_box.obj
 0001:00073ea0       ?_Forced_rehash@?$_Hash@V?$_Umap_traits@PBDUcombo_info_t@@V?$_Uhash_compare@PBDU?$hash@PBD@std@@U?$equal_to@PBD@2@@std@@V?$allocator@U?$pair@QBDUcombo_info_t@@@std@@@3@$0A@@std@@@std@@IAEXI@Z 10074ea0 f i combo_box.obj
 0001:00074020       ??$_Find_last@PBD@?$_Hash@V?$_Umap_traits@PBDUcombo_info_t@@V?$_Uhash_compare@PBDU?$hash@PBD@std@@U?$equal_to@PBD@2@@std@@V?$allocator@U?$pair@QBDUcombo_info_t@@@std@@@3@$0A@@std@@@std@@IBE?AU?$_Hash_find_last_result@PAU?$_List_node@U?$pair@QBDUcombo_info_t@@@std@@PAX@std@@@1@ABQBDI@Z 10075020 f i combo_box.obj
 0001:00074090       ??0?$vector@PBDV?$allocator@PBD@std@@@std@@QAE@V?$initializer_list@PBD@1@ABV?$allocator@PBD@1@@Z 10075090 f i keybind.obj
 0001:00074160       ?multi_combo_box@@YA_NPBDPAIHABV?$vector@PBDV?$allocator@PBD@std@@@std@@_N@Z 10075160 f   multi_combo_box.obj
 0001:00074610       ??$_Try_emplace@ABQBD$$V@?$_Hash@V?$_Umap_traits@PBDUmulti_combo_info_t@@V?$_Uhash_compare@PBDU?$hash@PBD@std@@U?$equal_to@PBD@2@@std@@V?$allocator@U?$pair@QBDUmulti_combo_info_t@@@std@@@3@$0A@@std@@@std@@IAE?AU?$pair@PAU?$_List_node@U?$pair@QBDUmulti_combo_info_t@@@std@@PAX@std@@_N@1@ABQBD@Z 10075610 f i multi_combo_box.obj
 0001:000747d0       ?_Forced_rehash@?$_Hash@V?$_Umap_traits@PBDUmulti_combo_info_t@@V?$_Uhash_compare@PBDU?$hash@PBD@std@@U?$equal_to@PBD@2@@std@@V?$allocator@U?$pair@QBDUmulti_combo_info_t@@@std@@@3@$0A@@std@@@std@@IAEXI@Z 100757d0 f i multi_combo_box.obj
 0001:00074950       ??$_Find_last@PBD@?$_Hash@V?$_Umap_traits@PBDUmulti_combo_info_t@@V?$_Uhash_compare@PBDU?$hash@PBD@std@@U?$equal_to@PBD@2@@std@@V?$allocator@U?$pair@QBDUmulti_combo_info_t@@@std@@@3@$0A@@std@@@std@@IBE?AU?$_Hash_find_last_result@PAU?$_List_node@U?$pair@QBDUmulti_combo_info_t@@@std@@PAX@std@@@1@ABQBDI@Z 10075950 f i multi_combo_box.obj
 0001:000749c0       ?visuals_tab@@YAXXZ        100759c0 f   menu.obj
 0001:00074c50       ?misc_tab@@YAXXZ           10075c50 f   menu.obj
 0001:00074e90       ?draw_menu@@YAXXZ          10075e90 f   menu.obj
 0001:00075470       ?invalidate_bone_cache@c_csplayer@@QAEXXZ 10076470 f i animfix.obj
 0001:00075560       ?simulate_animation_side@anim_player_t@c_animation_fix@@QAEXPAUrecords_t@@@Z 10076560 f   animfix.obj
 0001:00075c20       ?is_valid@records_t@@QAE_NXZ 10076c20 f   animfix.obj
 0001:00075da0       ?update_animations@anim_player_t@c_animation_fix@@QAEXXZ 10076da0 f   animfix.obj
 0001:00076d80       ?on_update_anims@c_animation_fix@@QAEXPAVc_csplayer@@@Z 10077d80 f   animfix.obj
 0001:00076ff0       ?on_net_update_end@c_animation_fix@@QAEXH@Z 10077ff0 f   animfix.obj
 0001:00077750       ?_Growmap@?$deque@Urecords_t@@V?$allocator@Urecords_t@@@std@@@std@@AAEXI@Z 10078750 f i animfix.obj
 0001:00077900       ??0records_t@@QAE@XZ       10078900 f i animfix.obj
 0001:00077b70       ?is_breakable_entity@c_auto_wall@@QAE_NPAVc_baseentity@@@Z 10078b70 f   autowall.obj
 0001:00077bf0       ?can_hit_point@c_auto_wall@@QAE_NPAVc_csplayer@@ABVvector3d@@1H0PAH@Z 10078bf0 f   autowall.obj
 0001:00077da0       ?trace_to_exit@c_auto_wall@@AAE_NABVvector3d@@0ABVc_game_trace@@AAV3@@Z 10078da0 f   autowall.obj
 0001:000780d0       ?clip_trace_to_player@c_auto_wall@@AAEXABVvector3d@@0AAVc_game_trace@@QAVc_csplayer@@@Z 100790d0 f   autowall.obj
 0001:000784e0       ?handle_bullet_penetration@c_auto_wall@@AAE_NQAVc_csplayer@@QBUweapon_info_t@@ABVc_game_trace@@AAVvector3d@@ABV5@AAHAAMM@Z 100794e0 f   autowall.obj
 0001:00078820       ?fire_bullet@c_auto_wall@@QAE?AUpen_data_t@@QAVc_csplayer@@0QBUweapon_info_t@@_NVvector3d@@ABV5@_N@Z 10079820 f   autowall.obj
 0001:00078ff0       ?net_compress_store@c_engine_prediction@@QAEXH@Z 10079ff0 f   engine_prediction.obj
 0001:00079560       ?net_compress_apply@c_engine_prediction@@QAEXH@Z 1007a560 f   engine_prediction.obj
 0001:00079b80       ?init@c_engine_prediction@@QAEXXZ 1007ab80 f   engine_prediction.obj
 0001:00079ba0       ?start@c_engine_prediction@@QAEXPAVc_csplayer@@PAVc_usercmd@@@Z 1007aba0 f   engine_prediction.obj
 0001:00079f60       ?force_update_eyepos@c_engine_prediction@@QAEXABM@Z 1007af60 f   engine_prediction.obj
 0001:0007a230       ?repredict@c_engine_prediction@@QAEXPAVc_csplayer@@PAVc_usercmd@@_N@Z 1007b230 f   engine_prediction.obj
 0001:0007a440       ?update_fake@c_local_animation_fix@@AAEXXZ 1007b440 f   local_animfix.obj
 0001:0007a840       ?update_strafe_state@c_local_animation_fix@@AAEXXZ 1007b840 f   local_animfix.obj
 0001:0007aab0       ?on_predict_end@c_local_animation_fix@@QAEXXZ 1007bab0 f   local_animfix.obj
 0001:0007afb0       ?on_update_anims@c_local_animation_fix@@QAEXPAVc_csplayer@@@Z 1007bfb0 f   local_animfix.obj
 0001:0007b1f0       ?add_shot_record@c_rage_bot@@AAEXPAVc_csplayer@@ABUpoint_t@@@Z 1007c1f0 f   missed_shot_handler.obj
 0001:0007c460       ??0aim_shot_record_t@@QAE@XZ 1007d460 f i missed_shot_handler.obj
 0001:0007c7d0       ?on_game_events@c_rage_bot@@QAEXPAVc_game_event@@@Z 1007d7d0 f   missed_shot_handler.obj
 0001:0007d980       ?on_pre_predict@c_rage_bot@@QAEXXZ 1007e980 f   missed_shot_handler.obj
 0001:0007dc60       ?erase@?$vector@Uaim_shot_record_t@@V?$allocator@Uaim_shot_record_t@@@std@@@std@@QAE?AV?$_Vector_iterator@V?$_Vector_val@U?$_Simple_types@Uaim_shot_record_t@@@std@@@std@@@2@V?$_Vector_const_iterator@V?$_Vector_val@U?$_Simple_types@Uaim_shot_record_t@@@std@@@std@@@2@@Z 1007ec60 f i missed_shot_handler.obj
 0001:0007de40       ??$_Emplace_reallocate@AAUaim_shot_record_t@@@?$vector@Uaim_shot_record_t@@V?$allocator@Uaim_shot_record_t@@@std@@@std@@AAEPAUaim_shot_record_t@@QAU2@AAU2@@Z 1007ee40 f i missed_shot_handler.obj
 0001:0007e070       ??$_Uninitialized_move@PAUaim_shot_record_t@@V?$allocator@Uaim_shot_record_t@@@std@@@std@@YAPAUaim_shot_record_t@@QAU1@0PAU1@AAV?$allocator@Uaim_shot_record_t@@@0@@Z 1007f070 f i missed_shot_handler.obj
 0001:0007e0b0       ??0aim_shot_record_t@@QAE@ABU0@@Z 1007f0b0 f i missed_shot_handler.obj
 0001:0007e190       ??0aim_shot_record_t@@QAE@$$QAU0@@Z 1007f190 f i missed_shot_handler.obj
 0001:0007e2c0       ?store@c_rage_bot@@QAEXPAVc_csplayer@@@Z 1007f2c0 f   ragebot.obj
 0001:0007e540       ?set_record@c_rage_bot@@QAEXPAVc_csplayer@@PAUrecords_t@@PAUmatrix3x4_t@@@Z 1007f540 f   ragebot.obj
 0001:0007e630       ?restore@c_rage_bot@@QAEXPAVc_csplayer@@@Z 1007f630 f   ragebot.obj
 0001:0007e750       ?get_hitboxes@c_rage_bot@@QAE?AV?$vector@HV?$allocator@H@std@@@std@@XZ 1007f750 f   ragebot.obj
 0001:0007eb90       ?get_min_damage@c_rage_bot@@QAEHPAVc_csplayer@@@Z 1007fb90 f   ragebot.obj
 0001:0007ec50       ?should_stop@c_rage_bot@@QAE_NXZ 1007fc50 f   ragebot.obj
 0001:0007ee30       ?auto_stop@c_rage_bot@@QAE_NXZ 1007fe30 f   ragebot.obj
 0001:0007f160       ?knife_bot@c_rage_bot@@AAEXXZ 10080160 f   ragebot.obj
 0001:0007fa70       ?get_record_damage@@YAHPAVc_csplayer@@PAUrecords_t@@@Z 10080a70 f   ragebot.obj
 0001:0007fbd0       ?get_best_record@@YAPAUrecords_t@@PAVc_csplayer@@@Z 10080bd0 f   ragebot.obj
 0001:0007fdc0       ?is_point_predictive@@YA_NPAVc_csplayer@@AAUpoint_t@@@Z 10080dc0 f   ragebot.obj
 0001:00080270       ?thread_build_points@@YAXPAUaim_cache_t@@@Z 10081270 f   ragebot.obj
 0001:00080510       ?thread_get_best_point@@YAXPAUaim_cache_t@@@Z 10081510 f   ragebot.obj
 0001:00080790       ?proceed_aimbot@c_rage_bot@@QAEXXZ 10081790 f   ragebot.obj
 0001:00081aa0       ?on_predict_start@c_rage_bot@@QAEXXZ 10082aa0 f   ragebot.obj
 0001:00081df0       ??$_Emplace_reallocate@H@?$vector@HV?$allocator@H@std@@@std@@AAEPAHQAH$$QAH@Z 10082df0 f i ragebot.obj
 0001:00081f60       ??$_Emplace_reallocate@AAUpoint_t@@@?$vector@Upoint_t@@V?$allocator@Upoint_t@@@std@@@std@@AAEPAUpoint_t@@QAU2@AAU2@@Z 10082f60 f i ragebot.obj
 0001:00082920       ??$_Uninitialized_move@PAUpoint_t@@V?$allocator@Upoint_t@@@std@@@std@@YAPAUpoint_t@@QAU1@0PAU1@AAV?$allocator@Upoint_t@@@0@@Z 10083920 f i ragebot.obj
 0001:000837c0       ?get_weapon_config@cheat_tools@@YA?AUweapon_config_t@@XZ 100847c0 f   rage_tools.obj
 0001:00083d20       ?hitbox_to_string@cheat_tools@@YA?AV?$basic_string@DU?$char_traits@D@std@@V?$allocator@D@2@@std@@H@Z 10084d20 f   rage_tools.obj
 0001:000842e0       ?hitgroup_to_string@cheat_tools@@YA?AV?$basic_string@DU?$char_traits@D@std@@V?$allocator@D@2@@std@@H@Z 100852e0 f   rage_tools.obj
 0001:00084680       ?calc_spread_angle@cheat_tools@@YA?AVvector2d@@HMH@Z 10085680 f   rage_tools.obj
 0001:000848a0       ?can_hit_hitbox_wrap@cheat_tools@@YA_NABVvector3d@@0PAVc_csplayer@@HPAUrecords_t@@PAUmatrix3x4_t@@@Z 100858a0 f   rage_tools.obj
 0001:00084d10       ?is_accuracy_valid@cheat_tools@@YA_NPAVc_csplayer@@AAUpoint_t@@MPAM@Z 10085d10 f   rage_tools.obj
 0001:000854b0       ?get_legit_tab@cheat_tools@@YAHPAVc_basecombatweapon@@@Z 100864b0 f   rage_tools.obj
 0001:00085810       ?get_multipoints@cheat_tools@@YA?AV?$vector@U?$pair@Vvector3d@@_N@std@@V?$allocator@U?$pair@Vvector3d@@_N@std@@@2@@std@@PAVc_csplayer@@HPAUmatrix3x4_t@@@Z 10086810 f   rage_tools.obj
 0001:000865b0       ?start@resolver@@YAXPAVc_csplayer@@PAUrecords_t@@@Z 100875b0 f   rage_tools.obj
 0001:000878d0       ??$_Emplace_reallocate@AAVvector3d@@_N@?$vector@U?$pair@Vvector3d@@_N@std@@V?$allocator@U?$pair@Vvector3d@@_N@std@@@2@@std@@AAEPAU?$pair@Vvector3d@@_N@1@QAU21@AAVvector3d@@$$QA_N@Z 100888d0 f i rage_tools.obj
 0001:000878d0       ??$_Emplace_reallocate@Vvector3d@@_N@?$vector@U?$pair@Vvector3d@@_N@std@@V?$allocator@U?$pair@Vvector3d@@_N@std@@@2@@std@@AAEPAU?$pair@Vvector3d@@_N@1@QAU21@$$QAVvector3d@@$$QA_N@Z 100888d0 f i rage_tools.obj
 0001:00087a10       ?_Change_array@?$vector@U?$pair@Vvector3d@@_N@std@@V?$allocator@U?$pair@Vvector3d@@_N@std@@@2@@std@@AAEXQAU?$pair@Vvector3d@@_N@2@II@Z 10088a10 f i rage_tools.obj
 0001:00087a70       ?allocate@?$allocator@U?$pair@Vvector3d@@_N@std@@@std@@QAEPAU?$pair@Vvector3d@@_N@2@I@Z 10088a70 f i rage_tools.obj
 0001:00087ad0       ?contact_transforms@matrix3x4_t@@QBE?AU1@U1@@Z 10088ad0 f i setup_bones_manager.obj
 0001:00087cf0       ?init_pose@bone_setup_t@@QAEXQAVvector3d@@QAVquaternion@@PAVc_studiohdr@@@Z 10088cf0 f i setup_bones_manager.obj
 0001:00087d80       ?merge_matching_poses@@YAXAAIPAM1@Z 10088d80 f   setup_bones_manager.obj
 0001:00087fb0       ?store@c_bone_builder@@QAEXPAVc_csplayer@@PAUmatrix3x4_t@@H@Z 10088fb0 f   setup_bones_manager.obj
 0001:000882e0       ?setup@c_bone_builder@@QAEXXZ 100892e0 f   setup_bones_manager.obj
 0001:000886e0       ?get_skeleton@c_bone_builder@@AAEXPAVvector3d@@PAVquaternion@@@Z 100896e0 f   setup_bones_manager.obj
 0001:000892a0       ?studio_build_matrices@c_bone_builder@@AAEXPAVc_studiohdr@@ABUmatrix3x4_t@@PAVvector3d@@PAVquaternion@@HPAU3@PAI@Z 1008a2a0 f   setup_bones_manager.obj
 0001:00089590       ?init_materials@c_chams@@QAEXXZ 1008a590 f   chams.obj
 0001:0008a5c0       ?draw_model@c_chams@@AAE_NAAUchams_t@@PAUmatrix3x4_t@@M_N@Z 1008b5c0 f   chams.obj
 0001:0008aa70       ?get_backtrack_matrix@c_chams@@AAE_NPAUmatrix3x4_t@@PAVc_csplayer@@AAM@Z 1008ba70 f   chams.obj
 0001:0008ae60       ?add_shot_record@c_chams@@QAEXPAVc_csplayer@@PAUmatrix3x4_t@@@Z 1008be60 f   chams.obj
 0001:0008b360       ?on_post_screen_effects@c_chams@@QAEXXZ 1008c360 f   chams.obj
 0001:0008ba70       ?should_draw@c_chams@@AAE_NXZ 1008ca70 f   chams.obj
 0001:0008c640       ?erase@?$vector@Ushot_record_t@c_chams@@V?$allocator@Ushot_record_t@c_chams@@@std@@@std@@QAE?AV?$_Vector_iterator@V?$_Vector_val@U?$_Simple_types@Ushot_record_t@c_chams@@@std@@@std@@@2@V?$_Vector_const_iterator@V?$_Vector_val@U?$_Simple_types@Ushot_record_t@c_chams@@@std@@@std@@@2@@Z 1008d640 f i chams.obj
 0001:0008c770       ??$_Emplace_reallocate@AAUshot_record_t@c_chams@@@?$vector@Ushot_record_t@c_chams@@V?$allocator@Ushot_record_t@c_chams@@@std@@@std@@AAEPAUshot_record_t@c_chams@@QAU23@AAU23@@Z 1008d770 f i chams.obj
 0001:0008c950       ??$_Uninitialized_move@PAUshot_record_t@c_chams@@V?$allocator@Ushot_record_t@c_chams@@@std@@@std@@YAPAUshot_record_t@c_chams@@QAU12@0PAU12@AAV?$allocator@Ushot_record_t@c_chams@@@0@@Z 1008d950 f i chams.obj
 0001:0008c990       ?lerp@std@@YAMMMM@Z        1008d990 f i esp_player.obj
 0001:0008cb50       ?render_main_esp@@YAXPAUplayer_info_t@c_esp_store@@@Z 1008db50 f   esp_player.obj
 0001:0008df70       ?render_offscreen_esp@@YAXPAUplayer_info_t@c_esp_store@@@Z 1008ef70 f   esp_player.obj
 0001:0008e300       ?get_weapon_name@c_basecombatweapon@@QAE?AV?$basic_string@DU?$char_traits@D@std@@V?$allocator@D@2@@std@@XZ 1008f300 f i esp_store.obj
 0001:0008e4b0       ?esp_strings@esp_renderer@@YAXAAUesp_box_t@@AAUesp_objects_t@@HAAM@Z 1008f4b0 f   esp_store.obj
 0001:0008e770       ?esp_bars@esp_renderer@@YAXAAUesp_box_t@@AAUesp_objects_t@@AAH@Z 1008f770 f   esp_store.obj
 0001:0008f2e0       ?get_esp_projectile_name@@YA?AV?$basic_string@DU?$char_traits@D@std@@V?$allocator@D@2@@std@@PAUmodel_t@@ABH@Z 100902e0 f   esp_store.obj
 0001:0008f590       ?get_bounding_box@@YA?AUesp_box_t@@PAVc_baseentity@@@Z 10090590 f   esp_store.obj
 0001:0008fd20       ?store_dormant@c_esp_store@@AAEXXZ 10090d20 f   esp_store.obj
 0001:00090370       ?store_players@c_esp_store@@AAEXXZ 10091370 f   esp_store.obj
 0001:00092380       ?store_weapons@c_esp_store@@AAEXXZ 10093380 f   esp_store.obj
 0001:00093b00       ?on_game_events@c_esp_store@@QAEXPAVc_game_event@@@Z 10094b00 f   esp_store.obj
 0001:00093d10       ?replace@?$basic_string@DU?$char_traits@D@std@@V?$allocator@D@2@@std@@QAEAAV12@IIQBDI@Z 10094d10 f i esp_store.obj
 0001:00093e70       ??$_Reallocate_grow_by@V<lambda_1>@?1??replace@?$basic_string@DU?$char_traits@D@std@@V?$allocator@D@2@@std@@QAEAAV34@IIQBDI@Z@IIPBDI@?$basic_string@DU?$char_traits@D@std@@V?$allocator@D@2@@std@@AAEAAV01@IV<lambda_1>@?1??replace@01@QAEAAV01@IIQBDI@Z@IIPBDI@Z 10094e70 f i esp_store.obj
 0001:00093ff0       ?render_weapon_esp@@YAXPAUworld_info_t@c_esp_store@@@Z 10094ff0 f   esp_weapon.obj
 0001:00094680       ?render_nade_range@@YAXMMABVvector3d@@ABVcolor@@PBDMMM@Z 10095680 f   esp_weapon.obj
 0001:00094ef0       ?on_directx@c_weapon_esp@@QAEXXZ 10095ef0 f   esp_weapon.obj
 0001:00095150       ?get_message_prefix_type@c_event_logger@@AAE?AU?$pair@V?$basic_string@DU?$char_traits@D@std@@V?$allocator@D@2@@std@@Vcolor@@@std@@H@Z 10096150 f   event_logger.obj
 0001:00095280       ?add_message@c_event_logger@@QAEXABV?$basic_string@DU?$char_traits@D@std@@V?$allocator@D@2@@std@@H_N@Z 10096280 f   event_logger.obj
 0001:00095510       ?on_directx@c_event_logger@@QAEXXZ 10096510 f   event_logger.obj
 0001:00095c70       ?erase@?$vector@Umessage_t@c_event_logger@@V?$allocator@Umessage_t@c_event_logger@@@std@@@std@@QAE?AV?$_Vector_iterator@V?$_Vector_val@U?$_Simple_types@Umessage_t@c_event_logger@@@std@@@std@@@2@V?$_Vector_const_iterator@V?$_Vector_val@U?$_Simple_types@Umessage_t@c_event_logger@@@std@@@std@@@2@@Z 10096c70 f i event_logger.obj
 0001:00095d20       ??$_Emplace_reallocate@$$V@?$vector@Umessage_t@c_event_logger@@V?$allocator@Umessage_t@c_event_logger@@@std@@@std@@AAEPAUmessage_t@c_event_logger@@QAU23@@Z 10096d20 f i event_logger.obj
 0001:00095f90       ??$_Uninitialized_move@PAUmessage_t@c_event_logger@@V?$allocator@Umessage_t@c_event_logger@@@std@@@std@@YAPAUmessage_t@c_event_logger@@QAU12@0PAU12@AAV?$allocator@Umessage_t@c_event_logger@@@0@@Z 10096f90 f i event_logger.obj
 0001:00096020       ?on_item_purchase@c_event_visuals@@AAEXPAVc_game_event@@@Z 10097020 f   event_visuals.obj
 0001:00096620       ?on_bomb_plant@c_event_visuals@@AAEXPAVc_game_event@@@Z 10097620 f   event_visuals.obj
 0001:00096d70       ?on_player_hurt@c_event_visuals@@AAEXPAVc_game_event@@@Z 10097d70 f   event_visuals.obj
 0001:00097460       ?on_bullet_impact@c_event_visuals@@AAEXPAVc_game_event@@@Z 10098460 f   event_visuals.obj
 0001:00097a30       ?draw_hitmarkers@c_event_visuals@@AAEXXZ 10098a30 f   event_visuals.obj
 0001:00098950       ?on_render_start@c_event_visuals@@QAEXH@Z 10099950 f   event_visuals.obj
 0001:00098f60       ??$_Emplace_reallocate@$$V@?$vector@Uhitmarker_t@@V?$allocator@Uhitmarker_t@@@std@@@std@@AAEPAUhitmarker_t@@QAU2@@Z 10099f60 f i event_visuals.obj
 0001:00099140       ??$_Emplace_reallocate@Ubullet_tracer_t@c_event_visuals@@@?$vector@Ubullet_tracer_t@c_event_visuals@@V?$allocator@Ubullet_tracer_t@c_event_visuals@@@std@@@std@@AAEPAUbullet_tracer_t@c_event_visuals@@QAU23@$$QAU23@@Z 1009a140 f i event_visuals.obj
 0001:00099350       ??$construct@Uhitmarker_t@@$$V@?$_Default_allocator_traits@V?$allocator@Uhitmarker_t@@@std@@@std@@SAXAAV?$allocator@Uhitmarker_t@@@1@QAUhitmarker_t@@@Z 1009a350 f i event_visuals.obj
 0001:000993c0       ??$_Uninitialized_move@PAUhitmarker_t@@V?$allocator@Uhitmarker_t@@@std@@@std@@YAPAUhitmarker_t@@QAU1@0PAU1@AAV?$allocator@Uhitmarker_t@@@0@@Z 1009a3c0 f i event_visuals.obj
 0001:000993f0       ??$_Uninitialized_move@PAUbullet_tracer_t@c_event_visuals@@V?$allocator@Ubullet_tracer_t@c_event_visuals@@@std@@@std@@YAPAUbullet_tracer_t@c_event_visuals@@QAU12@0PAU12@AAV?$allocator@Ubullet_tracer_t@c_event_visuals@@@0@@Z 1009a3f0 f i event_visuals.obj
 0001:00099430       ?on_post_screen_effects@c_glow_esp@@QAEXXZ 1009a430 f   glow.obj
 0001:00099990       ?get_projectile_name@@YA?AV?$basic_string@DU?$char_traits@D@std@@V?$allocator@D@2@@std@@PAUmodel_t@@ABH@Z 1009a990 f   grenade_warning.obj
 0001:00099c40       ?perform_fly_collision_resolution@nade_path_t@c_grenade_warning@@QAEXAAVc_game_trace@@@Z 1009ac40 f   grenade_warning.obj
 0001:0009a600       ?calc_nade_path@c_grenade_warning@@QAEXPAVc_csplayer@@@Z 1009b600 f   grenade_warning.obj
 0001:0009ac20       ?calc_local_nade_path@c_grenade_warning@@QAEXXZ 1009bc20 f   grenade_warning.obj
 0001:0009bd10       ?draw_local_path@c_grenade_warning@@QAEXXZ 1009cd10 f   grenade_warning.obj
 0001:0009c000       ?on_directx@c_grenade_warning@@QAEXXZ 1009d000 f   grenade_warning.obj
 0001:0009c9e0       ?at@?$unordered_map@KUnade_path_t@c_grenade_warning@@U?$hash@K@std@@U?$equal_to@K@4@V?$allocator@U?$pair@$$CBKUnade_path_t@c_grenade_warning@@@std@@@4@@std@@QAEAAUnade_path_t@c_grenade_warning@@ABK@Z 1009d9e0 f i grenade_warning.obj
 0001:0009ca60       ?clear@?$_Hash@V?$_Umap_traits@KUnade_path_t@c_grenade_warning@@V?$_Uhash_compare@KU?$hash@K@std@@U?$equal_to@K@2@@std@@V?$allocator@U?$pair@$$CBKUnade_path_t@c_grenade_warning@@@std@@@4@$0A@@std@@@std@@QAEXXZ 1009da60 f i grenade_warning.obj
 0001:0009caf0       ?_Unchecked_erase@?$_Hash@V?$_Umap_traits@KUnade_path_t@c_grenade_warning@@V?$_Uhash_compare@KU?$hash@K@std@@U?$equal_to@K@2@@std@@V?$allocator@U?$pair@$$CBKUnade_path_t@c_grenade_warning@@@std@@@4@$0A@@std@@@std@@AAEPAU?$_List_node@U?$pair@$$CBKUnade_path_t@c_grenade_warning@@@std@@PAX@2@PAU32@QAU32@@Z 1009daf0 f i grenade_warning.obj
 0001:0009cca0       ??$emplace@ABUpiecewise_construct_t@std@@V?$tuple@ABI@2@V?$tuple@$$QAPAVc_csplayer@@$$QAW4item_defenition_index_t@@AAVvector3d@@$$QAV3@AAM$$QAH@2@@?$_Hash@V?$_Umap_traits@KUnade_path_t@c_grenade_warning@@V?$_Uhash_compare@KU?$hash@K@std@@U?$equal_to@K@2@@std@@V?$allocator@U?$pair@$$CBKUnade_path_t@c_grenade_warning@@@std@@@4@$0A@@std@@@std@@QAE?AU?$pair@V?$_List_iterator@V?$_List_val@U?$_List_simple_types@U?$pair@$$CBKUnade_path_t@c_grenade_warning@@@std@@@std@@@std@@@std@@_N@1@ABUpiecewise_construct_t@1@$$QAV?$tuple@ABI@1@$$QAV?$tuple@$$QAPAVc_csplayer@@$$QAW4item_defenition_index_t@@AAVvector3d@@$$QAV3@AAM$$QAH@1@@Z 1009dca0 f i grenade_warning.obj
 0001:0009cf00       ??$_Try_emplace@ABK$$V@?$_Hash@V?$_Umap_traits@KMV?$_Uhash_compare@KU?$hash@K@std@@U?$equal_to@K@2@@std@@V?$allocator@U?$pair@$$CBKM@std@@@2@$0A@@std@@@std@@IAE?AU?$pair@PAU?$_List_node@U?$pair@$$CBKM@std@@PAX@std@@_N@1@ABK@Z 1009df00 f i grenade_warning.obj
 0001:0009d120       ??$?0V?$tuple@ABI@std@@V?$tuple@$$QAPAVc_csplayer@@$$QAW4item_defenition_index_t@@AAVvector3d@@$$QAV3@AAM$$QAH@1@$0A@$$Z$0A@$00$01$02$03$04@?$pair@$$CBKUnade_path_t@c_grenade_warning@@@std@@QAE@AAV?$tuple@ABI@1@AAV?$tuple@$$QAPAVc_csplayer@@$$QAW4item_defenition_index_t@@AAVvector3d@@$$QAV3@AAM$$QAH@1@U?$integer_sequence@I$0A@@1@U?$integer_sequence@I$0A@$00$01$02$03$04@1@@Z 1009e120 f i grenade_warning.obj
 0001:0009d9e0       ?thirdperson@c_local_visuals@@AAEXXZ 1009e9e0 f   local_player_visuals.obj
 0001:0009deb0       ?remove_smoke@c_local_visuals@@AAEXXZ 1009eeb0 f   local_player_visuals.obj
 0001:0009e410       ?filter_console@c_local_visuals@@AAEXXZ 1009f410 f   local_player_visuals.obj
 0001:0009e760       ?on_paint_traverse@c_local_visuals@@QAEXXZ 1009f760 f   local_player_visuals.obj
 0001:0009ed90       ?on_directx@c_local_visuals@@QAEXXZ 1009fd90 f   local_player_visuals.obj
 0001:0009f3d0       ??$lerp@EEM$0A@@std@@YA?A_PEEM@Z 100a03d0 f i local_player_visuals.obj
 0001:0009f610       ?on_render_start@c_local_visuals@@QAEXH@Z 100a0610 f   local_player_visuals.obj
 0001:0009fc50       ?on_render_view_after@c_local_visuals@@QAEXPAVc_view_setup@@@Z 100a0c50 f   local_player_visuals.obj
 0001:0009fe68       ??0bad_alloc@std@@QAE@XZ   100a0e68 f i libcpmt:xthrow.obj
 0001:0009fe80       ??0length_error@std@@QAE@ABV01@@Z 100a0e80 f i libcpmt:xthrow.obj
 0001:0009fe9b       ??0length_error@std@@QAE@PBD@Z 100a0e9b f i libcpmt:xthrow.obj
 0001:0009feba       ??0logic_error@std@@QAE@ABV01@@Z 100a0eba f i libcpmt:xthrow.obj
 0001:0009fed5       ??0out_of_range@std@@QAE@ABV01@@Z 100a0ed5 f i libcpmt:xthrow.obj
 0001:0009fef0       ??0out_of_range@std@@QAE@PBD@Z 100a0ef0 f i libcpmt:xthrow.obj
 0001:0009ff0f       ??0runtime_error@std@@QAE@PBD@Z 100a0f0f f i libcpmt:xthrow.obj
 0001:0009ff2e       ??_Ebad_exception@std@@UAEPAXI@Z 100a0f2e f i libvcruntime:frame.obj
 0001:0009ff2e       ??_Elength_error@std@@UAEPAXI@Z 100a0f2e f i libcpmt:xthrow.obj
 0001:0009ff2e       ??_Elogic_error@std@@UAEPAXI@Z 100a0f2e f i libcpmt:xthrow.obj
 0001:0009ff2e       ??_Eout_of_range@std@@UAEPAXI@Z 100a0f2e f i libcpmt:xthrow.obj
 0001:0009ff2e       ??_Gbad_exception@std@@UAEPAXI@Z 100a0f2e f i libvcruntime:frame.obj
 0001:0009ff2e       ??_Glength_error@std@@UAEPAXI@Z 100a0f2e f i libcpmt:xthrow.obj
 0001:0009ff2e       ??_Glogic_error@std@@UAEPAXI@Z 100a0f2e f i libcpmt:xthrow.obj
 0001:0009ff2e       ??_Gout_of_range@std@@UAEPAXI@Z 100a0f2e f i libcpmt:xthrow.obj
 0001:0009ff5b       ?_Xlength_error@std@@YAXPBD@Z 100a0f5b f   libcpmt:xthrow.obj
 0001:0009ff7b       ?_Xout_of_range@std@@YAXPBD@Z 100a0f7b f   libcpmt:xthrow.obj
 0001:0009ff9b       ?_Xruntime_error@std@@YAXPBD@Z 100a0f9b f   libcpmt:xthrow.obj
 0001:0009ffbb       ??0stl_critical_section_win7@details@Concurrency@@QAE@XZ 100a0fbb f i libcpmt:mutex.obj
 0001:0009ffd2       ?lock@stl_critical_section_win7@details@Concurrency@@UAEXXZ 100a0fd2 f i libcpmt:mutex.obj
 0001:000a0198       ?try_lock@stl_critical_section_win7@details@Concurrency@@UAE_NXZ 100a1198 f i libcpmt:mutex.obj
 0001:000a01a8       ?try_lock_for@stl_critical_section_win7@details@Concurrency@@UAE_NI@Z 100a11a8 f i libcpmt:mutex.obj
 0001:000a01ba       ?unlock@stl_critical_section_win7@details@Concurrency@@UAEXXZ 100a11ba f i libcpmt:mutex.obj
 0001:000a01c5       __Mtx_destroy_in_situ      100a11c5 f   libcpmt:mutex.obj
 0001:000a01e4       __Mtx_init_in_situ         100a11e4 f   libcpmt:mutex.obj
 0001:000a0203       __Mtx_lock                 100a1203 f   libcpmt:mutex.obj
 0001:000a0214       __Mtx_unlock               100a1214 f   libcpmt:mutex.obj
 0001:000a023f       ??0_Init_locks@std@@QAE@XZ 100a123f f   libcpmt:xlock.obj
 0001:000a026c       ??0_Lockit@std@@QAE@H@Z    100a126c f   libcpmt:xlock.obj
 0001:000a029d       ??1_Init_locks@std@@QAE@XZ 100a129d f   libcpmt:xlock.obj
 0001:000a02c4       ??1_Lockit@std@@QAE@XZ     100a12c4 f   libcpmt:xlock.obj
 0001:000a02e3       __Lock_at_thread_exit_mutex 100a12e3 f   libcpmt:xlock.obj
 0001:000a02ef       __Unlock_at_thread_exit_mutex 100a12ef f   libcpmt:xlock.obj
 0001:000a02fb       ?uncaught_exceptions@std@@YAHXZ 100a12fb f   libcpmt:uncaught_exceptions.obj
 0001:000a0300       ??0_Locimp@locale@std@@AAE@_N@Z 100a1300 f i libcpmt:locale0.obj
 0001:000a0341       ??1_Fac_node@std@@QAE@XZ   100a1341 f i libcpmt:locale0.obj
 0001:000a0372       ??1_Fac_tidy_reg_t@std@@QAE@XZ 100a1372 f i libcpmt:locale0.obj
 0001:000a0399       ??1_Locimp@locale@std@@MAE@XZ 100a1399 f i libcpmt:locale0.obj
 0001:000a03c4       ??4?$_Yarn@D@std@@QAEAAV01@PBD@Z 100a13c4 f i libcpmt:locale0.obj
 0001:000a0418       ??_E_Locimp@locale@std@@MAEPAXI@Z 100a1418 f i libcpmt:locale0.obj
 0001:000a0418       ??_G_Locimp@locale@std@@MAEPAXI@Z 100a1418 f i libcpmt:locale0.obj
 0001:000a043a       ?_Facet_Register@std@@YAXPAV_Facet_base@1@@Z 100a143a f   libcpmt:locale0.obj
 0001:000a0466       ?_Getgloballocale@locale@std@@CAPAV_Locimp@12@XZ 100a1466 f   libcpmt:locale0.obj
 0001:000a046c       ?_Init@locale@std@@CAPAV_Locimp@12@_N@Z 100a146c f   libcpmt:locale0.obj
 0001:000a04f9       ?_Locimp_dtor@_Locimp@locale@std@@CAXPAV123@@Z 100a14f9 f   libcpmt:locale0.obj
 0001:000a0569       ?_Locinfo_ctor@_Locinfo@std@@SAXPAV12@PBD@Z 100a1569 f   libcpmt:locale0.obj
 0001:000a05b4       ?_Locinfo_dtor@_Locinfo@std@@SAXPAV12@@Z 100a15b4 f   libcpmt:locale0.obj
 0001:000a05ce       ?_New_Locimp@_Locimp@locale@std@@CAPAV123@_N@Z 100a15ce f   libcpmt:locale0.obj
 0001:000a05f1       ?_Setgloballocale@locale@std@@CAXPAX@Z 100a15f1 f   libcpmt:locale0.obj
 0001:000a0619       __Deletegloballocale       100a1619 f   libcpmt:locale0.obj
 0001:000a067e       ?_Callfns@ios_base@std@@AAEXW4event@12@@Z 100a167e f i libcpmt:ios.obj
 0001:000a06b1       ?_Ios_base_dtor@ios_base@std@@CAXPAV12@@Z 100a16b1 f   libcpmt:ios.obj
 0001:000a06f1       ?_Tidy@ios_base@std@@AAEXXZ 100a16f1 f i libcpmt:ios.obj
 0001:000a076c       ?_Syserror_map@std@@YAPBDH@Z 100a176c f   libcpmt:syserror.obj
 0001:000a0791       __Getctype                 100a1791 f   libcpmt:_tolower.obj
 0001:000a07fc       __Tolower                  100a17fc f   libcpmt:_tolower.obj
 0001:000a0908       __Toupper                  100a1908 f   libcpmt:_toupper.obj
 0001:000a0ab9       __Query_perf_counter       100a1ab9 f   libcpmt:xtime.obj
 0001:000a0ad0       __Query_perf_frequency     100a1ad0 f   libcpmt:xtime.obj
 0001:000a0b0d       __Xtime_diff_to_millis2    100a1b0d f   libcpmt:xtime.obj
 0001:000a0b4d       __Xtime_get_ticks          100a1b4d f   libcpmt:xtime.obj
 0001:000a0b74       _xtime_get                 100a1b74 f   libcpmt:xtime.obj
 0001:000a0bc9       __Thrd_detach              100a1bc9 f   libcpmt:cthread.obj
 0001:000a0be1       __Thrd_id                  100a1be1 f   libcpmt:cthread.obj
 0001:000a0be7       __Thrd_sleep               100a1be7 f   libcpmt:cthread.obj
 0001:000a0cfc       ?_Fiopen@std@@YAPAU_iobuf@@PBDHH@Z 100a1cfc f   libcpmt:fiopen.obj
 0001:000a0d05       ??0system_error@std@@QAE@HABVerror_category@1@PBD@Z 100a1d05 f i libcpmt:thread0.obj
 0001:000a0d52       ??_E_Generic_error_category@std@@UAEPAXI@Z 100a1d52 f i libcpmt:thread0.obj
 0001:000a0d52       ??_G_Generic_error_category@std@@UAEPAXI@Z 100a1d52 f i libcpmt:thread0.obj
 0001:000a0d6f       ?_Throw_C_error@std@@YAXH@Z 100a1d6f f   libcpmt:thread0.obj
 0001:000a0d9c       ?_Throw_Cpp_error@std@@YAXH@Z 100a1d9c f   libcpmt:thread0.obj
 0001:000a0dd1       ?generic_category@std@@YAABVerror_category@1@XZ 100a1dd1 f i libcpmt:thread0.obj
 0001:000a0dd7       ?message@_Generic_error_category@std@@UBE?AV?$basic_string@DU?$char_traits@D@std@@V?$allocator@D@2@@2@H@Z 100a1dd7 f i libcpmt:thread0.obj
 0001:000a0df4       ?name@_Generic_error_category@std@@UBEPBDXZ 100a1df4 f i libcpmt:thread0.obj
 0001:000a0dfa       __Cnd_do_broadcast_at_thread_exit 100a1dfa f   libcpmt:xnotify.obj
 0001:000a0e81       __Mtxdst                   100a1e81 f   libcpmt:xmtx.obj
 0001:000a0e8f       __Mtxinit                  100a1e8f f   libcpmt:xmtx.obj
 0001:000a0ea4       __Mtxlock                  100a1ea4 f   libcpmt:xmtx.obj
 0001:000a0eb2       __Mtxunlock                100a1eb2 f   libcpmt:xmtx.obj
 0001:000a0ec0       ??1_Init_atexit@@QAE@XZ    100a1ec0 f i libcpmt:iosptrs.obj
 0001:000a0f28       ?_Atexit@@YAXP6AXXZ@Z      100a1f28 f   libcpmt:iosptrs.obj
 0001:000a0f57       ??1?$__crt_scoped_stack_ptr@_W@@QAE@XZ 100a1f57 f i libcpmt:StlLCMapStringA.obj
 0001:000a0f70       ___crtLCMapStringA         100a1f70 f   libcpmt:StlLCMapStringA.obj
 0001:000a113c       __freea_crt                100a213c f i libcpmt:StlLCMapStringA.obj
 0001:000a119f       ___crtGetSystemTimePreciseAsFileTime 100a219f f   libcpmt:winapisupp.obj
 0001:000a11c5       __Cnd_broadcast            100a21c5 f   libcpmt:cond.obj
 0001:000a11f0       _MH_Initialize@0           100a21f0 f   minhook_lib:hook.obj
 0001:000a1270       _MH_Uninitialize@0         100a2270 f   minhook_lib:hook.obj
 0001:000a1330       _MH_CreateHook@12          100a2330 f   minhook_lib:hook.obj
 0001:000a1570       _MH_CreateHookApi@16       100a2570 f   minhook_lib:hook.obj
 0001:000a15a0       _MH_CreateHookApiEx@20     100a25a0 f   minhook_lib:hook.obj
 0001:000a1630       _MH_RemoveHook@4           100a2630 f   minhook_lib:hook.obj
 0001:000a1750       _MH_EnableHook@4           100a2750 f   minhook_lib:hook.obj
 0001:000a1770       _MH_DisableHook@4          100a2770 f   minhook_lib:hook.obj
 0001:000a1790       _MH_QueueEnableHook@4      100a2790 f   minhook_lib:hook.obj
 0001:000a17b0       _MH_QueueDisableHook@4     100a27b0 f   minhook_lib:hook.obj
 0001:000a17d0       _MH_ApplyQueued@0          100a27d0 f   minhook_lib:hook.obj
 0001:000a1950       _MH_StatusToString@4       100a2950 f   minhook_lib:hook.obj
 0001:000a2850       _InitializeBuffer          100a3850 f   minhook_lib:buffer.obj
 0001:000a2860       _UninitializeBuffer        100a3860 f   minhook_lib:buffer.obj
 0001:000a28d0       _AllocateBuffer            100a38d0 f   minhook_lib:buffer.obj
 0001:000a2950       _FreeBuffer                100a3950 f   minhook_lib:buffer.obj
 0001:000a2a40       _IsExecutableAddress       100a3a40 f   minhook_lib:buffer.obj
 0001:000a2bb0       _CreateTrampolineFunction  100a3bb0 f   minhook_lib:trampoline.obj
 0001:000a3120       _hde32_disasm              100a4120 f   minhook_lib:hde32.obj
 0001:000a3ee4       @__security_check_cookie@4 100a4ee4 f   LIBCMT:secchk.obj
 0001:000a3fb7       __Init_thread_footer       100a4fb7 f   LIBCMT:thread_safe_statics.obj
 0001:000a4001       __Init_thread_header       100a5001 f   LIBCMT:thread_safe_statics.obj
 0001:000a4053       __Init_thread_notify       100a5053 f   LIBCMT:thread_safe_statics.obj
 0001:000a4089       __Init_thread_wait         100a5089 f   LIBCMT:thread_safe_statics.obj
 0001:000a40d7       ??2@YAPAXI@Z               100a50d7 f   LIBCMT:new_scalar.obj
 0001:000a414b       ___scrt_acquire_startup_lock 100a514b f   LIBCMT:utility.obj
 0001:000a417d       ___scrt_dllmain_after_initialize_c 100a517d f   LIBCMT:utility.obj
 0001:000a41a8       ___scrt_dllmain_before_initialize_c 100a51a8 f   LIBCMT:utility.obj
 0001:000a41b6       ___scrt_dllmain_crt_thread_attach 100a51b6 f   LIBCMT:utility.obj
 0001:000a41d5       ___scrt_dllmain_crt_thread_detach 100a51d5 f   LIBCMT:utility.obj
 0001:000a41e2       ___scrt_dllmain_exception_filter 100a51e2 f   LIBCMT:utility.obj
 0001:000a4216       ___scrt_dllmain_uninitialize_c 100a5216 f   LIBCMT:utility.obj
 0001:000a4239       ___scrt_dllmain_uninitialize_critical 100a5239 f   LIBCMT:utility.obj
 0001:000a4246       ___scrt_initialize_crt     100a5246 f   LIBCMT:utility.obj
 0001:000a427f       ___scrt_initialize_onexit_tables 100a527f f   LIBCMT:utility.obj
 0001:000a4306       ___scrt_is_nonwritable_in_current_image 100a5306 f   LIBCMT:utility.obj
 0001:000a439a       ___scrt_release_startup_lock 100a539a f   LIBCMT:utility.obj
 0001:000a43b7       ___scrt_uninitialize_crt   100a53b7 f   LIBCMT:utility.obj
 0001:000a43df       __onexit                   100a53df f   LIBCMT:utility.obj
 0001:000a440c       _atexit                    100a540c f   LIBCMT:utility.obj
 0001:000a4421       ??3@YAXPAX@Z               100a5421 f   LIBCMT:delete_scalar.obj
 0001:000a4426       ??3@YAXPAXI@Z              100a5426 f   LIBCMT:delete_scalar_size.obj
 0001:000a4434       ??_Etype_info@@UAEPAXI@Z   100a5434 f i LIBCMT:std_type_info_static.obj
 0001:000a4434       ??_Gtype_info@@UAEPAXI@Z   100a5434 f i LIBCMT:std_type_info_static.obj
 0001:000a4457       ??_V@YAXPAX@Z              100a5457 f   LIBCMT:delete_array.obj
 0001:000a445c       ___raise_securityfailure   100a545c f   LIBCMT:gs_report.obj
 0001:000a4484       ___report_gsfailure        100a5484 f   LIBCMT:gs_report.obj
 0001:000a457e       ___report_rangecheckfailure 100a557e f   LIBCMT:gs_report.obj
 0001:000a458a       ___report_securityfailure  100a558a f   LIBCMT:gs_report.obj
 0001:000a4659       ??_U@YAPAXI@Z              100a5659 f   LIBCMT:new_array.obj
 0001:000a4662       ??2@YAPAXIW4align_val_t@std@@@Z 100a5662 f   LIBCMT:new_scalar_align.obj
 0001:000a4696       ??3@YAXPAXIW4align_val_t@std@@@Z 100a5696 f   LIBCMT:delete_scalar_size_align.obj
 0001:000a49e8       __DllMainCRTStartup@12     100a59e8 f   LIBCMT:dll_dllmain.obj
 0001:000a4a0b       ___isa_available_init      100a5a0b f   LIBCMT:cpu_disp.obj
 0001:000a4bdf       __EH_epilog3               100a5bdf f   LIBCMT:ehprolg3.obj
 0001:000a4bf3       __EH_epilog3_GS            100a5bf3 f   LIBCMT:ehprolg3.obj
 0001:000a4c02       __EH_prolog3               100a5c02 f   LIBCMT:ehprolg3.obj
 0001:000a4c35       __EH_prolog3_GS            100a5c35 f   LIBCMT:ehprolg3.obj
 0001:000a4c6b       __EH_prolog3_catch         100a5c6b f   LIBCMT:ehprolg3.obj
 0001:000a4cb0       __allmul                   100a5cb0 f   LIBCMT:llmul.obj
 0001:000a4cf0       __aulldiv                  100a5cf0 f   LIBCMT:ulldiv.obj
 0001:000a4d60       __aullrem                  100a5d60 f   LIBCMT:ullrem.obj
 0001:000a4de0       __alloca_probe_16          100a5de0 f   LIBCMT:alloca16.obj
 0001:000a4df6       __alloca_probe_8           100a5df6     LIBCMT:alloca16.obj
 0001:000a4e0c       @_RTC_CheckStackVars@8     100a5e0c f   LIBCMT:stack.obj
 0001:000a4e60       __RTC_CheckEsp             100a5e60 f   LIBCMT:stack.obj
 0001:000a4e83       ?_RTC_Failure@@YAXPAXH@Z   100a5e83 f   LIBCMT:error.obj
 0001:000a4ebf       ?_RTC_StackFailure@@YAXPAXPBD@Z 100a5ebf f   LIBCMT:error.obj
 0001:000a521d       __RTC_UninitUse            100a621d f   LIBCMT:error.obj
 0001:000a52bc       ___scrt_fastfail           100a62bc f   LIBCMT:utility_desktop.obj
 0001:000a53d7       __crt_debugger_hook        100a63d7 f   LIBCMT:utility_desktop.obj
 0001:000a53df       ?__scrt_throw_std_bad_alloc@@YAXXZ 100a63df f   LIBCMT:throw_bad_alloc.obj
 0001:000a53fc       __get_startup_argv_mode    100a63fc f   LIBCMT:argv_mode.obj
 0001:000a5400       ___scrt_is_ucrt_dll_in_use 100a6400 f   LIBCMT:ucrt_detection.obj
 0001:000a5410       __SEH_prolog4              100a6410 f   LIBCMT:sehprolg4.obj
 0001:000a5455       ??3@YAXPAXW4align_val_t@std@@@Z 100a6455 f   LIBCMT:delete_scalar_align.obj
 0001:000a54b0       ___security_init_cookie    100a64b0 f   LIBCMT:gs_support.obj
 0001:000a54fb       ?__scrt_initialize_type_info@@YAXXZ 100a64fb f   LIBCMT:tncleanup.obj
 0001:000a5507       ?__scrt_uninitialize_type_info@@YAXXZ 100a6507 f   LIBCMT:tncleanup.obj
 0001:000a5513       ___scrt_initialize_default_local_stdio_options 100a6513 f   LIBCMT:default_local_stdio_options.obj
 0001:000a5530       ___scrt_get_dyn_tls_init_callback 100a6530 f   LIBCMT:dyn_tls_init.obj
 0001:000a5536       __RTC_Initialize           100a6536 f   LIBCMT:initsect.obj
 0001:000a5562       __RTC_Terminate            100a6562 f   LIBCMT:initsect.obj
 0001:000a5590       __alloca_probe             100a6590 f   LIBCMT:chkstk.obj
 0001:000a5590       __chkstk                   100a6590 f   LIBCMT:chkstk.obj
 0001:000a55bb       ?_RTC_GetErrorFunc@@YAP6AHHPBDH00ZZPBX@Z 100a65bb f   LIBCMT:userapi.obj
 0001:000a55c1       ?_RTC_GetErrorFuncW@@YAP6AHHPB_WH00ZZPBX@Z 100a65c1 f   LIBCMT:userapi.obj
 0001:000a57b3       ?_RTC_GetSrcLine@@YAHPAEPA_WKPAH1K@Z 100a67b3 f   LIBCMT:pdblkup.obj
 0001:000a5b00       _FT_Add_Default_Modules    100a6b00 f   freetype:ftinit.obj
 0001:000a5f80       _FT_Activate_Size          100a6f80 f   freetype:ftbase.obj
 0001:000a5fb0       _FT_Add_Module             100a6fb0 f   freetype:ftbase.obj
 0001:000a6260       _FT_CMap_New               100a7260 f   freetype:ftbase.obj
 0001:000a6340       _FT_DivFix                 100a7340 f   freetype:ftbase.obj
 0001:000a63e0       _FT_Done_Face              100a73e0 f   freetype:ftbase.obj
 0001:000a6480       _FT_Done_GlyphSlot         100a7480 f   freetype:ftbase.obj
 0001:000a64f0       _FT_Done_Library           100a74f0 f   freetype:ftbase.obj
 0001:000a6650       _FT_Done_Size              100a7650 f   freetype:ftbase.obj
 0001:000a6720       _FT_Get_Advance            100a7720 f   freetype:ftbase.obj
 0001:000a6880       _FT_Get_Char_Index         100a7880 f   freetype:ftbase.obj
 0001:000a68b0       _FT_Get_Glyph_Name         100a78b0 f   freetype:ftbase.obj
 0001:000a6970       _FT_Get_Module             100a7970 f   freetype:ftbase.obj
 0001:000a69e0       _FT_Get_Module_Interface   100a79e0 f   freetype:ftbase.obj
 0001:000a6a60       _FT_Get_Next_Char          100a7a60 f   freetype:ftbase.obj
 0001:000a6ab0       _FT_GlyphLoader_Add        100a7ab0 f   freetype:ftbase.obj
 0001:000a6ca0       _FT_GlyphLoader_CheckPoints 100a7ca0 f   freetype:ftbase.obj
 0001:000a6e50       _FT_GlyphLoader_CheckSubGlyphs 100a7e50 f   freetype:ftbase.obj
 0001:000a6ec0       _FT_GlyphLoader_CreateExtra 100a7ec0 f   freetype:ftbase.obj
 0001:000a6f90       _FT_GlyphLoader_Prepare    100a7f90 f   freetype:ftbase.obj
 0001:000a6fd0       _FT_GlyphLoader_Reset      100a7fd0 f   freetype:ftbase.obj
 0001:000a7090       _FT_GlyphLoader_Rewind     100a8090 f   freetype:ftbase.obj
 0001:000a70c0       _FT_Hypot                  100a80c0 f   freetype:ftbase.obj
 0001:000a7130       _FT_List_Add               100a8130 f   freetype:ftbase.obj
 0001:000a7160       _FT_List_Finalize          100a8160 f   freetype:ftbase.obj
 0001:000a71c0       _FT_List_Find              100a81c0 f   freetype:ftbase.obj
 0001:000a71f0       _FT_List_Iterate           100a81f0 f   freetype:ftbase.obj
 0001:000a7240       _FT_Load_Glyph             100a8240 f   freetype:ftbase.obj
 0001:000a7a00       _FT_Match_Size             100a8a00 f   freetype:ftbase.obj
 0001:000a7af0       _FT_Matrix_Check           100a8af0 f   freetype:ftbase.obj
 0001:000a7ce0       _FT_Matrix_Invert          100a8ce0 f   freetype:ftbase.obj
 0001:000a7db0       _FT_Matrix_Multiply_Scaled 100a8db0 f   freetype:ftbase.obj
 0001:000a7e90       _FT_MulDiv                 100a8e90 f   freetype:ftbase.obj
 0001:000a7f70       _FT_MulDiv_No_Round        100a8f70 f   freetype:ftbase.obj
 0001:000a8040       _FT_New_GlyphSlot          100a9040 f   freetype:ftbase.obj
 0001:000a8180       _FT_New_Library            100a9180 f   freetype:ftbase.obj
 0001:000a8200       _FT_New_Memory_Face        100a9200 f   freetype:ftbase.obj
 0001:000a8250       _FT_New_Size               100a9250 f   freetype:ftbase.obj
 0001:000a8380       _FT_Open_Face              100a9380 f   freetype:ftbase.obj
 0001:000a83a0       _FT_Outline_Decompose      100a93a0 f   freetype:ftbase.obj
 0001:000a8720       _FT_Outline_EmboldenXY     100a9720 f   freetype:ftbase.obj
 0001:000a8ab0       _FT_Outline_Get_CBox       100a9ab0 f   freetype:ftbase.obj
 0001:000a8b60       _FT_Outline_Get_Orientation 100a9b60 f   freetype:ftbase.obj
 0001:000a8d60       _FT_Outline_Transform      100a9d60 f   freetype:ftbase.obj
 0001:000a8da0       _FT_Outline_Translate      100a9da0 f   freetype:ftbase.obj
 0001:000a8de0       _FT_Raccess_Get_DataOffsets 100a9de0 f   freetype:ftbase.obj
 0001:000a9140       _FT_Raccess_Get_HeaderInfo 100aa140 f   freetype:ftbase.obj
 0001:000a9420       _FT_Render_Glyph           100aa420 f   freetype:ftbase.obj
 0001:000a9450       _FT_Render_Glyph_Internal  100aa450 f   freetype:ftbase.obj
 0001:000a9650       _FT_Request_Metrics        100aa650 f   freetype:ftbase.obj
 0001:000a98d0       _FT_Request_Size           100aa8d0 f   freetype:ftbase.obj
 0001:000a9ac0       _FT_RoundFix               100aaac0 f   freetype:ftbase.obj
 0001:000a9ae0       _FT_Select_Charmap         100aaae0 f   freetype:ftbase.obj
 0001:000a9b60       _FT_Select_Metrics         100aab60 f   freetype:ftbase.obj
 0001:000a9c00       _FT_Select_Size            100aac00 f   freetype:ftbase.obj
 0001:000a9cf0       _FT_Set_Charmap            100aacf0 f   freetype:ftbase.obj
 0001:000a9d90       _FT_Stream_Close           100aad90 f   freetype:ftbase.obj
 0001:000a9db0       _FT_Stream_EnterFrame      100aadb0 f   freetype:ftbase.obj
 0001:000a9eb0       _FT_Stream_ExitFrame       100aaeb0 f   freetype:ftbase.obj
 0001:000a9ef0       _FT_Stream_ExtractFrame    100aaef0 f   freetype:ftbase.obj
 0001:000a9f20       _FT_Stream_Free            100aaf20 f   freetype:ftbase.obj
 0001:000a9f50       _FT_Stream_GetChar         100aaf50 f   freetype:ftbase.obj
 0001:000a9f70       _FT_Stream_GetULong        100aaf70 f   freetype:ftbase.obj
 0001:000a9fc0       _FT_Stream_GetULongLE      100aafc0 f   freetype:ftbase.obj
 0001:000aa010       _FT_Stream_GetUShort       100ab010 f   freetype:ftbase.obj
 0001:000aa050       _FT_Stream_GetUShortLE     100ab050 f   freetype:ftbase.obj
 0001:000aa090       _FT_Stream_New             100ab090 f   freetype:ftbase.obj
 0001:000aa180       _FT_Stream_OpenMemory      100ab180 f   freetype:ftbase.obj
 0001:000aa1b0       _FT_Stream_Pos             100ab1b0 f   freetype:ftbase.obj
 0001:000aa1c0       _FT_Stream_Read            100ab1c0 f   freetype:ftbase.obj
 0001:000aa240       _FT_Stream_ReadAt          100ab240 f   freetype:ftbase.obj
 0001:000aa2c0       _FT_Stream_ReadChar        100ab2c0 f   freetype:ftbase.obj
 0001:000aa330       _FT_Stream_ReadFields      100ab330 f   freetype:ftbase.obj
 0001:000aa570       _FT_Stream_ReadULong       100ab570 f   freetype:ftbase.obj
 0001:000aa5f0       _FT_Stream_ReadULongLE     100ab5f0 f   freetype:ftbase.obj
 0001:000aa670       _FT_Stream_ReadUOffset     100ab670 f   freetype:ftbase.obj
 0001:000aa6f0       _FT_Stream_ReadUShort      100ab6f0 f   freetype:ftbase.obj
 0001:000aa760       _FT_Stream_ReadUShortLE    100ab760 f   freetype:ftbase.obj
 0001:000aa7d0       _FT_Stream_ReleaseFrame    100ab7d0 f   freetype:ftbase.obj
 0001:000aa810       _FT_Stream_Seek            100ab810 f   freetype:ftbase.obj
 0001:000aa850       _FT_Stream_Skip            100ab850 f   freetype:ftbase.obj
 0001:000aa8a0       _FT_Stream_TryRead         100ab8a0 f   freetype:ftbase.obj
 0001:000aa900       _FT_Vector_NormLen         100ab900 f   freetype:ftbase.obj
 0001:000aaa80       _FT_Vector_Transform       100aba80 f   freetype:ftbase.obj
 0001:000aab80       _FT_Vector_Transform_Scaled 100abb80 f   freetype:ftbase.obj
 0001:000ab530       _ft_corner_is_flat         100ac530 f   freetype:ftbase.obj
 0001:000ab5f0       _ft_corner_orientation     100ac5f0 f   freetype:ftbase.obj
 0001:000ab630       _ft_glyphslot_alloc_bitmap 100ac630 f   freetype:ftbase.obj
 0001:000ab760       _ft_glyphslot_free_bitmap  100ac760 f   freetype:ftbase.obj
 0001:000ab7b0       _ft_glyphslot_preset_bitmap 100ac7b0 f   freetype:ftbase.obj
 0001:000aba00       _ft_glyphslot_set_bitmap   100aca00 f   freetype:ftbase.obj
 0001:000aba60       _ft_hash_num_init          100aca60 f   freetype:ftbase.obj
 0001:000abad0       _ft_hash_num_insert        100acad0 f   freetype:ftbase.obj
 0001:000abad0       _ft_hash_str_insert        100acad0 f   freetype:ftbase.obj
 0001:000abae0       _ft_hash_num_lookup        100acae0 f   freetype:ftbase.obj
 0001:000abae0       _ft_hash_str_lookup        100acae0 f   freetype:ftbase.obj
 0001:000abb00       _ft_hash_str_free          100acb00 f   freetype:ftbase.obj
 0001:000abb70       _ft_hash_str_init          100acb70 f   freetype:ftbase.obj
 0001:000abbe0       _ft_lcd_padding            100acbe0 f   freetype:ftbase.obj
 0001:000abe60       _ft_mem_alloc              100ace60 f   freetype:ftbase.obj
 0001:000abed0       _ft_mem_free               100aced0 f   freetype:ftbase.obj
 0001:000abef0       _ft_mem_qalloc             100acef0 f   freetype:ftbase.obj
 0001:000abf40       _ft_mem_qrealloc           100acf40 f   freetype:ftbase.obj
 0001:000ac020       _ft_mem_realloc            100ad020 f   freetype:ftbase.obj
 0001:000ac130       _ft_mem_strcpyn            100ad130 f   freetype:ftbase.obj
 0001:000ac160       _ft_mem_strdup             100ad160 f   freetype:ftbase.obj
 0001:000ac1f0       _ft_module_get_service     100ad1f0 f   freetype:ftbase.obj
 0001:000acd20       _ft_service_list_lookup    100add20 f   freetype:ftbase.obj
 0001:000acd90       _ft_synthesize_vertical_metrics 100add90 f   freetype:ftbase.obj
 0001:000acf90       _ft_validator_error        100adf90 f   freetype:ftbase.obj
 0001:000acfb0       _ft_validator_init         100adfb0 f   freetype:ftbase.obj
 0001:000ad940       _ps_property_get           100ae940 f   freetype:ftbase.obj
 0001:000ada40       _ps_property_set           100aea40 f   freetype:ftbase.obj
 0001:000ae090       _FT_GlyphSlot_Embolden     100af090 f   freetype:ftsynth.obj
 0001:000ae190       _FT_GlyphSlot_Oblique      100af190 f   freetype:ftsynth.obj
 0001:000b5b10       _af_shaper_get_cluster     100b6b10 f   freetype:autofit.obj
 0001:000bb980       _TT_RunIns                 100bc980 f   freetype:truetype.obj
 0001:000e6ab0       _ps_hints_apply            100e7ab0 f   freetype:pshinter.obj
 0001:000fd8f0       _sprintf                   100fe8f0 f i freetype:bdf.obj
 0001:000fd930       _FT_Stream_Open            100fe930 f   freetype:ftsystem.obj
 0001:000fda60       _FT_Bitmap_Convert         100fea60 f   freetype:ftbitmap.obj
 0001:000fdec0       _FT_Bitmap_Copy            100feec0 f   freetype:ftbitmap.obj
 0001:000fe020       _FT_Bitmap_Done            100ff020 f   freetype:ftbitmap.obj
 0001:000fe070       _FT_Bitmap_Embolden        100ff070 f   freetype:ftbitmap.obj
 0001:000fe330       _FT_Bitmap_Init            100ff330 f   freetype:ftbitmap.obj
 0001:000fe360       _FT_GlyphSlot_Own_Bitmap   100ff360 f   freetype:ftbitmap.obj
 0001:000fe620       _FT_Gzip_Uncompress        100ff620 f   freetype:ftgzip.obj
 0001:000fe710       _FT_Stream_OpenGzip        100ff710 f   freetype:ftgzip.obj
 0001:00100fe0       _FT_Stream_OpenLZW         10101fe0 f   freetype:ftlzw.obj
 0001:00101960       _ft_lzwstate_io            10102960 f   freetype:ftlzw.obj
 0001:00101d1f       ___std_exception_copy      10102d1f f   libvcruntime:std_exception.obj
 0001:00101d82       ___std_exception_destroy   10102d82 f   libvcruntime:std_exception.obj
 0001:00101db0       _strstr                    10102db0 f   libvcruntime:strstr.obj
 0001:0010201b       __get_purecall_handler     1010301b f   libvcruntime:purevirt.obj
 0001:00102022       __purecall                 10103022 f   libvcruntime:purevirt.obj
 0001:00102040       _strchr                    10103040 f   libvcruntime:strchr.obj
 0001:001020ae       ___from_strstr_to_strchr   101030ae     libvcruntime:strchr.obj
 0001:0010216b       __CxxThrowException@8      1010316b f   libvcruntime:throw.obj
 0001:001021e0       _memchr                    101031e0 f   libvcruntime:memchr.obj
 0001:0010228d       ___uncaught_exceptions     1010328d f   libvcruntime:uncaught_exceptions.obj
 0001:0010229d       ?GetRangeOfTrysToCheck@__FrameHandler3@@SA?AU?$pair@Viterator@TryBlockMap@__FrameHandler3@@V123@@std@@AAVTryBlockMap@1@HPAXPBU_s_FuncInfo@@H@Z 1010329d f   libvcruntime:trnsctrl.obj
 0001:0010230d       ?_CallCatchBlock2@@YAPAXPAUEHRegistrationNode@@PBU_s_FuncInfo@@PAXHK@Z 1010330d f   libvcruntime:trnsctrl.obj
 0001:0010236a       ?_CallSETranslator@@YAHPAUEHExceptionRecord@@PAUEHRegistrationNode@@PAX2PBU_s_FuncInfo@@H1@Z 1010336a f   libvcruntime:trnsctrl.obj
 0001:00102460       ?_JumpToContinuation@@YGXPAXPAUEHRegistrationNode@@@Z 10103460 f   libvcruntime:trnsctrl.obj
 0001:00102490       ?_UnwindNestedFrames@@YGXPAUEHRegistrationNode@@PAUEHExceptionRecord@@@Z 10103490 f   libvcruntime:trnsctrl.obj
 0001:001024e3       __CatchGuardHandler        101034e3 f   libvcruntime:trnsctrl.obj
 0001:00102514       __CreateFrameInfo          10103514 f   libvcruntime:trnsctrl.obj
 0001:00102538       __FindAndUnlinkFrame       10103538 f   libvcruntime:trnsctrl.obj
 0001:00102580       __TranslatorGuardHandler   10103580 f   libvcruntime:trnsctrl.obj
 0001:0010261d       ___CxxFrameHandler3        1010361d f   libvcruntime:trnsctrl.obj
 0001:00102660       _memcpy                    10103660 f   libvcruntime:memcpy.obj
 0001:00102660       _memmove                   10103660 f   libvcruntime:memmove.obj
 0001:00102be0       _memset                    10103be0 f   libvcruntime:memset.obj
 0001:00102d40       ___DestructExceptionObject 10103d40 f   libvcruntime:ehhelpers.obj
 0001:00102de1       ?_CallMemberFunction0@@YGXQAX0@Z 10103de1 f i libvcruntime:ehhelpers.obj
 0001:00102e46       __IsExceptionObjectToBeDestroyed 10103e46 f   libvcruntime:ehhelpers.obj
 0001:00102e6c       ___AdjustPointer           10103e6c f   libvcruntime:ehhelpers.obj
 0001:00102e91       ___FrameUnwindFilter       10103e91 f   libvcruntime:ehhelpers.obj
 0001:00102ee7       ___std_terminate           10103ee7 f   libvcruntime:ehhelpers.obj
 0001:00102eec       _memcmp                    10103eec f   libvcruntime:memcmp.obj
 0001:00104568       ___vcrt_initialize         10105568 f   libvcruntime:initialization.obj
 0001:00104587       ___vcrt_thread_attach      10105587 f   libvcruntime:initialization.obj
 0001:00104592       ___vcrt_thread_detach      10105592 f   libvcruntime:initialization.obj
 0001:0010459d       ___vcrt_uninitialize       1010559d f   libvcruntime:initialization.obj
 0001:001045b4       ___vcrt_uninitialize_critical 101055b4 f   libvcruntime:initialization.obj
 0001:00104600       __except_handler4          10105600 f   libvcruntime:chandler4.obj
 0001:0010475e       ___std_type_info_compare   1010575e f   libvcruntime:std_type_info.obj
 0001:0010479a       ___std_type_info_destroy_list 1010579a f   libvcruntime:std_type_info.obj
 0001:001047bd       ___vcrt_GetModuleFileNameW 101057bd f   libvcruntime:winapi_thunks.obj
 0001:001047d1       ___vcrt_LoadLibraryExW     101057d1 f   libvcruntime:winapi_thunks.obj
 0001:001047f0       _strrchr                   101057f0 f   libvcruntime:strrchr.obj
 0001:00104927       _longjmp                   10105927 f   libvcruntime:longjmpc.obj
 0001:00104940       __setjmp3                  10105940 f   libvcruntime:setjmp3.obj
 0001:001049d5       ___vcrt_freefls@4          101059d5 f   libvcruntime:per_thread_data.obj
 0001:001049f1       ___vcrt_freeptd            101059f1 f   libvcruntime:per_thread_data.obj
 0001:00104a27       ___vcrt_getptd             10105a27 f   libvcruntime:per_thread_data.obj
 0001:00104a35       ___vcrt_getptd_noexit      10105a35 f   libvcruntime:per_thread_data.obj
 0001:00104ac7       ___vcrt_getptd_noinit      10105ac7 f   libvcruntime:per_thread_data.obj
 0001:00104afe       ___vcrt_initialize_ptd     10105afe f   libvcruntime:per_thread_data.obj
 0001:00104b31       ___vcrt_uninitialize_ptd   10105b31 f   libvcruntime:per_thread_data.obj
 0001:0010527e       ??$TypeMatchHelper@V__FrameHandler3@@@@YAHPBU_s_HandlerType@@PBU_s_CatchableType@@PBU_s_ThrowInfo@@@Z 1010627e f i libvcruntime:frame.obj
 0001:0010530c       ??$__InternalCxxFrameHandler@V__FrameHandler3@@@@YA?AW4_EXCEPTION_DISPOSITION@@PAUEHExceptionRecord@@PAUEHRegistrationNode@@PAU_CONTEXT@@PAXPBU_s_FuncInfo@@H1E@Z 1010630c f i libvcruntime:frame.obj
 0001:0010540e       ??$__InternalCxxFrameHandlerWrapper@V__FrameHandler3@@@@YA?AW4_EXCEPTION_DISPOSITION@@PAUEHExceptionRecord@@PAUEHRegistrationNode@@PAU_CONTEXT@@PAXPBU_s_FuncInfo@@H1E@Z 1010640e f i libvcruntime:frame.obj
 0001:00105417       ??0bad_exception@std@@QAE@ABV01@@Z 10106417 f i libvcruntime:frame.obj
 0001:00105432       ??0bad_exception@std@@QAE@XZ 10106432 f i libvcruntime:frame.obj
 0001:0010544a       ??8type_info@@QBE_NABV0@@Z 1010644a f i libvcruntime:frame.obj
 0001:001056c1       ?FrameUnwindToEmptyState@__FrameHandler3@@SAXPAUEHRegistrationNode@@PAXPBU_s_FuncInfo@@@Z 101066c1 f   libvcruntime:frame.obj
 0001:001056d9       ?FrameUnwindToState@__FrameHandler3@@SAXPAUEHRegistrationNode@@PAXPBU_s_FuncInfo@@H@Z 101066d9 f   libvcruntime:frame.obj
 0001:0010585b       ?_CallMemberFunction1@@YGXQAX00@Z 1010685b f i libvcruntime:frame.obj
 0001:0010586b       ?_CallMemberFunction2@@YGXQAX00H@Z 1010686b f i libvcruntime:frame.obj
 0001:0010587e       ?getESTypes@__FrameHandler3@@SAPBU_s_ESTypeList@@PBU_s_FuncInfo@@@Z 1010687e f i libvcruntime:frame.obj
 0001:00105890       __CallSettingFrame@12      10106890 f   libvcruntime:lowhelpr.obj
 0001:001058b7       __NLG_Return               101068b7     libvcruntime:lowhelpr.obj
 0001:001058dc       ___except_validate_context_record 101068dc f   libvcruntime:jbcxrval.obj
 0001:0010590c       ___except_validate_jump_buffer 1010690c f   libvcruntime:jbcxrval.obj
 0001:00105939       ___vcrt_initialize_locks   10106939 f   libvcruntime:locks.obj
 0001:00105975       ___vcrt_uninitialize_locks 10106975 f   libvcruntime:locks.obj
 0001:001059b0       __local_unwind4            101069b0 f   libvcruntime:exsup4.obj
 0001:00105aa0       @_EH4_CallFilterFunc@8     10106aa0 f   libvcruntime:exsup4.obj
 0001:00105ac0       @_EH4_TransferToHandler@8  10106ac0 f   libvcruntime:exsup4.obj
 0001:00105ae0       @_EH4_GlobalUnwind2@8      10106ae0 f   libvcruntime:exsup4.obj
 0001:00105b00       @_EH4_LocalUnwind@16       10106b00 f   libvcruntime:exsup4.obj
 0001:00105b20       ___longjmp_internal        10106b20 f   libvcruntime:longjmp.obj
 0001:00105c40       __local_unwind2            10106c40 f   libvcruntime:exsup.obj
 0001:00105ce0       __NLG_Notify1              10106ce0 f   libvcruntime:exsup.obj
 0001:00105cf0       __NLG_Notify               10106cf0 f   libvcruntime:exsup.obj
 0001:00105d07       __NLG_Dispatch             10106d07     libvcruntime:exsup.obj
 0001:00105d07       __NLG_Dispatch2            10106d07     libvcruntime:exsup.obj
 0001:00105d10       __NLG_Call                 10106d10 f   libvcruntime:exsup.obj
 0001:00105d12       __NLG_Return2              10106d12     libvcruntime:exsup.obj
 0001:00105dfe       ___vcrt_FlsAlloc           10106dfe f   libvcruntime:winapi_downlevel.obj
 0001:00105e39       ___vcrt_FlsFree            10106e39 f   libvcruntime:winapi_downlevel.obj
 0001:00105e74       ___vcrt_FlsGetValue        10106e74 f   libvcruntime:winapi_downlevel.obj
 0001:00105eaf       ___vcrt_FlsSetValue        10106eaf f   libvcruntime:winapi_downlevel.obj
 0001:00105eed       ___vcrt_InitializeCriticalSectionEx 10106eed f   libvcruntime:winapi_downlevel.obj
 0001:00105f34       _unexpected                10106f34 f   libvcruntime:unexpected.obj
 0001:00105f51       ?GetCurrentState@__FrameHandler3@@SAHPAUEHRegistrationNode@@PAXPBU_s_FuncInfo@@@Z 10106f51 f   libvcruntime:ehstate.obj
 0001:00105f6e       ?SetState@__FrameHandler3@@SAXPAUEHRegistrationNode@@PBU_s_FuncInfo@@H@Z 10106f6e f   libvcruntime:ehstate.obj
 0001:00105f7c       __rt_probe_read4@4         10106f7c f   libvcruntime:sehsupp.obj
 0001:001062ac       ??0__crt_cached_ptd_host@@QAE@QAU__crt_locale_pointers@@@Z 101072ac f i libucrt:ftell.obj
 0001:001062f4       ??1__crt_cached_ptd_host@@QAE@XZ 101072f4 f i libucrt:ftell.obj
 0001:001066eb       ?force_synchronize_per_thread_data@__crt_cached_ptd_host@@AAEPAU__acrt_ptd@@XZ 101076eb f i libucrt:ftell.obj
 0001:00106731       ?get_raw_ptd@__crt_cached_ptd_host@@QAEPAU__acrt_ptd@@XZ 10107731 f i libucrt:ftell.obj
 0001:0010674e       __ftelli64                 1010774e f   libucrt:ftell.obj
 0001:00106784       __ftelli64_nolock_internal 10107784 f   libucrt:ftell.obj
 0001:0010678f       _ftell                     1010778f f   libucrt:ftell.obj
 0001:001067bf       ??0_LocaleUpdate@@QAE@QAU__crt_locale_pointers@@@Z 101077bf f i libucrt:tolower_toupper.obj
 0001:00106841       __toupper_l                10107841 f   libucrt:tolower_toupper.obj
 0001:0010693f       _toupper                   1010793f f   libucrt:tolower_toupper.obj
 0001:0010696f       ___acrt_initialize_stdio   1010796f f   libucrt:_file.obj
 0001:00106a37       ___acrt_iob_func           10107a37 f   libucrt:_file.obj
 0001:00106a47       ___acrt_uninitialize_stdio 10107a47 f   libucrt:_file.obj
 0001:00106a93       __get_stream_buffer_pointers 10107a93 f   libucrt:_file.obj
 0001:00106ad9       __lock_file                10107ad9 f   libucrt:_file.obj
 0001:00106aed       __unlock_file              10107aed f   libucrt:_file.obj
 0001:00106d3e       ___acrt_stdio_flush_nolock 10107d3e f   libucrt:fflush.obj
 0001:00106da7       __fflush_nolock            10107da7 f   libucrt:fflush.obj
 0001:00106e0c       __flushall                 10107e0c f   libucrt:fflush.obj
 0001:00106e15       _fflush                    10107e15 f   libucrt:fflush.obj
 0001:00106f8f       _fclose                    10107f8f f   libucrt:fclose.obj
 0001:00106fbf       ?LongLongSub@@YAJ_J0PA_J@Z 10107fbf f i libucrt:fseek.obj
 0001:0010729a       __fseeki64                 1010829a f   libucrt:fseek.obj
 0001:001072d4       _fseek                     101082d4 f   libucrt:fseek.obj
 0001:00107310       _qsort                     10108310 f   libucrt:qsort.obj
 0001:00107800       _strncpy                   10108800 f   libucrt:strncpy.obj
 0001:00107924       _strcpy_s                  10108924 f   libucrt:strcpy_s.obj
 0001:00107a25       __fwrite_internal          10108a25 f   libucrt:fwrite.obj
 0001:00107a9c       __fwrite_nolock_internal   10108a9c f   libucrt:fwrite.obj
 0001:00107c46       _fwrite                    10108c46 f   libucrt:fwrite.obj
 0001:00107ded       __fsopen                   10108ded f   libucrt:fopen.obj
 0001:00107df8       __wfopen                   10108df8 f   libucrt:fopen.obj
 0001:00107e0f       _fopen                     10108e0f f   libucrt:fopen.obj
 0001:001081ad       ??$count@D@formatting_buffer@__crt_stdio_output@@QBEIXZ 101091ad f i libucrt:output.obj
 0001:001081c5       ??$ensure_buffer_is_big_enough@D@formatting_buffer@__crt_stdio_output@@QAE_NIAAV__crt_cached_ptd_host@@@Z 101091c5 f i libucrt:output.obj
 0001:00108246       ??$is_overflow_condition@K@__crt_strtox@@YA_NIK@Z 10109246 f i libucrt:output.obj
 0001:00108277       ??$is_wide_character_specifier@D@__crt_stdio_output@@YA_N_KDW4length_modifier@0@@Z 10109277 f i libucrt:output.obj
 0001:001082a8       ??$make_c_string_character_source@DPAPAD@__crt_strtox@@YA?AV?$c_string_character_source@D@0@QBDQAPAD@Z 101092a8 f i libucrt:output.obj
 0001:001082c3       ??$parse_integer@KV?$c_string_character_source@D@__crt_strtox@@$0A@@__crt_strtox@@YAKAAV__crt_cached_ptd_host@@V?$c_string_character_source@D@0@H_N@Z 101092c3 f i libucrt:output.obj
 0001:001084d2       ??$scratch_data@D@formatting_buffer@__crt_stdio_output@@QAEPADXZ 101094d2 f i libucrt:output.obj
 0001:001084f0       ??$type_case_integer@$07@?$output_processor@DV?$string_output_adapter@D@__crt_stdio_output@@V?$format_validation_base@DV?$string_output_adapter@D@__crt_stdio_output@@@2@@__crt_stdio_output@@AAE_N_N@Z 101094f0 f i libucrt:output.obj
 0001:001084f0       ??$type_case_integer@$07@?$output_processor@DV?$string_output_adapter@D@__crt_stdio_output@@V?$standard_base@DV?$string_output_adapter@D@__crt_stdio_output@@@2@@__crt_stdio_output@@AAE_N_N@Z 101094f0 f i libucrt:output.obj
 0001:0010866d       ??$type_case_integer@$09@?$output_processor@DV?$string_output_adapter@D@__crt_stdio_output@@V?$format_validation_base@DV?$string_output_adapter@D@__crt_stdio_output@@@2@@__crt_stdio_output@@AAE_N_N@Z 1010966d f i libucrt:output.obj
 0001:0010866d       ??$type_case_integer@$09@?$output_processor@DV?$string_output_adapter@D@__crt_stdio_output@@V?$standard_base@DV?$string_output_adapter@D@__crt_stdio_output@@@2@@__crt_stdio_output@@AAE_N_N@Z 1010966d f i libucrt:output.obj
 0001:001087ea       ??$type_case_integer@$0BA@@?$output_processor@DV?$string_output_adapter@D@__crt_stdio_output@@V?$format_validation_base@DV?$string_output_adapter@D@__crt_stdio_output@@@2@@__crt_stdio_output@@AAE_N_N@Z 101097ea f i libucrt:output.obj
 0001:001087ea       ??$type_case_integer@$0BA@@?$output_processor@DV?$string_output_adapter@D@__crt_stdio_output@@V?$standard_base@DV?$string_output_adapter@D@__crt_stdio_output@@@2@@__crt_stdio_output@@AAE_N_N@Z 101097ea f i libucrt:output.obj
 0001:00108967       ??$type_case_integer_parse_into_buffer@I$07@?$output_processor@DV?$string_output_adapter@D@__crt_stdio_output@@V?$format_validation_base@DV?$string_output_adapter@D@__crt_stdio_output@@@2@@__crt_stdio_output@@AAEXI_N@Z 10109967 f i libucrt:output.obj
 0001:00108967       ??$type_case_integer_parse_into_buffer@I$07@?$output_processor@DV?$string_output_adapter@D@__crt_stdio_output@@V?$standard_base@DV?$string_output_adapter@D@__crt_stdio_output@@@2@@__crt_stdio_output@@AAEXI_N@Z 10109967 f i libucrt:output.obj
 0001:001089d1       ??$type_case_integer_parse_into_buffer@I$09@?$output_processor@DV?$string_output_adapter@D@__crt_stdio_output@@V?$format_validation_base@DV?$string_output_adapter@D@__crt_stdio_output@@@2@@__crt_stdio_output@@AAEXI_N@Z 101099d1 f i libucrt:output.obj
 0001:001089d1       ??$type_case_integer_parse_into_buffer@I$09@?$output_processor@DV?$string_output_adapter@D@__crt_stdio_output@@V?$standard_base@DV?$string_output_adapter@D@__crt_stdio_output@@@2@@__crt_stdio_output@@AAEXI_N@Z 101099d1 f i libucrt:output.obj
 0001:00108a4b       ??$type_case_integer_parse_into_buffer@I$0BA@@?$output_processor@DV?$string_output_adapter@D@__crt_stdio_output@@V?$format_validation_base@DV?$string_output_adapter@D@__crt_stdio_output@@@2@@__crt_stdio_output@@AAEXI_N@Z 10109a4b f i libucrt:output.obj
 0001:00108a4b       ??$type_case_integer_parse_into_buffer@I$0BA@@?$output_processor@DV?$string_output_adapter@D@__crt_stdio_output@@V?$standard_base@DV?$string_output_adapter@D@__crt_stdio_output@@@2@@__crt_stdio_output@@AAEXI_N@Z 10109a4b f i libucrt:output.obj
 0001:00108ad3       ??$type_case_integer_parse_into_buffer@_K$07@?$output_processor@DV?$string_output_adapter@D@__crt_stdio_output@@V?$format_validation_base@DV?$string_output_adapter@D@__crt_stdio_output@@@2@@__crt_stdio_output@@AAEX_K_N@Z 10109ad3 f i libucrt:output.obj
 0001:00108ad3       ??$type_case_integer_parse_into_buffer@_K$07@?$output_processor@DV?$string_output_adapter@D@__crt_stdio_output@@V?$standard_base@DV?$string_output_adapter@D@__crt_stdio_output@@@2@@__crt_stdio_output@@AAEX_K_N@Z 10109ad3 f i libucrt:output.obj
 0001:00108b4b       ??$type_case_integer_parse_into_buffer@_K$09@?$output_processor@DV?$string_output_adapter@D@__crt_stdio_output@@V?$format_validation_base@DV?$string_output_adapter@D@__crt_stdio_output@@@2@@__crt_stdio_output@@AAEX_K_N@Z 10109b4b f i libucrt:output.obj
 0001:00108b4b       ??$type_case_integer_parse_into_buffer@_K$09@?$output_processor@DV?$string_output_adapter@D@__crt_stdio_output@@V?$standard_base@DV?$string_output_adapter@D@__crt_stdio_output@@@2@@__crt_stdio_output@@AAEX_K_N@Z 10109b4b f i libucrt:output.obj
 0001:00108be7       ??$type_case_integer_parse_into_buffer@_K$0BA@@?$output_processor@DV?$string_output_adapter@D@__crt_stdio_output@@V?$format_validation_base@DV?$string_output_adapter@D@__crt_stdio_output@@@2@@__crt_stdio_output@@AAEX_K_N@Z 10109be7 f i libucrt:output.obj
 0001:00108be7       ??$type_case_integer_parse_into_buffer@_K$0BA@@?$output_processor@DV?$string_output_adapter@D@__crt_stdio_output@@V?$standard_base@DV?$string_output_adapter@D@__crt_stdio_output@@@2@@__crt_stdio_output@@AAEX_K_N@Z 10109be7 f i libucrt:output.obj
 0001:00108c79       ??0?$output_adapter_data@DV?$string_output_adapter@D@__crt_stdio_output@@@__crt_stdio_output@@IAE@ABV?$string_output_adapter@D@1@_KQBDAAV__crt_cached_ptd_host@@QAD@Z 10109c79 f i libucrt:output.obj
 0001:00108ce0       ??1formatting_buffer@__crt_stdio_output@@QAE@XZ 10109ce0 f i libucrt:output.obj
 0001:00108cfa       ??4?$__crt_unique_heap_ptr@DU__crt_internal_free_policy@@@@QAEAAV0@$$QAV0@@Z 10109cfa f i libucrt:output.obj
 0001:00108d1e       ?crop_zeroes@__crt_stdio_output@@YAXPADQAU__crt_locale_pointers@@@Z 10109d1e f i libucrt:output.obj
 0001:00108d7e       ?find_next_state@?$output_processor@DV?$string_output_adapter@D@__crt_stdio_output@@V?$format_validation_base@DV?$string_output_adapter@D@__crt_stdio_output@@@2@@__crt_stdio_output@@ABE?AW4state@2@DW432@@Z 10109d7e f i libucrt:output.obj
 0001:00108dbb       ?find_next_state@?$output_processor@DV?$string_output_adapter@D@__crt_stdio_output@@V?$standard_base@DV?$string_output_adapter@D@__crt_stdio_output@@@2@@__crt_stdio_output@@ABE?AW4state@2@DW432@@Z 10109dbb f i libucrt:output.obj
 0001:00108df6       ?force_decimal_point@__crt_stdio_output@@YAXPADQAU__crt_locale_pointers@@@Z 10109df6 f i libucrt:output.obj
 0001:00108e52       ?parse_int_from_format_string@?$output_processor@DV?$string_output_adapter@D@__crt_stdio_output@@V?$format_validation_base@DV?$string_output_adapter@D@__crt_stdio_output@@@2@@__crt_stdio_output@@AAE_NQAH@Z 10109e52 f i libucrt:output.obj
 0001:00108e52       ?parse_int_from_format_string@?$output_processor@DV?$string_output_adapter@D@__crt_stdio_output@@V?$standard_base@DV?$string_output_adapter@D@__crt_stdio_output@@@2@@__crt_stdio_output@@AAE_NQAH@Z 10109e52 f i libucrt:output.obj
 0001:00108eca       ?process@?$output_processor@DV?$string_output_adapter@D@__crt_stdio_output@@V?$format_validation_base@DV?$string_output_adapter@D@__crt_stdio_output@@@2@@__crt_stdio_output@@QAEHXZ 10109eca f i libucrt:output.obj
 0001:001091aa       ?process@?$output_processor@DV?$string_output_adapter@D@__crt_stdio_output@@V?$standard_base@DV?$string_output_adapter@D@__crt_stdio_output@@@2@@__crt_stdio_output@@QAEHXZ 1010a1aa f i libucrt:output.obj
 0001:0010947e       ?state_case_size@?$output_processor@DV?$string_output_adapter@D@__crt_stdio_output@@V?$format_validation_base@DV?$string_output_adapter@D@__crt_stdio_output@@@2@@__crt_stdio_output@@AAE_NXZ 1010a47e f i libucrt:output.obj
 0001:0010947e       ?state_case_size@?$output_processor@DV?$string_output_adapter@D@__crt_stdio_output@@V?$standard_base@DV?$string_output_adapter@D@__crt_stdio_output@@@2@@__crt_stdio_output@@AAE_NXZ 1010a47e f i libucrt:output.obj
 0001:001095dc       ?state_case_type@?$output_processor@DV?$string_output_adapter@D@__crt_stdio_output@@V?$format_validation_base@DV?$string_output_adapter@D@__crt_stdio_output@@@2@@__crt_stdio_output@@AAE_NXZ 1010a5dc f i libucrt:output.obj
 0001:001095dc       ?state_case_type@?$output_processor@DV?$string_output_adapter@D@__crt_stdio_output@@V?$standard_base@DV?$string_output_adapter@D@__crt_stdio_output@@@2@@__crt_stdio_output@@AAE_NXZ 1010a5dc f i libucrt:output.obj
 0001:0010996a       ?to_integer_size@__crt_stdio_output@@YAIW4length_modifier@1@@Z 1010a96a f i libucrt:output.obj
 0001:001099be       ?type_case_Z@?$output_processor@DV?$string_output_adapter@D@__crt_stdio_output@@V?$format_validation_base@DV?$string_output_adapter@D@__crt_stdio_output@@@2@@__crt_stdio_output@@AAE_NXZ 1010a9be f i libucrt:output.obj
 0001:001099be       ?type_case_Z@?$output_processor@DV?$string_output_adapter@D@__crt_stdio_output@@V?$standard_base@DV?$string_output_adapter@D@__crt_stdio_output@@@2@@__crt_stdio_output@@AAE_NXZ 1010a9be f i libucrt:output.obj
 0001:00109a18       ?type_case_a@?$output_processor@DV?$string_output_adapter@D@__crt_stdio_output@@V?$format_validation_base@DV?$string_output_adapter@D@__crt_stdio_output@@@2@@__crt_stdio_output@@AAE_NXZ 1010aa18 f i libucrt:output.obj
 0001:00109a18       ?type_case_a@?$output_processor@DV?$string_output_adapter@D@__crt_stdio_output@@V?$standard_base@DV?$string_output_adapter@D@__crt_stdio_output@@@2@@__crt_stdio_output@@AAE_NXZ 1010aa18 f i libucrt:output.obj
 0001:00109ba2       ?type_case_c_tchar@?$output_processor@DV?$string_output_adapter@D@__crt_stdio_output@@V?$format_validation_base@DV?$string_output_adapter@D@__crt_stdio_output@@@2@@__crt_stdio_output@@AAE_ND@Z 1010aba2 f i libucrt:output.obj
 0001:00109ba2       ?type_case_c_tchar@?$output_processor@DV?$string_output_adapter@D@__crt_stdio_output@@V?$standard_base@DV?$string_output_adapter@D@__crt_stdio_output@@@2@@__crt_stdio_output@@AAE_ND@Z 1010aba2 f i libucrt:output.obj
 0001:00109c37       ?type_case_n@?$output_processor@DV?$string_output_adapter@D@__crt_stdio_output@@V?$format_validation_base@DV?$string_output_adapter@D@__crt_stdio_output@@@2@@__crt_stdio_output@@AAE_NXZ 1010ac37 f i libucrt:output.obj
 0001:00109c37       ?type_case_n@?$output_processor@DV?$string_output_adapter@D@__crt_stdio_output@@V?$standard_base@DV?$string_output_adapter@D@__crt_stdio_output@@@2@@__crt_stdio_output@@AAE_NXZ 1010ac37 f i libucrt:output.obj
 0001:00109cbb       ?type_case_o@?$output_processor@DV?$string_output_adapter@D@__crt_stdio_output@@V?$format_validation_base@DV?$string_output_adapter@D@__crt_stdio_output@@@2@@__crt_stdio_output@@AAE_NXZ 1010acbb f i libucrt:output.obj
 0001:00109cbb       ?type_case_o@?$output_processor@DV?$string_output_adapter@D@__crt_stdio_output@@V?$standard_base@DV?$string_output_adapter@D@__crt_stdio_output@@@2@@__crt_stdio_output@@AAE_NXZ 1010acbb f i libucrt:output.obj
 0001:00109cd8       ?type_case_p@?$output_processor@DV?$string_output_adapter@D@__crt_stdio_output@@V?$format_validation_base@DV?$string_output_adapter@D@__crt_stdio_output@@@2@@__crt_stdio_output@@AAE_NXZ 1010acd8 f i libucrt:output.obj
 0001:00109cd8       ?type_case_p@?$output_processor@DV?$string_output_adapter@D@__crt_stdio_output@@V?$standard_base@DV?$string_output_adapter@D@__crt_stdio_output@@@2@@__crt_stdio_output@@AAE_NXZ 1010acd8 f i libucrt:output.obj
 0001:00109cee       ?type_case_s@?$output_processor@DV?$string_output_adapter@D@__crt_stdio_output@@V?$format_validation_base@DV?$string_output_adapter@D@__crt_stdio_output@@@2@@__crt_stdio_output@@AAE_NXZ 1010acee f i libucrt:output.obj
 0001:00109cee       ?type_case_s@?$output_processor@DV?$string_output_adapter@D@__crt_stdio_output@@V?$standard_base@DV?$string_output_adapter@D@__crt_stdio_output@@@2@@__crt_stdio_output@@AAE_NXZ 1010acee f i libucrt:output.obj
 0001:00109d5f       ?unget@?$c_string_character_source@D@__crt_strtox@@QAEXD@Z 1010ad5f f i libucrt:output.obj
 0001:00109d88       ?unget@?$c_string_character_source@_W@__crt_strtox@@QAEX_W@Z 1010ad88 f i libucrt:output.obj
 0001:00109dc0       ?update_locale_slow@__crt_cached_ptd_host@@AAEXXZ 1010adc0 f i libucrt:output.obj
 0001:00109e1b       ?validate@?$c_string_character_source@D@__crt_strtox@@QBE_NXZ 1010ae1b f i libucrt:output.obj
 0001:00109e1b       ?validate@?$c_string_character_source@_W@__crt_strtox@@QBE_NXZ 1010ae1b f i libucrt:output.obj
 0001:00109e36       ?validate@?$string_output_adapter@D@__crt_stdio_output@@QBE_NAAV__crt_cached_ptd_host@@@Z 1010ae36 f i libucrt:output.obj
 0001:00109e67       ?write_string@?$string_output_adapter@D@__crt_stdio_output@@QBEXQBDHQAHAAV__crt_cached_ptd_host@@@Z 1010ae67 f i libucrt:output.obj
 0001:00109ece       ___acrt_locale_get_ctype_array_value 1010aece f i libucrt:output.obj
 0001:00109ef0       ___stdio_common_vsprintf   1010aef0 f   libucrt:output.obj
 0001:00109f31       ___stdio_common_vsprintf_s 1010af31 f   libucrt:output.obj
 0001:00109f72       _free                      1010af72 f   libucrt:free.obj
 0001:00109f8d       __fread_nolock_s           1010af8d f   libucrt:fread.obj
 0001:0010a173       _fread                     1010b173 f   libucrt:fread.obj
 0001:0010a190       _fread_s                   1010b190 f   libucrt:fread.obj
 0001:0010a2ae       ??$assemble_floating_point_snan@N@__crt_strtox@@YAX_NAAN@Z 1010b2ae f i libucrt:input.obj
 0001:0010a2cf       ??$assemble_floating_point_value_t@M@__crt_strtox@@YA?AW4SLD_STATUS@@_NH_KAAM@Z 1010b2cf f i libucrt:input.obj
 0001:0010a2ff       ??$assemble_floating_point_value_t@N@__crt_strtox@@YA?AW4SLD_STATUS@@_NH_KAAN@Z 1010b2ff f i libucrt:input.obj
 0001:0010a3f5       ??$convert_decimal_string_to_floating_type@M@__crt_strtox@@YA?AW4SLD_STATUS@@ABUfloating_point_string@0@AAM@Z 1010b3f5 f i libucrt:input.obj
 0001:0010a416       ??$convert_decimal_string_to_floating_type@N@__crt_strtox@@YA?AW4SLD_STATUS@@ABUfloating_point_string@0@AAN@Z 1010b416 f i libucrt:input.obj
 0001:0010a437       ??$convert_hexadecimal_string_to_floating_type@M@__crt_strtox@@YA?AW4SLD_STATUS@@ABUfloating_point_string@0@AAM@Z 1010b437 f i libucrt:input.obj
 0001:0010a458       ??$convert_hexadecimal_string_to_floating_type@N@__crt_strtox@@YA?AW4SLD_STATUS@@ABUfloating_point_string@0@AAN@Z 1010b458 f i libucrt:input.obj
 0001:0010a479       ??$is_overflow_condition@_K@__crt_strtox@@YA_NI_K@Z 1010b479 f i libucrt:input.obj
 0001:0010a4ba       ??$make_input_adapter_character_source@V?$string_input_adapter@D@__crt_stdio_input@@@__crt_strtox@@YA?AV?$input_adapter_character_source@V?$string_input_adapter@D@__crt_stdio_input@@@0@QAV?$string_input_adapter@D@__crt_stdio_input@@_KQA_N@Z 1010b4ba f i libucrt:input.obj
 0001:0010a4d8       ??$parse_floating_point@V?$input_adapter_character_source@V?$string_input_adapter@D@__crt_stdio_input@@@__crt_strtox@@M@__crt_strtox@@YA?AW4SLD_STATUS@@QAU__crt_locale_pointers@@V?$input_adapter_character_source@V?$string_input_adapter@D@__crt_stdio_input@@@0@QAM@Z 1010b4d8 f i libucrt:input.obj
 0001:0010a562       ??$parse_floating_point@V?$input_adapter_character_source@V?$string_input_adapter@D@__crt_stdio_input@@@__crt_strtox@@N@__crt_strtox@@YA?AW4SLD_STATUS@@QAU__crt_locale_pointers@@V?$input_adapter_character_source@V?$string_input_adapter@D@__crt_stdio_input@@@0@QAN@Z 1010b562 f i libucrt:input.obj
 0001:0010a5ec       ??$parse_floating_point_from_source@V?$input_adapter_character_source@V?$string_input_adapter@D@__crt_stdio_input@@@__crt_strtox@@@__crt_strtox@@YA?AW4floating_point_parse_result@0@QAU__crt_locale_pointers@@AAV?$input_adapter_character_source@V?$string_input_adapter@D@__crt_stdio_input@@@0@AAUfloating_point_string@0@@Z 1010b5ec f i libucrt:input.obj
 0001:0010aa37       ??$parse_floating_point_possible_infinity@DV?$input_adapter_character_source@V?$string_input_adapter@D@__crt_stdio_input@@@__crt_strtox@@_K@__crt_strtox@@YA?AW4floating_point_parse_result@0@AADAAV?$input_adapter_character_source@V?$string_input_adapter@D@__crt_stdio_input@@@0@_K@Z 1010ba37 f i libucrt:input.obj
 0001:0010aaf6       ??$parse_floating_point_possible_nan@DV?$input_adapter_character_source@V?$string_input_adapter@D@__crt_stdio_input@@@__crt_strtox@@_K@__crt_strtox@@YA?AW4floating_point_parse_result@0@AADAAV?$input_adapter_character_source@V?$string_input_adapter@D@__crt_stdio_input@@@0@_K@Z 1010baf6 f i libucrt:input.obj
 0001:0010abfe       ??$parse_floating_point_possible_nan_is_ind@DV?$input_adapter_character_source@V?$string_input_adapter@D@__crt_stdio_input@@@__crt_strtox@@@__crt_strtox@@YA_NAADAAV?$input_adapter_character_source@V?$string_input_adapter@D@__crt_stdio_input@@@0@@Z 1010bbfe f i libucrt:input.obj
 0001:0010ac38       ??$parse_floating_point_possible_nan_is_snan@DV?$input_adapter_character_source@V?$string_input_adapter@D@__crt_stdio_input@@@__crt_strtox@@@__crt_strtox@@YA_NAADAAV?$input_adapter_character_source@V?$string_input_adapter@D@__crt_stdio_input@@@0@@Z 1010bc38 f i libucrt:input.obj
 0001:0010ac72       ??$parse_floating_point_write_result@M@__crt_strtox@@YA?AW4SLD_STATUS@@W4floating_point_parse_result@0@ABUfloating_point_string@0@QAM@Z 1010bc72 f i libucrt:input.obj
 0001:0010adde       ??$parse_floating_point_write_result@N@__crt_strtox@@YA?AW4SLD_STATUS@@W4floating_point_parse_result@0@ABUfloating_point_string@0@QAN@Z 1010bdde f i libucrt:input.obj
 0001:0010af02       ??$parse_integer@_KV?$input_adapter_character_source@V?$string_input_adapter@D@__crt_stdio_input@@@__crt_strtox@@$00@__crt_strtox@@YA_KAAV__crt_cached_ptd_host@@V?$input_adapter_character_source@V?$string_input_adapter@D@__crt_stdio_input@@@0@H_N@Z 1010bf02 f i libucrt:input.obj
 0001:0010b206       ??$parse_integer@_KV?$input_adapter_character_source@V?$string_input_adapter@D@__crt_stdio_input@@@__crt_strtox@@@__crt_strtox@@YA_KQAU__crt_locale_pointers@@V?$input_adapter_character_source@V?$string_input_adapter@D@__crt_stdio_input@@@0@H_N@Z 1010c206 f i libucrt:input.obj
 0001:0010b262       ??$process_floating_point_specifier_t@M@?$input_processor@DV?$string_input_adapter@D@__crt_stdio_input@@@__crt_stdio_input@@AAE_NXZ 1010c262 f i libucrt:input.obj
 0001:0010b2cb       ??$process_floating_point_specifier_t@N@?$input_processor@DV?$string_input_adapter@D@__crt_stdio_input@@@__crt_stdio_input@@AAE_NXZ 1010c2cb f i libucrt:input.obj
 0001:0010b334       ??$process_string_specifier_tchar@D@?$input_processor@DV?$string_input_adapter@D@__crt_stdio_input@@@__crt_stdio_input@@AAE_NW4conversion_mode@1@D@Z 1010c334 f i libucrt:input.obj
 0001:0010b496       ??$process_string_specifier_tchar@_W@?$input_processor@DV?$string_input_adapter@D@__crt_stdio_input@@@__crt_stdio_input@@AAE_NW4conversion_mode@1@_W@Z 1010c496 f i libucrt:input.obj
 0001:0010b605       ??$skip_whitespace@Vstring_input_adapter@__crt_stdio_input@@D@__crt_stdio_input@@YAHAAV?$string_input_adapter@D@0@QAU__crt_locale_pointers@@@Z 1010c605 f i libucrt:input.obj
 0001:0010b634       ??$write_floating_point@M@?$input_processor@DV?$string_input_adapter@D@__crt_stdio_input@@@__crt_stdio_input@@AAE_NABM@Z 1010c634 f i libucrt:input.obj
 0001:0010b668       ??$write_floating_point@N@?$input_processor@DV?$string_input_adapter@D@__crt_stdio_input@@@__crt_stdio_input@@AAE_NABN@Z 1010c668 f i libucrt:input.obj
 0001:0010b6a2       ??0?$format_string_parser@D@__crt_stdio_input@@QAE@_KQBE@Z 1010c6a2 f i libucrt:input.obj
 0001:0010b6ec       ??0?$input_adapter_character_source@V?$string_input_adapter@D@__crt_stdio_input@@@__crt_strtox@@QAE@$$QAV01@@Z 1010c6ec f i libucrt:input.obj
 0001:0010b729       ??0?$input_adapter_character_source@V?$string_input_adapter@D@__crt_stdio_input@@@__crt_strtox@@QAE@QAV?$string_input_adapter@D@__crt_stdio_input@@_KQA_N@Z 1010c729 f i libucrt:input.obj
 0001:0010b75a       ??0?$input_processor@DV?$string_input_adapter@D@__crt_stdio_input@@@__crt_stdio_input@@QAE@ABV?$string_input_adapter@D@1@_KQBDQAU__crt_locale_pointers@@QAD@Z 1010c75a f i libucrt:input.obj
 0001:0010b79e       ??R<lambda_644f8ab42ed3fd1d660977a2364b3a7d>@@QBE_NXZ 1010c79e f i libucrt:input.obj
 0001:0010b79e       ??R<lambda_f1fa4c266c18b246f3ed9c36247dab4f>@@QBE_NXZ 1010c79e f i libucrt:input.obj
 0001:0010b79e       ??R<lambda_f765c90ab33e8386abf09c0f079d37e9>@@QBE_NXZ 1010c79e f i libucrt:input.obj
 0001:0010b7c8       ?advance@?$format_string_parser@D@__crt_stdio_input@@QAE_NXZ 1010c7c8 f i libucrt:input.obj
 0001:0010b8e0       ?as_double@floating_point_value@__crt_strtox@@QBEAANXZ 1010c8e0 f i libucrt:input.obj
 0001:0010b905       ?as_float@floating_point_value@__crt_strtox@@QBEAAMXZ 1010c905 f i libucrt:input.obj
 0001:0010b92a       ?assemble_floating_point_infinity@__crt_strtox@@YAX_NABVfloating_point_value@1@@Z 1010c92a f i libucrt:input.obj
 0001:0010b96a       ?assemble_floating_point_value@__crt_strtox@@YA?AW4SLD_STATUS@@_KH_N1ABVfloating_point_value@1@@Z 1010c96a f i libucrt:input.obj
 0001:0010bcbd       ?assemble_floating_point_value_from_big_integer@__crt_strtox@@YA?AW4SLD_STATUS@@ABUbig_integer@1@I_N1ABVfloating_point_value@1@@Z 1010ccbd f i libucrt:input.obj
 0001:0010be4f       ?assemble_floating_point_zero@__crt_strtox@@YAX_NABVfloating_point_value@1@@Z 1010ce4f f i libucrt:input.obj
 0001:0010be84       ?convert_decimal_string_to_floating_type_common@__crt_strtox@@YA?AW4SLD_STATUS@@ABUfloating_point_string@1@ABVfloating_point_value@1@@Z 1010ce84 f i libucrt:input.obj
 0001:0010dba3       ?convert_hexadecimal_string_to_floating_type_common@__crt_strtox@@YA?AW4SLD_STATUS@@ABUfloating_point_string@1@ABVfloating_point_value@1@@Z 1010eba3 f i libucrt:input.obj
 0001:0010dc49       ?denormal_mantissa_mask@floating_point_value@__crt_strtox@@QBE_KXZ 1010ec49 f i libucrt:input.obj
 0001:0010dc60       ?divide@__crt_strtox@@YA_KAAUbig_integer@1@ABU21@@Z 1010ec60 f i libucrt:input.obj
 0001:0010e0e8       ?get@?$input_adapter_character_source@V?$string_input_adapter@D@__crt_stdio_input@@@__crt_strtox@@QAEDXZ 1010f0e8 f i libucrt:input.obj
 0001:0010e11f       ?get@?$string_input_adapter@D@__crt_stdio_input@@QAEHXZ 1010f11f f i libucrt:input.obj
 0001:0010e135       ?is_character_allowed_in_string@?$input_processor@DV?$string_input_adapter@D@__crt_stdio_input@@@__crt_stdio_input@@ABE_NW4conversion_mode@2@H@Z 1010f135 f i libucrt:input.obj
 0001:0010e185       ?length@?$format_string_parser@D@__crt_stdio_input@@QBEIXZ 1010f185 f i libucrt:input.obj
 0001:0010e1c6       ?normal_mantissa_mask@floating_point_value@__crt_strtox@@QBE_KXZ 1010f1c6 f i libucrt:input.obj
 0001:0010e1dd       ?process@?$input_processor@DV?$string_input_adapter@D@__crt_stdio_input@@@__crt_stdio_input@@QAEHXZ 1010f1dd f i libucrt:input.obj
 0001:0010e261       ?process_character_count_specifier@?$input_processor@DV?$string_input_adapter@D@__crt_stdio_input@@@__crt_stdio_input@@AAE_NXZ 1010f261 f i libucrt:input.obj
 0001:0010e279       ?process_conversion_specifier@?$input_processor@DV?$string_input_adapter@D@__crt_stdio_input@@@__crt_stdio_input@@AAE_NXZ 1010f279 f i libucrt:input.obj
 0001:0010e2ed       ?process_floating_point_specifier@?$input_processor@DV?$string_input_adapter@D@__crt_stdio_input@@@__crt_stdio_input@@AAE_NXZ 1010f2ed f i libucrt:input.obj
 0001:0010e31d       ?process_integer_specifier@?$input_processor@DV?$string_input_adapter@D@__crt_stdio_input@@@__crt_stdio_input@@AAE_NI_N@Z 1010f31d f i libucrt:input.obj
 0001:0010e382       ?process_literal_character@?$input_processor@DV?$string_input_adapter@D@__crt_stdio_input@@@__crt_stdio_input@@AAE_NXZ 1010f382 f i libucrt:input.obj
 0001:0010e3b8       ?process_literal_character_tchar@?$input_processor@DV?$string_input_adapter@D@__crt_stdio_input@@@__crt_stdio_input@@AAE_ND@Z 1010f3b8 f i libucrt:input.obj
 0001:0010e406       ?process_state@?$input_processor@DV?$string_input_adapter@D@__crt_stdio_input@@@__crt_stdio_input@@AAE_NXZ 1010f406 f i libucrt:input.obj
 0001:0010e448       ?process_string_specifier@?$input_processor@DV?$string_input_adapter@D@__crt_stdio_input@@@__crt_stdio_input@@AAE_NW4conversion_mode@2@@Z 1010f448 f i libucrt:input.obj
 0001:0010e490       ?process_whitespace@?$input_processor@DV?$string_input_adapter@D@__crt_stdio_input@@@__crt_stdio_input@@AAE_NXZ 1010f490 f i libucrt:input.obj
 0001:0010e4ad       ?restore_state@?$input_adapter_character_source@V?$string_input_adapter@D@__crt_stdio_input@@@__crt_strtox@@QAE_N_K@Z 1010f4ad f i libucrt:input.obj
 0001:0010e4d2       ?scan_conversion_specifier@?$format_string_parser@D@__crt_stdio_input@@AAE_NXZ 1010f4d2 f i libucrt:input.obj
 0001:0010e63d       ?scan_optional_field_width@?$format_string_parser@D@__crt_stdio_input@@AAE_NXZ 1010f63d f i libucrt:input.obj
 0001:0010e6d1       ?scan_optional_length_modifier@?$format_string_parser@D@__crt_stdio_input@@AAEXXZ 1010f6d1 f i libucrt:input.obj
 0001:0010e7e4       ?scan_optional_literal_character_trail_bytes_tchar@?$format_string_parser@D@__crt_stdio_input@@AAE_ND@Z 1010f7e4 f i libucrt:input.obj
 0001:0010e836       ?scan_optional_wide_modifier@?$format_string_parser@D@__crt_stdio_input@@AAEXXZ 1010f836 f i libucrt:input.obj
 0001:0010e854       ?scan_scanset_range@?$format_string_parser@D@__crt_stdio_input@@AAE_NXZ 1010f854 f i libucrt:input.obj
 0001:0010e995       ?set_wide_for_c_s_or_scanset@?$format_string_parser@D@__crt_stdio_input@@AAEXXZ 1010f995 f i libucrt:input.obj
 0001:0010e9b6       ?to_floating_point_length@__crt_stdio_input@@YAIW4length_modifier@1@@Z 1010f9b6 f i libucrt:input.obj
 0001:0010e9d9       ?to_integer_length@__crt_stdio_input@@YAIW4length_modifier@1@@Z 1010f9d9 f i libucrt:input.obj
 0001:0010ea2c       ?unget@?$input_adapter_character_source@V?$string_input_adapter@D@__crt_stdio_input@@@__crt_strtox@@QAEXD@Z 1010fa2c f i libucrt:input.obj
 0001:0010ea73       ?unget@?$string_input_adapter@D@__crt_stdio_input@@QAEXH@Z 1010fa73 f i libucrt:input.obj
 0001:0010ea92       ?validate@?$format_string_parser@D@__crt_stdio_input@@QBE_NXZ 1010fa92 f i libucrt:input.obj
 0001:0010eaae       ?validate@?$input_adapter_character_source@V?$string_input_adapter@D@__crt_stdio_input@@@__crt_strtox@@QBE_NXZ 1010faae f i libucrt:input.obj
 0001:0010eacf       ?validate@?$string_input_adapter@D@__crt_stdio_input@@QAE_NXZ 1010facf f i libucrt:input.obj
 0001:0010eaf1       ?write_character@?$input_processor@DV?$string_input_adapter@D@__crt_stdio_input@@@__crt_stdio_input@@AAE_NQA_WIAAPA_WAAID@Z 1010faf1 f i libucrt:input.obj
 0001:0010eb5e       ?write_integer@?$input_processor@DV?$string_input_adapter@D@__crt_stdio_input@@@__crt_stdio_input@@AAE_N_K@Z 1010fb5e f i libucrt:input.obj
 0001:0010ebcc       ___stdio_common_vsscanf    1010fbcc f   libucrt:input.obj
 0001:0010ebf0       __ischartype_l             1010fbf0 f i libucrt:input.obj
 0001:0010ec47       ?check_synchronize_global_state_index@__crt_cached_ptd_host@@AAEIXZ 1010fc47 f i libucrt:invalid_parameter.obj
 0001:0010ec70       ___acrt_call_reportfault   1010fc70 f   libucrt:invalid_parameter.obj
 0001:0010eda9       ___acrt_initialize_invalid_parameter_handler 1010fda9 f   libucrt:invalid_parameter.obj
 0001:0010edb8       __invalid_parameter        1010fdb8 f   libucrt:invalid_parameter.obj
 0001:0010edef       __invalid_parameter_internal 1010fdef f   libucrt:invalid_parameter.obj
 0001:0010ee6c       __invalid_parameter_noinfo 1010fe6c f   libucrt:invalid_parameter.obj
 0001:0010ee7c       __invalid_parameter_noinfo_noreturn 1010fe7c f   libucrt:invalid_parameter.obj
 0001:0010ee99       __invoke_watson            1010fe99 f   libucrt:invalid_parameter.obj
 0001:0010eecd       _malloc                    1010fecd f   libucrt:malloc.obj
 0001:0010eee0       _modf                      1010fee0 f   libucrt:modf_pentium4.obj
 0001:0010ef20       __modf_pentium4            1010ff20 f   libucrt:modf_pentium4.obj
 0001:0010f028       __copysign                 10110028 f   libucrt:ieeemisc.obj
 0001:0010f04b       __finite                   1011004b f   libucrt:ieeemisc.obj
 0001:0010f065       __fpclass                  10110065 f   libucrt:ieeemisc.obj
 0001:0010f109       __isnan                    10110109 f   libucrt:ieeemisc.obj
 0001:0010f13f       _abort                     1011013f f   libucrt:abort.obj
 0001:0010f183       _calloc                    10110183 f   libucrt:calloc.obj
 0001:0010f18e       _localeconv                1011018e f   libucrt:localeconv.obj
 0001:0010f1b6       ___acrt_errno_from_os_error 101101b6 f   libucrt:errno.obj
 0001:0010f1f9       ___acrt_errno_map_os_error 101101f9 f   libucrt:errno.obj
 0001:0010f21c       ___acrt_errno_map_os_error_ptd 1011021c f   libucrt:errno.obj
 0001:0010f240       ___doserrno                10110240 f   libucrt:errno.obj
 0001:0010f253       __errno                    10110253 f   libucrt:errno.obj
 0001:0010f2ca       ___acrt_initialize_clock   101102ca f   libucrt:clock.obj
 0001:0010f32f       _clock                     1011032f f   libucrt:clock.obj
 0001:0010f4b6       __fputc_nolock_internal    101104b6 f   libucrt:fputc.obj
 0001:0010f4e3       _fputc                     101104e3 f   libucrt:fputc.obj
 0001:0010f517       __fgetc_nolock             10110517 f   libucrt:fgetc.obj
 0001:0010f553       _fgetc                     10110553 f   libucrt:fgetc.obj
 0001:0010f65f       _fgetpos                   1011065f f   libucrt:fgetpos.obj
 0001:0010f87e       _setvbuf                   1011087e f   libucrt:setvbuf.obj
 0001:0010f8b8       __ungetc_nolock            101108b8 f   libucrt:ungetc.obj
 0001:0010f9b1       _ungetc                    101109b1 f   libucrt:ungetc.obj
 0001:0010fa24       _fsetpos                   10110a24 f   libucrt:fsetpos.obj
 0001:0010fa5f       ??$__acrt_convert_wcs_mbs_cp@D_WV<lambda_62f6974d9771e494a5ea317cc32e971c>@@U__crt_win32_buffer_internal_dynamic_resizing@@@@YAHQBDAAV?$__crt_win32_buffer@_WU__crt_win32_buffer_internal_dynamic_resizing@@@@ABV<lambda_62f6974d9771e494a5ea317cc32e971c>@@I@Z 10110a5f f i libucrt:unlink.obj
 0001:0010fb11       ??$__acrt_mbs_to_wcs_cp@U__crt_win32_buffer_internal_dynamic_resizing@@@@YAHQBDAAV?$__crt_win32_buffer@_WU__crt_win32_buffer_internal_dynamic_resizing@@@@I@Z 10110b11 f i libucrt:unlink.obj
 0001:0010fb2e       ?__acrt_get_utf8_acp_compatibility_codepage@@YAIXZ 10110b2e f i libucrt:unlink.obj
 0001:0010fb6d       ?_deallocate@?$__crt_win32_buffer@DU__crt_win32_buffer_internal_dynamic_resizing@@@@AAEXXZ 10110b6d f i libucrt:argv_wildcards.obj
 0001:0010fb6d       ?_deallocate@?$__crt_win32_buffer@_WU__crt_win32_buffer_internal_dynamic_resizing@@@@AAEXXZ 10110b6d f i libucrt:unlink.obj
 0001:0010fb87       ?allocate@?$__crt_win32_buffer@_WU__crt_win32_buffer_internal_dynamic_resizing@@@@QAEHI@Z 10110b87 f i libucrt:unlink.obj
 0001:0010fbc6       ?allocate@__crt_win32_buffer_internal_dynamic_resizing@@SAHQAPAXIABV__crt_win32_buffer_empty_debug_info@@@Z 10110bc6 f i libucrt:unlink.obj
 0001:0010fbe5       _remainderf                10110be5 f   libucrt:remainderf_.obj
 0001:0010fd61       __beginthreadex            10110d61 f   libucrt:thread.obj
 0001:0010fde4       __endthreadex              10110de4 f   libucrt:thread.obj
 0001:0010fdf2       _terminate                 10110df2 f   libucrt:terminate.obj
 0001:0010fe2e       ??$parse_integer@KV?$c_string_character_source@D@__crt_strtox@@$00@__crt_strtox@@YAKAAV__crt_cached_ptd_host@@V?$c_string_character_source@D@0@H_N@Z 10110e2e f i libucrt:atox.obj
 0001:00110075       ??$parse_integer@KV?$c_string_character_source@_W@__crt_strtox@@$00@__crt_strtox@@YAKAAV__crt_cached_ptd_host@@V?$c_string_character_source@_W@0@H_N@Z 10111075 f i libucrt:atox.obj
 0001:0011067f       ??$parse_integer@_KV?$c_string_character_source@D@__crt_strtox@@$00@__crt_strtox@@YA_KAAV__crt_cached_ptd_host@@V?$c_string_character_source@D@0@H_N@Z 1011167f f i libucrt:atox.obj
 0001:00110947       __wtol                     10111947 f   libucrt:atox.obj
 0001:00110986       _atoll                     10111986 f   libucrt:atox.obj
 0001:001109cb       _roundf                    101119cb f   libucrt:roundf.obj
 0001:00110a20       _islower                   10111a20 f   libucrt:_ctype.obj
 0001:00110ab0       _isspace                   10111ab0 f   libucrt:_ctype.obj
 0001:00110b40       _isupper                   10111b40 f   libucrt:_ctype.obj
 0001:00110bc4       ___acrt_initialize_locks   10111bc4 f   libucrt:locks.obj
 0001:00110c05       ___acrt_lock               10111c05 f   libucrt:locks.obj
 0001:00110c1c       ___acrt_uninitialize_locks 10111c1c f   libucrt:locks.obj
 0001:00110c4d       ___acrt_unlock             10111c4d f   libucrt:locks.obj
 0001:00110c64       __lock_locales             10111c64 f   libucrt:locks.obj
 0001:00110c72       __unlock_locales           10111c72 f   libucrt:locks.obj
 0001:00110ed0       _setlocale                 10111ed0 f   libucrt:setlocale.obj
 0001:00110f08       ___pctype_func             10111f08 f   libucrt:ctype.obj
 0001:00110f2c       ____lc_codepage_func       10111f2c f   libucrt:initctype.obj
 0001:00110f51       ____lc_locale_name_func    10111f51 f   libucrt:initctype.obj
 0001:00110f78       ___acrt_locale_initialize_ctype 10111f78 f   libucrt:initctype.obj
 0001:001113d5       __wcsdup                   101123d5 f   libucrt:wcsdup.obj
 0001:00111440       _strcspn                   10112440 f   libucrt:strcspn.obj
 0001:00111490       __CIpow                    10112490 f   libucrt:pow_impl.obj
 0001:001114cb       __CIpow_default            101124cb f   libucrt:pow_impl.obj
 0001:001114e4       __pow_default              101124e4     libucrt:pow_impl.obj
 0001:001116d9       ___strncnt                 101126d9 f   libucrt:strncnt.obj
 0001:001116f5       ??$__acrt_convert_wcs_mbs_cp@_WDV<lambda_0fec1a7b3f42a53036604e18c2d5e07e>@@U__crt_win32_buffer_no_resizing@@@@YAHQB_WAAV?$__crt_win32_buffer@DU__crt_win32_buffer_no_resizing@@@@ABV<lambda_0fec1a7b3f42a53036604e18c2d5e07e>@@I@Z 101126f5 f i libucrt:strftime.obj
 0001:001117b7       ??R<lambda_0fec1a7b3f42a53036604e18c2d5e07e>@@QBEHIQB_WQADI@Z 101127b7 f i libucrt:strftime.obj
 0001:001117b7       ??R<lambda_28bda7af82a03b66c1cb3803a755f95d>@@QBEHIQB_WQADI@Z 101127b7 f i libucrt:argv_wildcards.obj
 0001:001117db       ?allocate@?$__crt_win32_buffer@DU__crt_win32_buffer_no_resizing@@@@QAEHI@Z 101127db f i libucrt:strftime.obj
 0001:00111802       ?set_to_nullptr@?$__crt_win32_buffer@DU__crt_win32_buffer_no_resizing@@@@QAEXXZ 10112802 f i libucrt:strftime.obj
 0001:00111816       _strnlen                   10112816 f   libucrt:strnlen.obj
 0001:00111938       _wcsnlen                   10112938 f   libucrt:strnlen.obj
 0001:00111ae8       ___acrt_initialize_new_handler 10112ae8 f   libucrt:new_handler.obj
 0001:00111af7       __callnewh                 10112af7 f   libucrt:new_handler.obj
 0001:00111b24       __query_new_handler        10112b24 f   libucrt:new_handler.obj
 0001:00111b80       __seh_filter_dll           10112b80 f   libucrt:exception_filter.obj
 0001:00111ba0       __seh_filter_exe           10112ba0 f   libucrt:exception_filter.obj
 0001:00111fcd       ___acrt_initialize_thread_local_exit_callback 10112fcd f   libucrt:exit.obj
 0001:00111fdc       __cexit                    10112fdc f   libucrt:exit.obj
 0001:00111feb       __exit                     10112feb f   libucrt:exit.obj
 0001:00112001       __is_c_termination_complete 10113001 f   libucrt:exit.obj
 0001:001122b9       ___acrt_allocate_buffer_for_argv 101132b9 f   libucrt:argv_parsing.obj
 0001:00112308       __configure_narrow_argv    10113308 f   libucrt:argv_parsing.obj
 0001:001124b4       ___dcrt_uninitialize_environments_nolock 101134b4 f   libucrt:environment_initialization.obj
 0001:00112505       __initialize_narrow_environment 10113505 f   libucrt:environment_initialization.obj
 0001:001125c0       ??$__crt_fast_encode_pointer@P6AHXZ@@YAP6AHXZQ6AHXZ@Z 101135c0 f i libucrt:onexit.obj
 0001:001125c0       ??$__crt_fast_encode_pointer@P6GHPA_WKJ@Z@@YAP6GHPA_WKJ@ZQ6GH0KJ@Z@Z 101135c0 f i libucrt:winapi_thunks.obj
 0001:001125c0       ??$__crt_fast_encode_pointer@PAP6AXXZ@@YAPAP6AXXZQAP6AXXZ@Z 101135c0 f i libucrt:onexit.obj
 0001:001125c0       ??$__crt_fast_encode_pointer@PAX@@YAPAXQAX@Z 101135c0 f i libucrt:initialization.obj
 0001:001127bb       __crt_atexit               101137bb f   libucrt:onexit.obj
 0001:001127d1       __execute_onexit_table     101137d1 f   libucrt:onexit.obj
 0001:0011280f       __initialize_onexit_table  1011380f f   libucrt:onexit.obj
 0001:00112838       __register_onexit_function 10113838 f   libucrt:onexit.obj
 0001:00112966       ___acrt_initialize         10113966 f   libucrt:initialization.obj
 0001:00112978       ___acrt_thread_attach      10113978 f   libucrt:initialization.obj
 0001:00112983       ___acrt_thread_detach      10113983 f   libucrt:initialization.obj
 0001:0011298b       ___acrt_uninitialize       1011398b f   libucrt:initialization.obj
 0001:001129bb       ___acrt_uninitialize_critical 101139bb f   libucrt:initialization.obj
 0001:001129cd       __aligned_free             101139cd f   libucrt:align.obj
 0001:001129e7       __aligned_malloc           101139e7 f   libucrt:align.obj
 0001:00112a4c       __initterm                 10113a4c f   libucrt:initterm.obj
 0001:00112a77       __initterm_e               10113a77 f   libucrt:initterm.obj
 0001:00112aa5       _strcat_s                  10113aa5 f   libucrt:strcat_s.obj
 0001:00112b10       _strncmp                   10113b10 f   libucrt:strncmp.obj
 0001:00112b88       _wcsncmp                   10113b88 f   libucrt:wcsncmp.obj
 0001:00112bc2       __fileno                   10113bc2 f   libucrt:fileno.obj
 0001:00112d92       __lseeki64                 10113d92 f   libucrt:lseek.obj
 0001:00112dd2       __lseeki64_internal        10113dd2 f   libucrt:lseek.obj
 0001:00112df0       __lseeki64_nolock          10113df0 f   libucrt:lseek.obj
 0001:00112e30       __lseeki64_nolock_internal 10113e30 f   libucrt:lseek.obj
 0001:0011318c       ___acrt_freeptd            1011418c f   libucrt:per_thread_data.obj
 0001:001131b8       ___acrt_getptd             101141b8 f   libucrt:per_thread_data.obj
 0001:00113273       ___acrt_getptd_head        10114273 f   libucrt:per_thread_data.obj
 0001:00113309       ___acrt_getptd_noexit      10114309 f   libucrt:per_thread_data.obj
 0001:001133ba       ___acrt_getptd_noexit_explicit 101143ba f   libucrt:per_thread_data.obj
 0001:0011345d       ___acrt_initialize_ptd     1011445d f   libucrt:per_thread_data.obj
 0001:00113489       ___acrt_uninitialize_ptd   10114489 f   libucrt:per_thread_data.obj
 0001:001135a3       ??0_expandlocale_locale_name_cache@@QAE@QA_WIQAU__crt_qualified_locale_data@@@Z 101145a3 f i libucrt:wsetlocale.obj
 0001:001135ed       ??1_expandlocale_locale_name_cache@@QAE@XZ 101145ed f i libucrt:wsetlocale.obj
 0001:00113785       ?commit_locale_name@_expandlocale_locale_name_cache@@QAEXQB_WI@Z 10114785 f i libucrt:wsetlocale.obj
 0001:001137c9       ?commit_locale_name_cache_already_updated@_expandlocale_locale_name_cache@@QAEXQB_WI@Z 101147c9 f i libucrt:wsetlocale.obj
 0001:001137fe       ___acrt_copy_locale_name   101147fe f   libucrt:wsetlocale.obj
 0001:0011385e       ___acrt_set_locale_changed 1011485e f   libucrt:wsetlocale.obj
 0001:00113869       ___acrt_uninitialize_locale 10114869 f   libucrt:wsetlocale.obj
 0001:00113890       ___lc_lctowcs              10114890 f   libucrt:wsetlocale.obj
 0001:00113900       ___lc_wcstolc              10114900 f   libucrt:wsetlocale.obj
 0001:00113e45       __wcscats                  10114e45 f   libucrt:wsetlocale.obj
 0001:00113e86       __wsetlocale               10114e86 f   libucrt:wsetlocale.obj
 0001:0011502d       __read                     1011602d f   libucrt:read.obj
 0001:00115141       __read_nolock              10116141 f   libucrt:read.obj
 0001:00115646       ___acrt_initialize_lowio   10116646 f   libucrt:ioinit.obj
 0001:001156a6       ___acrt_uninitialize_lowio 101166a6 f   libucrt:ioinit.obj
 0001:001158c0       ___acrt_LCMapStringA       101168c0 f   libucrt:lcmapstringa.obj
 0001:00115909       ___acrt_update_locale_info 10116909 f   libucrt:locale_update.obj
 0001:00115936       ___acrt_update_locale_info_explicit 10116936 f   libucrt:locale_update.obj
 0001:00115967       ___acrt_update_multibyte_info 10116967 f   libucrt:locale_update.obj
 0001:00115994       ___acrt_update_multibyte_info_explicit 10116994 f   libucrt:locale_update.obj
 0001:001159c5       __calloc_base              101169c5 f   libucrt:calloc_base.obj
 0001:00115a22       __free_base                10116a22 f   libucrt:free_base.obj
 0001:00115d80       ___acrt_AppPolicyGetProcessTerminationMethodInternal@4 10116d80 f   libucrt:winapi_thunks.obj
 0001:00115dc0       ___acrt_AppPolicyGetThreadInitializationTypeInternal@4 10116dc0 f   libucrt:winapi_thunks.obj
 0001:00115e00       ___acrt_AreFileApisANSI@0  10116e00 f   libucrt:winapi_thunks.obj
 0001:00115e1f       ___acrt_EnumSystemLocalesEx@16 10116e1f f   libucrt:winapi_thunks.obj
 0001:00115e73       ___acrt_FlsAlloc@4         10116e73 f   libucrt:winapi_thunks.obj
 0001:00115eb2       ___acrt_FlsFree@4          10116eb2 f   libucrt:winapi_thunks.obj
 0001:00115ef1       ___acrt_FlsGetValue@4      10116ef1 f   libucrt:winapi_thunks.obj
 0001:00115f30       ___acrt_FlsSetValue@8      10116f30 f   libucrt:winapi_thunks.obj
 0001:00115f72       ___acrt_GetLocaleInfoEx@16 10116f72 f   libucrt:winapi_thunks.obj
 0001:00115fb1       ___acrt_GetUserDefaultLocaleName@8 10116fb1 f   libucrt:winapi_thunks.obj
 0001:00115fef       ___acrt_InitializeCriticalSectionEx@12 10116fef f   libucrt:winapi_thunks.obj
 0001:0011603a       ___acrt_IsValidLocaleName@4 1011703a f   libucrt:winapi_thunks.obj
 0001:00116072       ___acrt_LCIDToLocaleName@16 10117072 f   libucrt:winapi_thunks.obj
 0001:001160b1       ___acrt_LCMapStringEx@36   101170b1 f   libucrt:winapi_thunks.obj
 0001:0011610e       ___acrt_LocaleNameToLCID@8 1011710e f   libucrt:winapi_thunks.obj
 0001:0011613f       ___acrt_RoInitialize@4     1011713f f   libucrt:winapi_thunks.obj
 0001:0011617a       ___acrt_RoUninitialize@0   1011717a f   libucrt:winapi_thunks.obj
 0001:001161a8       ___acrt_can_use_vista_locale_apis 101171a8 f   libucrt:winapi_thunks.obj
 0001:001161b3       ___acrt_eagerly_load_locale_apis 101171b3 f   libucrt:winapi_thunks.obj
 0001:001161ea       ___acrt_initialize_winapi_thunks 101171ea f   libucrt:winapi_thunks.obj
 0001:001161fe       ___acrt_uninitialize_winapi_thunks 101171fe f   libucrt:winapi_thunks.obj
 0001:00116234       __fcloseall                10117234 f   libucrt:closeall.obj
 0001:001162df       ___acrt_stdio_free_buffer_nolock 101172df f   libucrt:_freebuf.obj
 0001:001163c1       __commit                   101173c1 f   libucrt:commit.obj
 0001:00116bec       __write                    10117bec f   libucrt:write.obj
 0001:00116c23       __write_internal           10117c23 f   libucrt:write.obj
 0001:00116d2b       __write_nolock             10117d2b f   libucrt:write.obj
 0001:00116fbc       __close_internal           10117fbc f   libucrt:close.obj
 0001:0011705f       __close_nolock             1011805f f   libucrt:close.obj
 0001:0011708f       __close_nolock_internal    1011808f f   libucrt:close.obj
 0001:0011712f       ?__acrt_stdio_allocate_stream@@YA?AV__crt_stdio_stream@@XZ 1011812f f   libucrt:stream.obj
 0001:00117198       ?__acrt_stdio_free_stream@@YAXV__crt_stdio_stream@@@Z 10118198 f   libucrt:stream.obj
 0001:001174e2       ___acrt_stdio_flush_and_write_narrow_nolock 101184e2 f   libucrt:_flsbuf.obj
 0001:001174ed       ___acrt_should_use_temporary_buffer 101184ed f   libucrt:_sftbuf.obj
 0001:00117528       ___acrt_stdio_begin_temporary_buffering_nolock 10118528 f   libucrt:_sftbuf.obj
 0001:001175d4       ___acrt_stdio_end_temporary_buffering_nolock 101185d4 f   libucrt:_sftbuf.obj
 0001:00117612       ??$__acrt_stdio_parse_mode@D@@YA?AU__acrt_stdio_stream_mode@@QBD@Z 10118612 f i libucrt:openfile.obj
 0001:0011783c       ??$__acrt_stdio_parse_mode@_W@@YA?AU__acrt_stdio_stream_mode@@QB_W@Z 1011883c f i libucrt:openfile.obj
 0001:00117bad       ?__acrt_stdio_parse_mode_D@@YA_NAAU__acrt_stdio_stream_mode@@@Z 10118bad f i libucrt:openfile.obj
 0001:00117bc8       ?__acrt_stdio_parse_mode_T@@YA_NAAU__acrt_stdio_stream_mode@@@Z 10118bc8 f i libucrt:openfile.obj
 0001:00117be7       ?__acrt_stdio_parse_mode_b@@YA_NAAU__acrt_stdio_stream_mode@@@Z 10118be7 f i libucrt:openfile.obj
 0001:00117c07       ?__acrt_stdio_parse_mode_c@@YA_NAAU__acrt_stdio_stream_mode@@AA_N@Z 10118c07 f i libucrt:openfile.obj
 0001:00117c29       ?__acrt_stdio_parse_mode_n@@YA_NAAU__acrt_stdio_stream_mode@@AA_N@Z 10118c29 f i libucrt:openfile.obj
 0001:00117c4b       ?__acrt_stdio_parse_mode_plus@@YA_NAAU__acrt_stdio_stream_mode@@AA_N@Z 10118c4b f i libucrt:openfile.obj
 0001:00117c81       ?__acrt_stdio_parse_mode_t@@YA_NAAU__acrt_stdio_stream_mode@@@Z 10118c81 f i libucrt:openfile.obj
 0001:00117ca1       ?__acrt_stdio_parse_mode_x@@YA_NAAU__acrt_stdio_stream_mode@@@Z 10118ca1 f i libucrt:openfile.obj
 0001:00117cc1       __openfile                 10118cc1 f   libucrt:openfile.obj
 0001:00117ccc       __wopenfile                10118ccc f   libucrt:openfile.obj
 0001:00117cd7       __malloc_base              10118cd7 f   libucrt:malloc_base.obj
 0001:00117d25       ?__acrt_fp_classify@@YA?AW4__acrt_fp_class@@ABN@Z 10118d25 f i libucrt:cvt.obj
 0001:001186ee       ___acrt_fp_format          101196ee f   libucrt:cvt.obj
 0001:0011886f       __wctomb_internal          1011986f f   libucrt:wctomb.obj
 0001:001189d9       __mbtowc_internal          101199d9 f   libucrt:mbtowc.obj
 0001:00118b0c       __mbtowc_l                 10119b0c f   libucrt:mbtowc.obj
 0001:00118b44       __get_printf_count_output  10119b44 f   libucrt:printf_count_output.obj
 0001:00118ce8       ___acrt_stdio_refill_and_read_narrow_nolock 10119ce8 f   libucrt:_filbuf.obj
 0001:00118cf3       _iswctype                  10119cf3 f   libucrt:iswctype.obj
 0001:00118d5c       __isctype_l                10119d5c f   libucrt:isctype.obj
 0001:00118e27       _strtol                    10119e27 f   libucrt:strtox.obj
 0001:00118e6d       _strtoull                  10119e6d f   libucrt:strtox.obj
 0001:00118eb9       _fegetround                10119eb9 f   libucrt:fegetround.obj
 0001:00118ec6       ___acrt_initialize_sse2    10119ec6 f   libucrt:mathfcns.obj
 0001:00118ed6       __modf_default             10119ed6 f   libucrt:modf.obj
 0001:00118fdc       ___libm_error_support      10119fdc f   libucrt:libm_error.obj
 0001:001191d0       __errcode                  1011a1d0 f   libucrt:fpexcept.obj
 0001:00119204       __except1                  1011a204 f   libucrt:fpexcept.obj
 0001:001192d2       __handle_exc               1011a2d2 f   libucrt:fpexcept.obj
 0001:0011954b       __raise_exc                1011a54b f   libucrt:fpexcept.obj
 0001:0011956e       __raise_exc_ex             1011a56e f   libucrt:fpexcept.obj
 0001:00119864       __set_errno_from_matherr   1011a864 f   libucrt:fpexcept.obj
 0001:00119893       __umatherr                 1011a893 f   libucrt:fpexcept.obj
 0001:00119933       __decomp                   1011a933 f   libucrt:util.obj
 0001:00119a05       __set_exp                  1011aa05 f   libucrt:util.obj
 0001:00119a32       __sptype                   1011aa32 f   libucrt:util.obj
 0001:00119a90       ___set_fpsr_sse2           1011aa90 f   libucrt:fpctrl.obj
 0001:00119b10       __clrfp                    1011ab10 f   libucrt:fpctrl.obj
 0001:00119b21       __ctrlfp                   1011ab21 f   libucrt:fpctrl.obj
 0001:00119b4b       __set_statfp               1011ab4b f   libucrt:fpctrl.obj
 0001:00119ba4       __statfp                   1011aba4 f   libucrt:fpctrl.obj
 0001:00119c82       ___acrt_get_sigabrt_handler 1011ac82 f   libucrt:signal.obj
 0001:00119ca9       ___acrt_initialize_signal_handlers 1011aca9 f   libucrt:signal.obj
 0001:00119cc7       _raise                     1011acc7 f   libucrt:signal.obj
 0001:00119eba       ___acrt_stdio_allocate_buffer_nolock 1011aeba f   libucrt:_getbuf.obj
 0001:00119f16       ___acrt_MultiByteToWideChar 1011af16 f   libucrt:multibytetowidechar.obj
 0001:00119f92       _remquof                   1011af92 f   libucrt:remquof.obj
 0001:0011a175       ___acrt_get_begin_thread_init_policy 1011b175 f   libucrt:win_policies.obj
 0001:0011a1b9       ___acrt_get_process_end_policy 1011b1b9 f   libucrt:win_policies.obj
 0001:0011a262       __d_int                    1011b262 f   libucrt:_test.obj
 0001:0011a368       __dtest                    1011b368 f   libucrt:_test.obj
 0001:0011a3cc       __fd_int                   1011b3cc f   libucrt:_test.obj
 0001:0011a499       __fdtest                   1011b499 f   libucrt:_test.obj
 0001:0011a4e7       __fperrraise               1011b4e7 f   libucrt:_test.obj
 0001:0011a7b3       _mbstowcs_s                1011b7b3 f   libucrt:mbstowcs.obj
 0001:0011ab75       __wcstombs_s_l             1011bb75 f   libucrt:wcstombs.obj
 0001:0011ac9a       ___acrt_GetLocaleInfoA     1011bc9a f   libucrt:getlocaleinfoa.obj
 0001:0011ae4a       ___acrt_GetStringTypeA     1011be4a f   libucrt:getstringtypea.obj
 0001:0011af53       _wcscpy_s                  1011bf53 f   libucrt:wcscpy_s.obj
 0001:0011afb7       __dclass                   1011bfb7 f   libucrt:nan.obj
 0001:0011afc8       __realloc_base             1011bfc8 f   libucrt:realloc_base.obj
 0001:0011b040       __CIpow_pentium4           1011c040 f   libucrt:pow_pentium4.obj
 0001:0011b059       __pow_pentium4             1011c059     libucrt:pow_pentium4.obj
 0001:0011bb80       __fFEXP                    1011cb80 f   libucrt:87tran.obj
 0001:0011bbd7       __rtinfpopse               1011cbd7     libucrt:87tran.obj
 0001:0011bbd9       __rtinfnpopse              1011cbd9     libucrt:87tran.obj
 0001:0011bbe9       __fFLN                     1011cbe9     libucrt:87tran.obj
 0001:0011bc9e       __rtinfpop                 1011cc9e     libucrt:87tran.obj
 0001:0011bca0       __rtinfnpop                1011cca0     libucrt:87tran.obj
 0001:0011bcb0       __rtforexpinf              1011ccb0 f   libucrt:87tran.obj
 0001:0011bcbd       __ffexpm1                  1011ccbd     libucrt:87tran.obj
 0001:0011bd70       __trandisp1                1011cd70 f   libucrt:87disp.obj
 0001:0011bde5       __trandisp2                1011cde5 f   libucrt:87disp.obj
 0001:0011be7f       __rttospopde               1011ce7f     libucrt:87disp.obj
 0001:0011be84       __rttospop                 1011ce84     libucrt:87disp.obj
 0001:0011be90       __rtnospop                 1011ce90 f   libucrt:87disp.obj
 0001:0011bea0       __rttosnpop                1011cea0 f   libucrt:87disp.obj
 0001:0011bea1       __rtnospopde               1011cea1     libucrt:87disp.obj
 0001:0011bea8       __rtzeropop                1011cea8     libucrt:87disp.obj
 0001:0011beaa       __rtzeronpop               1011ceaa     libucrt:87disp.obj
 0001:0011beb0       __rtzerospop               1011ceb0 f   libucrt:87disp.obj
 0001:0011bebd       __rtonepop                 1011cebd     libucrt:87disp.obj
 0001:0011bec0       __rtonenpop                1011cec0 f   libucrt:87disp.obj
 0001:0011bed0       __tosnan1                  1011ced0 f   libucrt:87disp.obj
 0001:0011bf00       __nosnan2                  1011cf00 f   libucrt:87disp.obj
 0001:0011bf10       __tosnan2                  1011cf10 f   libucrt:87disp.obj
 0001:0011bf40       __nan2                     1011cf40 f   libucrt:87disp.obj
 0001:0011bf80       __rtindfpop                1011cf80 f   libucrt:87disp.obj
 0001:0011bf82       __rtindfnpop               1011cf82     libucrt:87disp.obj
 0001:0011bf93       __rttosnpopde              1011cf93     libucrt:87disp.obj
 0001:0011bfa0       __rtatan2inf               1011cfa0 f   libucrt:87disp.obj
 0001:0011bfbd       __rtchsifneg               1011cfbd     libucrt:87disp.obj
 0001:0011bfd0       __startTwoArgErrorHandling 1011cfd0 f   libucrt:genexcep.obj
 0001:0011bfe7       __startOneArgErrorHandling 1011cfe7 f   libucrt:genexcep.obj
 0001:0011c030       __twoToTOS                 1011d030 f   libucrt:common.obj
 0001:0011c045       __load_CW                  1011d045 f   libucrt:common.obj
 0001:0011c05c       __convertTOStoQNaN         1011d05c f   libucrt:common.obj
 0001:0011c075       __fload_withFB             1011d075 f   libucrt:common.obj
 0001:0011c0b8       __checkTOS_withFB          1011d0b8 f   libucrt:common.obj
 0001:0011c0ce       __fast_exit                1011d0ce f   libucrt:common.obj
 0001:0011c0db       __math_exit                1011d0db f   libucrt:common.obj
 0001:0011c105       __check_overflow_exit      1011d105 f   libucrt:common.obj
 0001:0011c119       __check_range_exit         1011d119 f   libucrt:common.obj
 0001:0011c1bc       __d_inttype                1011d1bc f   libucrt:powhlp.obj
 0001:0011c224       __powhlp                   1011d224 f   libucrt:powhlp.obj
 0001:0011c34f       ___acrt_WideCharToMultiByte 1011d34f f   libucrt:widechartomultibyte.obj
 0001:0011c406       ___ascii_wcsicmp           1011d406 f   libucrt:wcsicmp.obj
 0001:0011c443       __towlower_internal        1011d443 f i libucrt:wcsicmp.obj
 0001:0011c482       __wcsicmp                  1011d482 f   libucrt:wcsicmp.obj
 0001:0011c4cb       __wcsicmp_l                1011d4cb f   libucrt:wcsicmp.obj
 0001:0011c583       ___acrt_initialize_timeset 1011d583 f   libucrt:timeset.obj
 0001:0011c5d0       ??$__acrt_convert_wcs_mbs_cp@_WDV<lambda_28bda7af82a03b66c1cb3803a755f95d>@@U__crt_win32_buffer_internal_dynamic_resizing@@@@YAHQB_WAAV?$__crt_win32_buffer@DU__crt_win32_buffer_internal_dynamic_resizing@@@@ABV<lambda_28bda7af82a03b66c1cb3803a755f95d>@@I@Z 1011d5d0 f i libucrt:argv_wildcards.obj
 0001:0011cb72       ?allocate@?$__crt_win32_buffer@DU__crt_win32_buffer_internal_dynamic_resizing@@@@QAEHI@Z 1011db72 f i libucrt:argv_wildcards.obj
 0001:0011cc35       ___acrt_expand_narrow_argv_wildcards 1011dc35 f   libucrt:argv_wildcards.obj
 0001:0011cc40       ___acrt_GetModuleFileNameA 1011dc40 f   libucrt:getmodulefilenamea.obj
 0001:0011d264       ___acrt_initialize_multibyte 1011e264 f   libucrt:mbctype.obj
 0001:0011d2ac       ___acrt_update_thread_multibyte_data 1011e2ac f   libucrt:mbctype.obj
 0001:0011d2bf       __setmbcp_nolock           1011e2bf f   libucrt:mbctype.obj
 0001:0011d517       __ismbblead                1011e517 f   libucrt:ismbbyte.obj
 0001:0011d52f       ___acrt_initialize_command_line 1011e52f f   libucrt:argv_data.obj
 0001:0011d57f       ___dcrt_get_narrow_environment_from_os 1011e57f f   libucrt:get_environment_from_os.obj
 0001:0011d61f       __recalloc_base            1011e61f f   libucrt:recalloc.obj
 0001:0011d68c       ___acrt_initialize_heap    1011e68c f   libucrt:heap_handle.obj
 0001:0011d69d       ___acrt_uninitialize_heap  1011e69d f   libucrt:heap_handle.obj
 0001:0011d6a7       ___acrt_execute_initializers 1011e6a7 f   libucrt:shared_initialization.obj
 0001:0011d70f       ___acrt_execute_uninitializers 1011e70f f   libucrt:shared_initialization.obj
 0001:0011d740       ___acrt_has_user_matherr   1011e740 f   libucrt:matherr.obj
 0001:0011d758       ___acrt_initialize_user_matherr 1011e758 f   libucrt:matherr.obj
 0001:0011d767       ___acrt_invoke_user_matherr 1011e767 f   libucrt:matherr.obj
 0001:0011d799       __msize_base               1011e799 f   libucrt:msize.obj
 0001:0011d7cc       ___acrt_lowio_create_handle_array 1011e7cc f   libucrt:osfinfo.obj
 0001:0011d847       ___acrt_lowio_destroy_handle_array 1011e847 f   libucrt:osfinfo.obj
 0001:0011d87c       ___acrt_lowio_ensure_fh_exists 1011e87c f   libucrt:osfinfo.obj
 0001:0011d91a       ___acrt_lowio_lock_fh      1011e91a f   libucrt:osfinfo.obj
 0001:0011d93d       ___acrt_lowio_set_os_handle 1011e93d f   libucrt:osfinfo.obj
 0001:0011d9cf       ___acrt_lowio_unlock_fh    1011e9cf f   libucrt:osfinfo.obj
 0001:0011d9f2       __alloc_osfhnd             1011e9f2 f   libucrt:osfinfo.obj
 0001:0011db05       __free_osfhnd              1011eb05 f   libucrt:osfinfo.obj
 0001:0011db96       __get_osfhandle            1011eb96 f   libucrt:osfinfo.obj
 0001:0011dc00       ___acrt_add_locale_ref     1011ec00 f   libucrt:locale_refcounting.obj
 0001:0011dc7d       ___acrt_free_locale        1011ec7d f   libucrt:locale_refcounting.obj
 0001:0011ddc5       ___acrt_locale_add_lc_time_reference 1011edc5 f   libucrt:locale_refcounting.obj
 0001:0011ddee       ___acrt_locale_free_lc_time_if_unreferenced 1011edee f   libucrt:locale_refcounting.obj
 0001:0011de1f       ___acrt_locale_release_lc_time_reference 1011ee1f f   libucrt:locale_refcounting.obj
 0001:0011de48       ___acrt_release_locale_ref 1011ee48 f   libucrt:locale_refcounting.obj
 0001:0011dec9       ___acrt_update_thread_locale_data 1011eec9 f   libucrt:locale_refcounting.obj
 0001:0011df4a       __updatetlocinfoEx_nolock  1011ef4a f   libucrt:locale_refcounting.obj
 0001:0011df9a       ___acrt_locale_free_monetary 1011ef9a f   libucrt:initmon.obj
 0001:0011e098       ___acrt_locale_initialize_monetary 1011f098 f   libucrt:initmon.obj
 0001:0011e44e       ___acrt_locale_free_numeric 1011f44e f   libucrt:initnum.obj
 0001:0011e4b7       ___acrt_locale_initialize_numeric 1011f4b7 f   libucrt:initnum.obj
 0001:0011e969       ___acrt_locale_free_time   1011f969 f   libucrt:inittime.obj
 0001:0011ea4d       ___acrt_locale_initialize_time 1011fa4d f   libucrt:inittime.obj
 0001:0011eb40       _wcscat_s                  1011fb40 f   libucrt:wcscat_s.obj
 0001:0011ec38       _wcsncat_s                 1011fc38 f   libucrt:wcsncat_s.obj
 0001:0011ed11       _wcsncpy_s                 1011fd11 f   libucrt:wcsncpy_s.obj
 0001:0011ed1c       _wcscspn                   1011fd1c f   libucrt:wcscspn.obj
 0001:0011ed75       _wcspbrk                   1011fd75 f   libucrt:wcspbrk.obj
 0001:0011f4bf       ___acrt_get_qualified_locale 101204bf f   libucrt:get_qualified_locale.obj
 0001:0011fe23       ___acrt_get_qualified_locale_downlevel 10120e23 f   libucrt:getqloc_downlevel.obj
 0001:00120018       __isatty                   10121018 f   libucrt:isatty.obj
 0001:0012006e       __query_new_mode           1012106e f   libucrt:new_mode.obj
 0001:001200c5       ___acrt_DownlevelLCIDToLocaleName 101210c5 f   libucrt:lcidtoname_downlevel.obj
 0001:00120168       ___acrt_DownlevelLocaleNameToLCID 10121168 f   libucrt:lcidtoname_downlevel.obj
 0001:001201c0       ?__mbrtowc_utf8@__crt_mbstring@@YAIPA_WPBDIPAU_Mbstatet@@AAV__crt_cached_ptd_host@@@Z 101211c0 f   libucrt:mbrtowc.obj
 0001:00120203       ?__mbsrtowcs_utf8@__crt_mbstring@@YAIPA_WPAPBDIPAU_Mbstatet@@AAV__crt_cached_ptd_host@@@Z 10121203 f   libucrt:mbrtowc.obj
 0001:0012030b       __putwch_nolock            1012130b f   libucrt:putwch.obj
 0001:0012033d       ___ascii_wcsnicmp          1012133d f   libucrt:wcsnicmp.obj
 0001:0012038c       __wcsnicmp                 1012138c f   libucrt:wcsnicmp.obj
 0001:001203d8       __wcsnicmp_l               101213d8 f   libucrt:wcsnicmp.obj
 0001:001204ab       __strnicmp                 101214ab f   libucrt:strnicmp.obj
 0001:00120518       __strnicmp_l               10121518 f   libucrt:strnicmp.obj
 0001:00120c6c       __sopen_nolock             10121c6c f   libucrt:open.obj
 0001:00120cda       __sopen_s                  10121cda f   libucrt:open.obj
 0001:00120cfa       __wsopen_nolock            10121cfa f   libucrt:open.obj
 0001:00121024       __wsopen_s                 10122024 f   libucrt:open.obj
 0001:001210c2       ___acrt_fp_strflt_to_string 101220c2 f   libucrt:_fptostr.obj
 0001:001211bc       ___acrt_fltout             101221bc f   libucrt:cfout.obj
 0001:001226f5       ?__c32rtomb_utf8@__crt_mbstring@@YAIPAD_UPAU_Mbstatet@@AAV__crt_cached_ptd_host@@@Z 101236f5 f   libucrt:c32rtomb.obj
 0001:001227a5       ___acrt_GetStringTypeW     101237a5 f   libucrt:getstringtypew.obj
 0001:00122a87       ___acrt_fenv_get_common_round_control 10123a87 f   libucrt:_fenvutils.obj
 0001:00122aa9       ___acrt_fenv_get_control   10123aa9 f   libucrt:_fenvutils.obj
 0001:00122b29       ___acrt_fenv_get_fp_status_word_from_exception_mask 10123b29 f   libucrt:_fenvutils.obj
 0001:00122b43       ___acrt_fenv_get_status    10123b43 f   libucrt:_fenvutils.obj
 0001:00122bed       ___acrt_fenv_set_control   10123bed f   libucrt:_fenvutils.obj
 0001:00122c68       ___acrt_fenv_set_status    10123c68 f   libucrt:_fenvutils.obj
 0001:00122d62       __frnd                     10123d62 f   libucrt:frnd.obj
 0001:00122d76       __dscale                   10123d76 f   libucrt:_scale.obj
 0001:00122fdd       __fdscale                  10123fdd f   libucrt:_scale.obj
 0001:0012317c       __dunscale                 1012417c f   libucrt:_unscale.obj
 0001:00123212       __fdunscale                10124212 f   libucrt:_unscale.obj
 0001:00123299       __fdclass                  10124299 f   libucrt:nanf.obj
 0001:001232aa       _fegetexceptflag           101242aa f   libucrt:fegetexceptflag.obj
 0001:001232db       _fesetexceptflag           101242db f   libucrt:fesetexceptflag.obj
 0001:0012333b       ?__wcsrtombs_utf8@__crt_mbstring@@YAIPADPAPB_WIPAU_Mbstatet@@AAV__crt_cached_ptd_host@@@Z 1012433b f   libucrt:wcrtomb.obj
 0001:001234fe       _strncpy_s                 101244fe f   libucrt:strncpy_s.obj
 0001:00123509       __87except                 10124509 f   libucrt:87except.obj
 0001:00123613       __towlower_l               10124613 f   libucrt:towlower.obj
 0001:001236f0       _strpbrk                   101246f0 f   libucrt:strpbrk.obj
 0001:00123730       __mbsdec                   10124730 f   libucrt:mbsdec.obj
 0001:00123747       __mbsdec_l                 10124747 f   libucrt:mbsdec.obj
 0001:001237e3       __query_app_type           101247e3 f   libucrt:report_runtime_error.obj
 0001:0012390e       __itow_s                   1012490e f   libucrt:xtoa.obj
 0001:00123941       ?__mbrtoc32_utf8@__crt_mbstring@@YAIPA_UPBDIPAU_Mbstatet@@AAV__crt_cached_ptd_host@@@Z 10124941 f   libucrt:mbrtoc32.obj
 0001:00123b1e       ___dcrt_lowio_ensure_console_output_initialized 10124b1e f   libucrt:initcon.obj
 0001:00123b3d       ___dcrt_terminate_console_output 10124b3d f   libucrt:initcon.obj
 0001:00123b54       ___dcrt_write_console      10124b54 f   libucrt:initcon.obj
 0001:00123bb0       ___ascii_strnicmp          10124bb0 f   libucrt:_strnicm.obj
 0001:00123c11       __get_fmode                10124c11 f   libucrt:setmode.obj
 0001:00123c3e       __setmode_nolock           10124c3e f   libucrt:setmode.obj
 0001:00123d0d       ??0__crt_seek_guard@@QAE@H_J@Z 10124d0d f i libucrt:chsize.obj
 0001:00123d5a       __chsize_nolock            10124d5a f   libucrt:chsize.obj
 0001:00123d91       __chsize_nolock_internal   10124d91 f   libucrt:chsize.obj
 0001:00123f34       __controlfp_s              10124f34 f   libucrt:contrlfp.obj
 0001:00123f93       _fegetenv                  10124f93 f   libucrt:fegetenv.obj
 0001:00123fb0       _fesetenv                  10124fb0 f   libucrt:fesetenv.obj
 0001:00123ffb       _feholdexcept              10124ffb f   libucrt:feholdexcept.obj
 0001:00124050       __CIlog10                  10125050 f   libucrt:log10_impl.obj
 0001:0012408b       __CIlog10_default          1012508b f   libucrt:log10_impl.obj
 0001:0012409f       __log10_default            1012509f     libucrt:log10_impl.obj
 0001:00124160       _ceil                      10125160 f   libucrt:ceil_pentium4.obj
 0001:001241a0       __ceil_pentium4            101251a0 f   libucrt:ceil_pentium4.obj
 0001:0012427d       ?reset_and_return@__crt_mbstring@@YAIIPAU_Mbstatet@@@Z 1012527d f   libucrt:common_utf8.obj
 0001:00124291       ?return_illegal_sequence@__crt_mbstring@@YAIPAU_Mbstatet@@AAV__crt_cached_ptd_host@@@Z 10125291 f   libucrt:common_utf8.obj
 0001:001242b3       __dnorm                    101252b3 f   libucrt:_norm.obj
 0001:00124446       __fdnorm                   10125446 f   libucrt:_norm.obj
 0001:00124519       _fetestexcept              10125519 f   libucrt:fetestexcept.obj
 0001:00124539       ?__c16rtomb_utf8@__crt_mbstring@@YAIPAD_SPAU_Mbstatet@@AAV__crt_cached_ptd_host@@@Z 10125539 f   libucrt:c16rtomb.obj
 0001:001245e2       ___acrt_LCMapStringW       101255e2 f   libucrt:lcmapstringw.obj
 0001:00124620       ___acrt_initialize_fmode   10125620 f   libucrt:txtmode.obj
 0001:001246dd       __clearfp                  101256dd f   libucrt:ieee87.obj
 0001:001247bb       __control87                101257bb f   libucrt:ieee87.obj
 0001:00124b60       __CIlog10_pentium4         10125b60 f   libucrt:log10_pentium4.obj
 0001:00124b78       __log10_pentium4           10125b78     libucrt:log10_pentium4.obj
 0001:00124df0       __ceil_default             10125df0 f   libucrt:ceil.obj
 0001:00124ea5       _CreateToolhelp32Snapshot@8 10125ea5 f   kernel32:KERNEL32.dll
 0001:00124eab       _Thread32First@8           10125eab f   kernel32:KERNEL32.dll
 0001:00124eb1       _Thread32Next@8            10125eb1 f   kernel32:KERNEL32.dll
 0001:00124eb7       _RtlUnwind@16              10125eb7 f   kernel32:KERNEL32.dll
 0001:00124ec0       __FindPESection            10125ec0 f   LIBCMT:pesect.obj
 0001:00124f10       __IsNonwritableInCurrentImage 10125f10 f   LIBCMT:pesect.obj
 0001:00124fd0       __ValidateImageBase        10125fd0 f   LIBCMT:pesect.obj
 0001:00125010       __aulldvrm                 10126010 f   LIBCMT:ulldvrm.obj
 0001:001250b0       __alldiv                   101260b0 f   LIBCMT:lldiv.obj
 0001:00125160       __allshl                   10126160 f   LIBCMT:llshl.obj
 0001:00125180       __aullshr                  10126180 f   LIBCMT:ullshr.obj
 0001:001251a0       __alldvrm                  101261a0 f   LIBCMT:lldvrm.obj
 0001:00125280       __ftol2_sse                10126280 f   LIBCMT:ftol2.obj
 0001:00125290       __ftoi2                    10126290 f   LIBCMT:ftol2.obj
 0001:0012530c       _wcschr                    1012630c f   libvcruntime:wcschr.obj
 0001:001253bc       __filter_x86_sse2_floating_point_exception 101263bc f   LIBCMT:x86_exception_filter.obj
 0001:001253bc       __filter_x86_sse2_floating_point_exception_default 101263bc f   LIBCMT:x86_exception_filter.obj
 0001:00125440       ___vdecl_sinf4             10126440 f   LIBCMT:svml_ssinf4_dispatch.obj
 0001:00125460       ___libm_sse2_sincosf_      10126460 f   LIBCMT:svml_ssinf4_dispatch.obj
 0001:001254b0       ___libm_sse2_sincosf4_     101264b0 f   LIBCMT:svml_ssinf4_dispatch.obj
 0001:001254c0       __ftol3                    101264c0 f   LIBCMT:ftol3.obj
 0001:00125530       __dtol3                    10126530 f   LIBCMT:ftol3.obj
 0001:001255e0       __ltod3                    101265e0 f   LIBCMT:ftol3.obj
 0001:00125630       ___sse2_sinf4@@16          10126630 f   LIBCMT:svml_ssinf4_sse2.obj
 0001:001257f0       ___sse4_sinf4@@16          101267f0 f   LIBCMT:svml_ssinf4_sse4.obj
 0001:00125e90       ___common_sin_reduction_LA 10126e90 f   LIBCMT:svml_dtrig.obj
 0001:00126220       ___common_ssin_cout_rare   10127220 f   LIBCMT:svml_s_sin_cout.obj
 0001:00126299       ___libm_sse2_atanf         10127299 f   libucrt:atanf_sse2.obj
 0001:00126439       ___libm_sse2_cosf          10127439 f   libucrt:cosf_sse2.obj
 0001:00126586       ___libm_sse2_powf          10127586 f   libucrt:powf_sse2.obj
 0001:00126c39       ___libm_sse2_sin           10127c39 f   libucrt:sin_sse2.obj
 0001:00126de7       ___libm_sse2_sinf          10127de7 f   libucrt:sinf_sse2.obj
 0001:00126f2c       __dxp_addh                 10127f2c f   libucrt:fma.obj
 0001:00127223       __dxp_addx                 10128223 f   libucrt:fma.obj
 0001:00127268       __dxp_getw                 10128268 f   libucrt:fma.obj
 0001:001272be       __dxp_mulh                 101282be f   libucrt:fma.obj
 0001:0012743b       __dxp_setw                 1012843b f   libucrt:fma.obj
 0001:00127529       _fma                       10128529 f   libucrt:fma.obj
 0001:001277ac       __fdxp_addh                101287ac f   libucrt:fmaf.obj
 0001:00127acd       __fdxp_addx                10128acd f   libucrt:fmaf.obj
 0001:00127b18       __fdxp_getw                10128b18 f   libucrt:fmaf.obj
 0001:00127b87       __fdxp_mulh                10128b87 f   libucrt:fmaf.obj
 0001:00127cff       __fdxp_setw                10128cff f   libucrt:fmaf.obj
 0001:00127d84       _fmaf                      10128d84 f   libucrt:fmaf.obj
 0001:00128010       _cos                       10129010 f   libucrt:cos.obj
 0001:00128060       _sin                       10129060 f   libucrt:sin.obj
 0001:001280b0       __CIsqrt                   101290b0 f   libucrt:sqrt_impl.obj
 0001:001280c4       __sqrt_common              101290c4     libucrt:sqrt_impl.obj
 0001:00128161       ___acrt_initialize_fma3    10129161 f   libucrt:fma3_available.obj
 0001:001281e0       __CIcos                    101291e0 f   libucrt:cos_impl.obj
 0001:0012821b       __CIcos_default            1012921b f   libucrt:cos_impl.obj
 0001:0012822f       __cos_default              1012922f     libucrt:cos_impl.obj
 0001:001282d0       __CIcos_pentium4           101292d0 f   libucrt:cos_pentium4.obj
 0001:001282e8       __cos_pentium4             101292e8     libucrt:cos_pentium4.obj
 0001:00128480       __CIsin                    10129480 f   libucrt:sin_impl.obj
 0001:001284bb       __CIsin_default            101294bb f   libucrt:sin_impl.obj
 0001:001284cf       __sin_default              101294cf     libucrt:sin_impl.obj
 0001:00128570       __CIsin_pentium4           10129570 f   libucrt:sin_pentium4.obj
 0001:00128588       __sin_pentium4             10129588     libucrt:sin_pentium4.obj
 0001:0012b4c0       ??__FblurEffect@?1??instance@c_blur_effect@@CAAAV1@XZ@YAXXZ 1012c4c0 f i render.obj
 0001:0012bbd0       ??__Fdev_glow@?1??is_forced_material_override@c_studio_render@@QAE_NXZ@YAXXZ 1012cbd0 f i chams.obj
 0002:00000000       __imp__ImmReleaseContext@8 1012d000     imm32:IMM32.dll
 0002:00000004       __imp__ImmSetCompositionWindow@8 1012d004     imm32:IMM32.dll
 0002:00000008       __imp__ImmGetContext@4     1012d008     imm32:IMM32.dll
 0002:0000000c       \177IMM32_NULL_THUNK_DATA  1012d00c     imm32:IMM32.dll
 0002:00000010       __imp__EnterCriticalSection@4 1012d010     kernel32:KERNEL32.dll
 0002:00000014       __imp__LeaveCriticalSection@4 1012d014     kernel32:KERNEL32.dll
 0002:00000018       __imp__InitializeCriticalSection@4 1012d018     kernel32:KERNEL32.dll
 0002:0000001c       __imp__DeleteCriticalSection@4 1012d01c     kernel32:KERNEL32.dll
 0002:00000020       __imp__ReleaseSemaphore@12 1012d020     kernel32:KERNEL32.dll
 0002:00000024       __imp__WaitForSingleObject@8 1012d024     kernel32:KERNEL32.dll
 0002:00000028       __imp__CloseHandle@4       1012d028     kernel32:KERNEL32.dll
 0002:0000002c       __imp__CreateSemaphoreA@16 1012d02c     kernel32:KERNEL32.dll
 0002:00000030       __imp__InitializeSRWLock@4 1012d030     kernel32:KERNEL32.dll
 0002:00000034       __imp__TryAcquireSRWLockExclusive@4 1012d034     kernel32:KERNEL32.dll
 0002:00000038       __imp__ReleaseSRWLockExclusive@4 1012d038     kernel32:KERNEL32.dll
 0002:0000003c       __imp__AcquireSRWLockExclusive@4 1012d03c     kernel32:KERNEL32.dll
 0002:00000040       __imp__ReleaseSRWLockShared@4 1012d040     kernel32:KERNEL32.dll
 0002:00000044       __imp__AcquireSRWLockShared@4 1012d044     kernel32:KERNEL32.dll
 0002:00000048       __imp__QueryPerformanceCounter@4 1012d048     kernel32:KERNEL32.dll
 0002:0000004c       __imp__MultiByteToWideChar@24 1012d04c     kernel32:KERNEL32.dll
 0002:00000050       __imp__WideCharToMultiByte@32 1012d050     kernel32:KERNEL32.dll
 0002:00000054       __imp__GlobalAlloc@8       1012d054     kernel32:KERNEL32.dll
 0002:00000058       __imp__lstrcpyA@8          1012d058     kernel32:KERNEL32.dll
 0002:0000005c       __imp__GlobalUnlock@4      1012d05c     kernel32:KERNEL32.dll
 0002:00000060       __imp__SetEndOfFile@4      1012d060     kernel32:KERNEL32.dll
 0002:00000064       __imp__WriteConsoleW@20    1012d064     kernel32:KERNEL32.dll
 0002:00000068       __imp__CreateFileW@28      1012d068     kernel32:KERNEL32.dll
 0002:0000006c       __imp__SetStdHandle@8      1012d06c     kernel32:KERNEL32.dll
 0002:00000070       __imp__HeapSize@12         1012d070     kernel32:KERNEL32.dll
 0002:00000074       __imp__FreeEnvironmentStringsW@4 1012d074     kernel32:KERNEL32.dll
 0002:00000078       __imp__GetEnvironmentStringsW@0 1012d078     kernel32:KERNEL32.dll
 0002:0000007c       __imp__GetCommandLineW@0   1012d07c     kernel32:KERNEL32.dll
 0002:00000080       __imp__QueryPerformanceFrequency@4 1012d080     kernel32:KERNEL32.dll
 0002:00000084       __imp__LoadLibraryW@4      1012d084     kernel32:KERNEL32.dll
 0002:00000088       __imp__GetTickCount64@0    1012d088     kernel32:KERNEL32.dll
 0002:0000008c       __imp__GlobalLock@4        1012d08c     kernel32:KERNEL32.dll
 0002:00000090       __imp__GetCurrentThreadId@0 1012d090     kernel32:KERNEL32.dll
 0002:00000094       __imp__InitOnceComplete@12 1012d094     kernel32:KERNEL32.dll
 0002:00000094       __imp____std_init_once_complete@12 1012d094     kernel32:KERNEL32.dll
 0002:00000098       __imp__InitOnceBeginInitialize@16 1012d098     kernel32:KERNEL32.dll
 0002:00000098       __imp____std_init_once_begin_initialize@16 1012d098     kernel32:KERNEL32.dll
 0002:0000009c       __imp__WaitForSingleObjectEx@12 1012d09c     kernel32:KERNEL32.dll
 0002:000000a0       __imp__Sleep@4             1012d0a0     kernel32:KERNEL32.dll
 0002:000000a4       __imp__InitializeCriticalSectionEx@12 1012d0a4     kernel32:KERNEL32.dll
 0002:000000a8       __imp__EncodePointer@4     1012d0a8     kernel32:KERNEL32.dll
 0002:000000ac       __imp__DecodePointer@4     1012d0ac     kernel32:KERNEL32.dll
 0002:000000b0       __imp__LCMapStringEx@36    1012d0b0     kernel32:KERNEL32.dll
 0002:000000b4       __imp__GetSystemTimeAsFileTime@4 1012d0b4     kernel32:KERNEL32.dll
 0002:000000b8       __imp__GetModuleHandleW@4  1012d0b8     kernel32:KERNEL32.dll
 0002:000000bc       __imp__GetProcAddress@8    1012d0bc     kernel32:KERNEL32.dll
 0002:000000c0       __imp__GetStringTypeW@16   1012d0c0     kernel32:KERNEL32.dll
 0002:000000c4       __imp__GetCPInfo@8         1012d0c4     kernel32:KERNEL32.dll
 0002:000000c8       __imp__InterlockedExchange@8 1012d0c8     kernel32:KERNEL32.dll
 0002:000000cc       __imp__InterlockedCompareExchange@12 1012d0cc     kernel32:KERNEL32.dll
 0002:000000d0       __imp__FlushInstructionCache@12 1012d0d0     kernel32:KERNEL32.dll
 0002:000000d4       __imp__VirtualProtect@16   1012d0d4     kernel32:KERNEL32.dll
 0002:000000d8       __imp__HeapCreate@12       1012d0d8     kernel32:KERNEL32.dll
 0002:000000dc       __imp__HeapDestroy@4       1012d0dc     kernel32:KERNEL32.dll
 0002:000000e0       __imp__HeapAlloc@12        1012d0e0     kernel32:KERNEL32.dll
 0002:000000e4       __imp__HeapReAlloc@16      1012d0e4     kernel32:KERNEL32.dll
 0002:000000e8       __imp__HeapFree@12         1012d0e8     kernel32:KERNEL32.dll
 0002:000000ec       __imp__GetCurrentProcess@0 1012d0ec     kernel32:KERNEL32.dll
 0002:000000f0       __imp__GetCurrentProcessId@0 1012d0f0     kernel32:KERNEL32.dll
 0002:000000f4       __imp__OpenThread@12       1012d0f4     kernel32:KERNEL32.dll
 0002:000000f8       __imp__GetThreadContext@8  1012d0f8     kernel32:KERNEL32.dll
 0002:000000fc       __imp__SetThreadContext@8  1012d0fc     kernel32:KERNEL32.dll
 0002:00000100       __imp__SuspendThread@4     1012d100     kernel32:KERNEL32.dll
 0002:00000104       __imp__ResumeThread@4      1012d104     kernel32:KERNEL32.dll
 0002:00000108       __imp__CreateToolhelp32Snapshot@8 1012d108     kernel32:KERNEL32.dll
 0002:0000010c       __imp__Thread32First@8     1012d10c     kernel32:KERNEL32.dll
 0002:00000110       __imp__Thread32Next@8      1012d110     kernel32:KERNEL32.dll
 0002:00000114       __imp__VirtualAlloc@16     1012d114     kernel32:KERNEL32.dll
 0002:00000118       __imp__VirtualFree@12      1012d118     kernel32:KERNEL32.dll
 0002:0000011c       __imp__VirtualQuery@12     1012d11c     kernel32:KERNEL32.dll
 0002:00000120       __imp__InitializeCriticalSectionAndSpinCount@8 1012d120     kernel32:KERNEL32.dll
 0002:00000124       __imp__SetEvent@4          1012d124     kernel32:KERNEL32.dll
 0002:00000128       __imp__ResetEvent@4        1012d128     kernel32:KERNEL32.dll
 0002:0000012c       __imp__CreateEventW@16     1012d12c     kernel32:KERNEL32.dll
 0002:00000130       __imp__UnhandledExceptionFilter@4 1012d130     kernel32:KERNEL32.dll
 0002:00000134       __imp__SetUnhandledExceptionFilter@4 1012d134     kernel32:KERNEL32.dll
 0002:00000138       __imp__TerminateProcess@8  1012d138     kernel32:KERNEL32.dll
 0002:0000013c       __imp__IsProcessorFeaturePresent@4 1012d13c     kernel32:KERNEL32.dll
 0002:00000140       __imp__IsDebuggerPresent@0 1012d140     kernel32:KERNEL32.dll
 0002:00000144       __imp__RaiseException@16   1012d144     kernel32:KERNEL32.dll
 0002:00000148       __imp__GetStartupInfoW@4   1012d148     kernel32:KERNEL32.dll
 0002:0000014c       __imp__InitializeSListHead@4 1012d14c     kernel32:KERNEL32.dll
 0002:00000150       __imp__GetLastError@0      1012d150     kernel32:KERNEL32.dll
 0002:00000154       __imp__GetProcessHeap@0    1012d154     kernel32:KERNEL32.dll
 0002:00000158       __imp__FreeLibrary@4       1012d158     kernel32:KERNEL32.dll
 0002:0000015c       __imp__RtlUnwind@16        1012d15c     kernel32:KERNEL32.dll
 0002:00000160       __imp__InterlockedFlushSList@4 1012d160     kernel32:KERNEL32.dll
 0002:00000164       __imp__GetModuleFileNameW@12 1012d164     kernel32:KERNEL32.dll
 0002:00000168       __imp__LoadLibraryExW@12   1012d168     kernel32:KERNEL32.dll
 0002:0000016c       __imp__SetLastError@4      1012d16c     kernel32:KERNEL32.dll
 0002:00000170       __imp__TlsAlloc@0          1012d170     kernel32:KERNEL32.dll
 0002:00000174       __imp__TlsGetValue@4       1012d174     kernel32:KERNEL32.dll
 0002:00000178       __imp__TlsSetValue@8       1012d178     kernel32:KERNEL32.dll
 0002:0000017c       __imp__TlsFree@4           1012d17c     kernel32:KERNEL32.dll
 0002:00000180       __imp__ReadFile@20         1012d180     kernel32:KERNEL32.dll
 0002:00000184       __imp__CreateThread@24     1012d184     kernel32:KERNEL32.dll
 0002:00000188       __imp__ExitThread@4        1012d188     kernel32:KERNEL32.dll
 0002:0000018c       __imp__FreeLibraryAndExitThread@8 1012d18c     kernel32:KERNEL32.dll
 0002:00000190       __imp__GetModuleHandleExW@12 1012d190     kernel32:KERNEL32.dll
 0002:00000194       __imp__ExitProcess@4       1012d194     kernel32:KERNEL32.dll
 0002:00000198       __imp__SetFilePointerEx@20 1012d198     kernel32:KERNEL32.dll
 0002:0000019c       __imp__GetConsoleMode@8    1012d19c     kernel32:KERNEL32.dll
 0002:000001a0       __imp__ReadConsoleW@20     1012d1a0     kernel32:KERNEL32.dll
 0002:000001a4       __imp__GetStdHandle@4      1012d1a4     kernel32:KERNEL32.dll
 0002:000001a8       __imp__GetFileType@4       1012d1a8     kernel32:KERNEL32.dll
 0002:000001ac       __imp__LCMapStringW@24     1012d1ac     kernel32:KERNEL32.dll
 0002:000001b0       __imp__GetLocaleInfoW@16   1012d1b0     kernel32:KERNEL32.dll
 0002:000001b4       __imp__IsValidLocale@8     1012d1b4     kernel32:KERNEL32.dll
 0002:000001b8       __imp__GetUserDefaultLCID@0 1012d1b8     kernel32:KERNEL32.dll
 0002:000001bc       __imp__EnumSystemLocalesW@8 1012d1bc     kernel32:KERNEL32.dll
 0002:000001c0       __imp__FlushFileBuffers@4  1012d1c0     kernel32:KERNEL32.dll
 0002:000001c4       __imp__WriteFile@20        1012d1c4     kernel32:KERNEL32.dll
 0002:000001c8       __imp__GetConsoleOutputCP@0 1012d1c8     kernel32:KERNEL32.dll
 0002:000001cc       __imp__GetFileSizeEx@8     1012d1cc     kernel32:KERNEL32.dll
 0002:000001d0       __imp__FindClose@4         1012d1d0     kernel32:KERNEL32.dll
 0002:000001d4       __imp__FindFirstFileExW@24 1012d1d4     kernel32:KERNEL32.dll
 0002:000001d8       __imp__FindNextFileW@8     1012d1d8     kernel32:KERNEL32.dll
 0002:000001dc       __imp__IsValidCodePage@4   1012d1dc     kernel32:KERNEL32.dll
 0002:000001e0       __imp__GetACP@0            1012d1e0     kernel32:KERNEL32.dll
 0002:000001e4       __imp__GetOEMCP@0          1012d1e4     kernel32:KERNEL32.dll
 0002:000001e8       __imp__GetCommandLineA@0   1012d1e8     kernel32:KERNEL32.dll
 0002:000001ec       \177KERNEL32_NULL_THUNK_DATA 1012d1ec     kernel32:KERNEL32.dll
 0002:000001f0       __imp__CloseClipboard@0    1012d1f0     user32:USER32.dll
 0002:000001f4       __imp__EmptyClipboard@0    1012d1f4     user32:USER32.dll
 0002:000001f8       __imp__SetClipboardData@8  1012d1f8     user32:USER32.dll
 0002:000001fc       __imp__CallWindowProcA@20  1012d1fc     user32:USER32.dll
 0002:00000200       __imp__SetWindowLongA@12   1012d200     user32:USER32.dll
 0002:00000204       __imp__GetClipboardData@4  1012d204     user32:USER32.dll
 0002:00000208       __imp__OpenClipboard@4     1012d208     user32:USER32.dll
 0002:0000020c       \177USER32_NULL_THUNK_DATA 1012d20c     user32:USER32.dll
 0002:00000210       ___guard_check_icall_fptr  1012d210     LIBCMT:guard_support.obj
 0002:00000214       ___castguard_check_failure_os_handled_fptr 1012d214     LIBCMT:guard_support.obj
 0002:00000218       ___xc_a                    1012d218     LIBCMT:initializers.obj
 0002:0000064c       ___xc_z                    1012d64c     LIBCMT:initializers.obj
 0002:00000650       ___xi_a                    1012d650     LIBCMT:initializers.obj
 0002:0000065c       ___acrt_stdio_initializer  1012d65c     libucrt:stdio_initializer.obj
 0002:00000660       ___acrt_clock_initializer  1012d660     libucrt:clock_initializer.obj
 0002:00000664       ___acrt_tran_sse2_initializer 1012d664     libucrt:sse2_initializer.obj
 0002:00000668       ___acrt_timeset_initializer 1012d668     libucrt:timeset_initializer.obj
 0002:0000066c       ___acrt_multibyte_initializer 1012d66c     libucrt:multibyte_initializer.obj
 0002:00000670       ___acrt_fmode_initializer  1012d670     libucrt:fmode_initializer.obj
 0002:00000674       ___acrt_tran_fma3_initializer 1012d674     libucrt:fma3_initializer.obj
 0002:00000678       ___xi_z                    1012d678     LIBCMT:initializers.obj
 0002:0000067c       ___xl_a                    1012d67c     LIBCMT:tlssup.obj
 0002:00000680       ___xl_z                    1012d680     LIBCMT:tlssup.obj
 0002:00000684       ___xp_a                    1012d684     LIBCMT:initializers.obj
 0002:00000688       ___acrt_locale_terminator  1012d688     libucrt:locale_initializer.obj
 0002:0000068c       ___dcrt_console_output_terminator 1012d68c     libucrt:console_output_initializer.obj
 0002:00000690       ___acrt_stdio_terminator   1012d690     libucrt:stdio_initializer.obj
 0002:00000694       ___xp_z                    1012d694     LIBCMT:initializers.obj
 0002:00000698       ___xt_a                    1012d698     LIBCMT:initializers.obj
 0002:0000069c       ___xt_z                    1012d69c     LIBCMT:initializers.obj
 0002:000006a4       ??_7exception@std@@6B@     1012d6a4     libcpmt:xthrow.obj
 0002:000006b0       ??_7bad_alloc@std@@6B@     1012d6b0     libcpmt:xthrow.obj
 0002:000006b8       ??_C@_0P@GHFPNOJB@bad?5allocation@ 1012d6b8     libcpmt:xthrow.obj
 0002:000006cc       ??_7logic_error@std@@6B@   1012d6cc     libcpmt:xthrow.obj
 0002:000006d8       ??_7length_error@std@@6B@  1012d6d8     libcpmt:xthrow.obj
 0002:000006e4       ??_7out_of_range@std@@6B@  1012d6e4     libcpmt:xthrow.obj
 0002:000006f0       ??_7runtime_error@std@@6B@ 1012d6f0     libcpmt:xthrow.obj
 0002:000006fc       ??_7stl_critical_section_win7@details@Concurrency@@6B@ 1012d6fc     libcpmt:mutex.obj
 0002:00000764       ??_7_Facet_base@std@@6B@   1012d764     libcpmt:locale0.obj
 0002:00000774       ??_7_Locimp@locale@std@@6B@ 1012d774     libcpmt:locale0.obj
 0002:00000780       ?_BADOFF@std@@3_JB         1012d780     libcpmt:ios.obj
 0002:00000ca0       ??_C@_07IPNMCAN@success@   1012dca0     libcpmt:syserror.obj
 0002:00000ca8       ??_C@_0BN@LKKBCCDB@address?5family?5not?5supported@ 1012dca8     libcpmt:syserror.obj
 0002:00000cc8       ??_C@_0P@LDMLAFHI@address?5in?5use@ 1012dcc8     libcpmt:syserror.obj
 0002:00000cd8       ??_C@_0BG@DHPCNBJB@address?5not?5available@ 1012dcd8     libcpmt:syserror.obj
 0002:00000cf0       ??_C@_0BC@DFIBIBIL@already?5connected@ 1012dcf0     libcpmt:syserror.obj
 0002:00000d04       ??_C@_0BH@CAKOHOMI@argument?5list?5too?5long@ 1012dd04     libcpmt:syserror.obj
 0002:00000d1c       ??_C@_0BH@CGIMPKIM@argument?5out?5of?5domain@ 1012dd1c     libcpmt:syserror.obj
 0002:00000d34       ??_C@_0M@KGHGGJGL@bad?5address@ 1012dd34     libcpmt:syserror.obj
 0002:00000d40       ??_C@_0BE@MPJPGCEO@bad?5file?5descriptor@ 1012dd40     libcpmt:syserror.obj
 0002:00000d54       ??_C@_0M@PMMIEFCP@bad?5message@ 1012dd54     libcpmt:syserror.obj
 0002:00000d60       ??_C@_0M@KPHOFDBE@broken?5pipe@ 1012dd60     libcpmt:syserror.obj
 0002:00000d6c       ??_C@_0BD@MGNDDEGM@connection?5aborted@ 1012dd6c     libcpmt:syserror.obj
 0002:00000d80       ??_C@_0BP@KAIHPOGN@connection?5already?5in?5progress@ 1012dd80     libcpmt:syserror.obj
 0002:00000da0       ??_C@_0BD@PJLIIJEL@connection?5refused@ 1012dda0     libcpmt:syserror.obj
 0002:00000db4       ??_C@_0BB@IECNJNOI@connection?5reset@ 1012ddb4     libcpmt:syserror.obj
 0002:00000dc8       ??_C@_0BC@PPHBOELF@cross?5device?5link@ 1012ddc8     libcpmt:syserror.obj
 0002:00000ddc       ??_C@_0BN@KDMIFEIP@destination?5address?5required@ 1012dddc     libcpmt:syserror.obj
 0002:00000dfc       ??_C@_0BI@NGCEHDD@device?5or?5resource?5busy@ 1012ddfc     libcpmt:syserror.obj
 0002:00000e14       ??_C@_0BE@JIDOCPHM@directory?5not?5empty@ 1012de14     libcpmt:syserror.obj
 0002:00000e28       ??_C@_0BI@BNCLIGPB@executable?5format?5error@ 1012de28     libcpmt:syserror.obj
 0002:00000e40       ??_C@_0M@MIDIAGJP@file?5exists@ 1012de40     libcpmt:syserror.obj
 0002:00000e4c       ??_C@_0P@DNAJLBJK@file?5too?5large@ 1012de4c     libcpmt:syserror.obj
 0002:00000e5c       ??_C@_0BC@EJHOMAAK@filename?5too?5long@ 1012de5c     libcpmt:syserror.obj
 0002:00000e70       ??_C@_0BH@KEFGLDAF@function?5not?5supported@ 1012de70     libcpmt:syserror.obj
 0002:00000e88       ??_C@_0BB@DHFDFGDM@host?5unreachable@ 1012de88     libcpmt:syserror.obj
 0002:00000e9c       ??_C@_0BD@JPHBMONG@identifier?5removed@ 1012de9c     libcpmt:syserror.obj
 0002:00000eb0       ??_C@_0BG@CDNPAGJK@illegal?5byte?5sequence@ 1012deb0     libcpmt:syserror.obj
 0002:00000ec8       ??_C@_0CD@BNPLBMNA@inappropriate?5io?5control?5operat@ 1012dec8     libcpmt:syserror.obj
 0002:00000eec       ??_C@_0M@EGEKIIMP@interrupted@ 1012deec     libcpmt:syserror.obj
 0002:00000ef8       ??_C@_0BB@FCMFBGOM@invalid?5argument@ 1012def8     libcpmt:syserror.obj
 0002:00000f0c       ??_C@_0N@OHAFKDEK@invalid?5seek@ 1012df0c     libcpmt:syserror.obj
 0002:00000f1c       ??_C@_08GLNPIFBN@io?5error@ 1012df1c     libcpmt:syserror.obj
 0002:00000f28       ??_C@_0P@FLLDBIDK@is?5a?5directory@ 1012df28     libcpmt:syserror.obj
 0002:00000f38       ??_C@_0N@IFLPBIOP@message?5size@ 1012df38     libcpmt:syserror.obj
 0002:00000f48       ??_C@_0N@KIIEAAIO@network?5down@ 1012df48     libcpmt:syserror.obj
 0002:00000f58       ??_C@_0O@FNPDBHEE@network?5reset@ 1012df58     libcpmt:syserror.obj
 0002:00000f68       ??_C@_0BE@IFNCKGE@network?5unreachable@ 1012df68     libcpmt:syserror.obj
 0002:00000f7c       ??_C@_0BA@PFFCAOFK@no?5buffer?5space@ 1012df7c     libcpmt:syserror.obj
 0002:00000f8c       ??_C@_0BB@IEPBLJHK@no?5child?5process@ 1012df8c     libcpmt:syserror.obj
 0002:00000fa0       ??_C@_07PLECNNKG@no?5link@ 1012dfa0     libcpmt:syserror.obj
 0002:00000fa8       ??_C@_0BC@NJECKMKE@no?5lock?5available@ 1012dfa8     libcpmt:syserror.obj
 0002:00000fbc       ??_C@_0BF@PBGGPKKE@no?5message?5available@ 1012dfbc     libcpmt:syserror.obj
 0002:00000fd4       ??_C@_0L@EDOLMPAK@no?5message@ 1012dfd4     libcpmt:syserror.obj
 0002:00000fe0       ??_C@_0BD@EAMBFIDF@no?5protocol?5option@ 1012dfe0     libcpmt:syserror.obj
 0002:00000ff4       ??_C@_0BD@IJDJKDEA@no?5space?5on?5device@ 1012dff4     libcpmt:syserror.obj
 0002:00001008       ??_C@_0BE@MKFDAFMP@no?5stream?5resources@ 1012e008     libcpmt:syserror.obj
 0002:0000101c       ??_C@_0BK@IMCPHCBI@no?5such?5device?5or?5address@ 1012e01c     libcpmt:syserror.obj
 0002:00001038       ??_C@_0P@FDINDDOK@no?5such?5device@ 1012e038     libcpmt:syserror.obj
 0002:00001048       ??_C@_0BK@NDOCBPGE@no?5such?5file?5or?5directory@ 1012e048     libcpmt:syserror.obj
 0002:00001064       ??_C@_0BA@ENLPPKBN@no?5such?5process@ 1012e064     libcpmt:syserror.obj
 0002:00001074       ??_C@_0BA@DOCPFFJG@not?5a?5directory@ 1012e074     libcpmt:syserror.obj
 0002:00001084       ??_C@_0N@POEIPGGF@not?5a?5socket@ 1012e084     libcpmt:syserror.obj
 0002:00001094       ??_C@_0N@LGAPMMPI@not?5a?5stream@ 1012e094     libcpmt:syserror.obj
 0002:000010a4       ??_C@_0O@GLMIBBEG@not?5connected@ 1012e0a4     libcpmt:syserror.obj
 0002:000010b4       ??_C@_0BC@ENOOLCNF@not?5enough?5memory@ 1012e0b4     libcpmt:syserror.obj
 0002:000010c8       ??_C@_0O@NHEDABJP@not?5supported@ 1012e0c8     libcpmt:syserror.obj
 0002:000010d8       ??_C@_0BD@MOLBPMEA@operation?5canceled@ 1012e0d8     libcpmt:syserror.obj
 0002:000010ec       ??_C@_0BG@KDKHOPCO@operation?5in?5progress@ 1012e0ec     libcpmt:syserror.obj
 0002:00001104       ??_C@_0BI@OHIEJAAB@operation?5not?5permitted@ 1012e104     libcpmt:syserror.obj
 0002:0000111c       ??_C@_0BI@LNEGIFLN@operation?5not?5supported@ 1012e11c     libcpmt:syserror.obj
 0002:00001134       ??_C@_0BG@OEMDKMEE@operation?5would?5block@ 1012e134     libcpmt:syserror.obj
 0002:0000114c       ??_C@_0L@BLPOFLNJ@owner?5dead@ 1012e14c     libcpmt:syserror.obj
 0002:00001158       ??_C@_0BC@CIJDGCDI@permission?5denied@ 1012e158     libcpmt:syserror.obj
 0002:0000116c       ??_C@_0P@FNPOCJBE@protocol?5error@ 1012e16c     libcpmt:syserror.obj
 0002:0000117c       ??_C@_0BH@JPPPLHJB@protocol?5not?5supported@ 1012e17c     libcpmt:syserror.obj
 0002:00001194       ??_C@_0BG@EICBIHDP@read?5only?5file?5system@ 1012e194     libcpmt:syserror.obj
 0002:000011ac       ??_C@_0BO@BJBOMOEJ@resource?5deadlock?5would?5occur@ 1012e1ac     libcpmt:syserror.obj
 0002:000011cc       ??_C@_0BP@LKNGHENJ@resource?5unavailable?5try?5again@ 1012e1cc     libcpmt:syserror.obj
 0002:000011ec       ??_C@_0BE@GOIPJJHG@result?5out?5of?5range@ 1012e1ec     libcpmt:syserror.obj
 0002:00001200       ??_C@_0BG@MPLKFPAE@state?5not?5recoverable@ 1012e200     libcpmt:syserror.obj
 0002:00001218       ??_C@_0P@DIIFGFCG@stream?5timeout@ 1012e218     libcpmt:syserror.obj
 0002:00001228       ??_C@_0P@IPFDMIFL@text?5file?5busy@ 1012e228     libcpmt:syserror.obj
 0002:00001238       ??_C@_09KJPPMAOI@timed?5out@ 1012e238     libcpmt:syserror.obj
 0002:00001244       ??_C@_0BO@HACHBEKI@too?5many?5files?5open?5in?5system@ 1012e244     libcpmt:syserror.obj
 0002:00001264       ??_C@_0BE@GHAFMPAH@too?5many?5files?5open@ 1012e264     libcpmt:syserror.obj
 0002:00001278       ??_C@_0P@HCOMKFCC@too?5many?5links@ 1012e278     libcpmt:syserror.obj
 0002:00001288       ??_C@_0BO@EFGOJEF@too?5many?5symbolic?5link?5levels@ 1012e288     libcpmt:syserror.obj
 0002:000012a8       ??_C@_0BA@KGKGOOJA@value?5too?5large@ 1012e2a8     libcpmt:syserror.obj
 0002:000012b8       ??_C@_0BE@MIEJDDNH@wrong?5protocol?5type@ 1012e2b8     libcpmt:syserror.obj
 0002:000012cc       ??_C@_0O@BFJCFAAK@unknown?5error@ 1012e2cc     libcpmt:syserror.obj
 0002:00001368       ??_C@_02GMLFBBN@wb@        1012e368     libcpmt:fiopen.obj
 0002:0000136c       ??_C@_02CBLLGHLK@r?$CL@    1012e36c     libcpmt:fiopen.obj
 0002:00001370       ??_C@_02CHHAKFFB@w?$CL@    1012e370     libcpmt:fiopen.obj
 0002:00001374       ??_C@_02DPNLHKJD@a?$CL@    1012e374     libcpmt:fiopen.obj
 0002:00001378       ??_C@_03HMFOOINA@r?$CLb@   1012e378     libcpmt:fiopen.obj
 0002:0000137c       ??_C@_03ELIABIOC@w?$CLb@   1012e37c     libcpmt:fiopen.obj
 0002:00001380       ??_C@_03DOPCBAKB@a?$CLb@   1012e380     libcpmt:fiopen.obj
 0002:000013c0       ??_7bad_array_new_length@std@@6B@ 1012e3c0     libcpmt:thread0.obj
 0002:000013cc       ??_7_System_error@std@@6B@ 1012e3cc     libcpmt:thread0.obj
 0002:000013d8       ??_7system_error@std@@6B@  1012e3d8     libcpmt:thread0.obj
 0002:000013e4       ??_7_Generic_error_category@std@@6B@ 1012e3e4     libcpmt:thread0.obj
 0002:000013fc       ??_C@_07DCLBNMLN@generic@  1012e3fc     libcpmt:thread0.obj
 0002:00001408       ??_7?$ctype@D@std@@6B@     1012e408     libcpmt:locale.obj
 0002:00001438       ??_7?$codecvt@DDU_Mbstatet@@@std@@6B@ 1012e438     libcpmt:locale.obj
 0002:00001560       ??_C@_1BK@MGMFAEKH@?$AAk?$AAe?$AAr?$AAn?$AAe?$AAl?$AA3?$AA2?$AA?4?$AAd?$AAl?$AAl@ 1012e560     libcpmt:winapisupp.obj
 0002:0000157c       ??_C@_0BE@JOGNEJCI@GetCurrentPackageId@ 1012e57c     libcpmt:winapisupp.obj
 0002:00001590       ??_C@_0BP@FPNJPEJC@GetSystemTimePreciseAsFileTime@ 1012e590     libcpmt:winapisupp.obj
 0002:000015b0       ??_C@_0O@NNMIPI@GetTempPath2W@ 1012e5b0     libcpmt:winapisupp.obj
 0002:000015c4       ??_7_Iostream_error_category2@std@@6B@ 1012e5c4     libcpmt:wlocale.obj
 0002:000015e0       ??_7failure@ios_base@std@@6B@ 1012e5e0     libcpmt:wlocale.obj
 0002:000015e8       ??_C@_11LOCGONAA@@         1012e5e8     libcpmt:wlocale.obj
 0002:000015ec       ??_C@_13IMODFHAA@?$AA?9@   1012e5ec     libcpmt:wlocale.obj
 0002:000015f0       ??_C@_1EC@JIJBPKFM@?$AAa?$AAp?$AAi?$AA?9?$AAm?$AAs?$AA?9?$AAw?$AAi?$AAn?$AA?9?$AAc?$AAo?$AAr?$AAe@ 1012e5f0     LIBCMT:thread_safe_statics.obj
 0002:00001634       ??_C@_0BJ@JEBJOJFJ@SleepConditionVariableCS@ 1012e634     LIBCMT:thread_safe_statics.obj
 0002:00001650       ??_C@_0BJ@PGPPEPCC@WakeAllConditionVariable@ 1012e650     LIBCMT:thread_safe_statics.obj
 0002:00001670       ??_7type_info@@6B@         1012e670     LIBCMT:std_type_info_static.obj
 0002:0000167c       __pDefaultRawDllMain       1012e67c     LIBCMT:dll_dllmain.obj
 0002:0000167c       __pRawDllMain              1012e67c     LIBCMT:dll_dllmain.obj
 0002:00001720       ??_C@_0NN@JMPELKLB@The?5value?5of?5ESP?5was?5not?5proper@ 1012e720     LIBCMT:error.obj
 0002:00001800       ??_C@_0BBN@ELNNILBE@A?5cast?5to?5a?5smaller?5data?5type?5h@ 1012e800     LIBCMT:error.obj
 0002:00001920       ??_C@_0BN@BPOGFMJL@Stack?5memory?5was?5corrupted?$AN?6@ 1012e920     LIBCMT:error.obj
 0002:00001940       ??_C@_0DG@DAJCDLPN@A?5local?5variable?5was?5used?5befor@ 1012e940     LIBCMT:error.obj
 0002:00001978       ??_C@_0CM@JMIDGKLA@Stack?5memory?5around?5_alloca?5was@ 1012e978     LIBCMT:error.obj
 0002:000019a4       ??_C@_0BO@CHIONIOI@Unknown?5Runtime?5Check?5Error?$AN?6@ 1012e9a4     LIBCMT:error.obj
 0002:000019c8       ??_C@_1GM@CNOOJIHC@?$AAR?$AAu?$AAn?$AAt?$AAi?$AAm?$AAe?$AA?5?$AAC?$AAh?$AAe?$AAc?$AAk?$AA?5?$AAE@ 1012e9c8     LIBCMT:error.obj
 0002:00001a38       ??_C@_1EA@NFKNIFJP@?$AAR?$AAu?$AAn?$AA?9?$AAT?$AAi?$AAm?$AAe?$AA?5?$AAC?$AAh?$AAe?$AAc?$AAk?$AA?5@ 1012ea38     LIBCMT:error.obj
 0002:00001a78       ??_C@_0BB@PFFGGCJP@Unknown?5Filename@ 1012ea78     LIBCMT:error.obj
 0002:00001a8c       ??_C@_0BE@GNBOBNCK@Unknown?5Module?5Name@ 1012ea8c     LIBCMT:error.obj
 0002:00001aa0       ??_C@_0CA@IODNCDPG@Run?9Time?5Check?5Failure?5?$CD?$CFd?5?9?5?$CFs@ 1012eaa0     LIBCMT:error.obj
 0002:00001ac0       ??_C@_0CG@IAFNJNEE@Stack?5corrupted?5near?5unknown?5va@ 1012eac0     LIBCMT:error.obj
 0002:00001ae8       ??_C@_0DE@OHJBPMBP@A?5variable?5is?5being?5used?5withou@ 1012eae8     LIBCMT:error.obj
 0002:00001b30       ??_C@_0BJ@HEGAHDFO@Stack?5pointer?5corruption@ 1012eb30     LIBCMT:userapi.obj
 0002:00001b4c       ??_C@_0CK@FEGOIOPB@Cast?5to?5smaller?5type?5causing?5lo@ 1012eb4c     LIBCMT:userapi.obj
 0002:00001b78       ??_C@_0BI@CIGMDCBH@Stack?5memory?5corruption@ 1012eb78     LIBCMT:userapi.obj
 0002:00001b90       ??_C@_0CK@CNLNOEPB@Local?5variable?5used?5before?5init@ 1012eb90     LIBCMT:userapi.obj
 0002:00001bbc       ??_C@_0BP@OGBCLIBO@Stack?5around?5_alloca?5corrupted@ 1012ebbc     LIBCMT:userapi.obj
 0002:00001c00       ??_C@_1EI@MLPKHBGE@?$AAa?$AAp?$AAi?$AA?9?$AAm?$AAs?$AA?9?$AAw?$AAi?$AAn?$AA?9?$AAc?$AAo?$AAr?$AAe@ 1012ec00     LIBCMT:pdblkup.obj
 0002:00001c48       ??_C@_1BK@JHLNAEJL@?$AAa?$AAd?$AAv?$AAa?$AAp?$AAi?$AA3?$AA2?$AA?4?$AAd?$AAl?$AAl@ 1012ec48     LIBCMT:pdblkup.obj
 0002:00001c64       ??_C@_0O@COHOBMLB@RegOpenKeyExW@ 1012ec64     LIBCMT:pdblkup.obj
 0002:00001c74       ??_C@_0BB@GLNAEDBD@RegQueryValueExW@ 1012ec74     LIBCMT:pdblkup.obj
 0002:00001c88       ??_C@_0M@HLOHPNFA@RegCloseKey@ 1012ec88     LIBCMT:pdblkup.obj
 0002:00001c98       ??_C@_1HE@EBEAGLFB@?$AAS?$AAO?$AAF?$AAT?$AAW?$AAA?$AAR?$AAE?$AA?2?$AAW?$AAo?$AAw?$AA6?$AA4?$AA3@ 1012ec98     LIBCMT:pdblkup.obj
 0002:00001d0c       ??_C@_1BG@EABPBLLF@?$AAP?$AAr?$AAo?$AAd?$AAu?$AAc?$AAt?$AAD?$AAi?$AAr@ 1012ed0c     LIBCMT:pdblkup.obj
 0002:00001d24       ??_C@_0BB@KCIACLNC@PDBOpenValidate5@ 1012ed24     LIBCMT:pdblkup.obj
 0002:00001e50       ??_C@_02PEOAMJM@?4_@       1012ee50     freetype:ftbase.obj
 0002:00001e54       ??_C@_05FLPKNBDI@?1rsrc@   1012ee54     freetype:ftbase.obj
 0002:00001e5c       ??_C@_0BC@OBHLCHMP@?1?4?4namedfork?1rsrc@ 1012ee5c     freetype:ftbase.obj
 0002:00001e70       ??_C@_0O@FDMCFKOC@resource?4frk?1@ 1012ee70     freetype:ftbase.obj
 0002:00001e80       ??_C@_0L@FGJFJHGF@?4resource?1@ 1012ee80     freetype:ftbase.obj
 0002:00001e8c       ??_C@_01FGNFDNOH@?$CF@     1012ee8c     freetype:ftbase.obj
 0002:00001e90       ??_C@_0O@KCDCBAF@?4AppleDouble?1@ 1012ee90     freetype:ftbase.obj
 0002:00001ea0       ??_C@_0M@NJKHAGNP@font?9format@ 1012eea0     freetype:ftbase.obj
 0002:00001eac       ??_C@_06JCBOBHIA@Type?51@  1012eeac     freetype:ftbase.obj
 0002:00001eb4       ??_C@_03LBLPCGAC@cid@      1012eeb4     freetype:ftbase.obj
 0002:00001eb8       ??_C@_05MJDCDNNA@type1@    1012eeb8     freetype:ftbase.obj
 0002:00001ec0       ??_C@_03IINFADLN@cff@      1012eec0     freetype:ftbase.obj
 0002:00001ec4       ??_C@_08OKLLNAKL@truetype@ 1012eec4     freetype:ftbase.obj
 0002:00001ed0       ??_C@_07IAOBDJBM@kerning@  1012eed0     freetype:ftbase.obj
 0002:00001ed8       ??_C@_0L@POCJHJKN@glyph?9dict@ 1012eed8     freetype:ftbase.obj
 0002:00001ee4       ??_C@_0BF@GDPJODJF@postscript?9font?9name@ 1012eee4     freetype:ftbase.obj
 0002:00001efc       ??_C@_0L@MBBJBANC@sfnt?9table@ 1012eefc     freetype:ftbase.obj
 0002:00001f08       ??_C@_08OHCKCLF@tt?9cmaps@ 1012ef08     freetype:ftbase.obj
 0002:00001f14       ??_C@_0L@CIHKIEFA@properties@ 1012ef14     freetype:ftbase.obj
 0002:00001f20       ??_C@_06GNKBHGHD@type42@   1012ef20     freetype:ftbase.obj
 0002:00001f28       ??_C@_0BA@DHLLBDBB@truetype?9engine@ 1012ef28     freetype:ftbase.obj
 0002:00001f38       ??_C@_0BF@GIDENNON@darkening?9parameters@ 1012ef38     freetype:ftbase.obj
 0002:00001f50       ??_C@_0P@DGAAAJJA@hinting?9engine@ 1012ef50     freetype:ftbase.obj
 0002:00001f60       ??_C@_05NBLLDENH@adobe@    1012ef60     freetype:ftbase.obj
 0002:00001f68       ??_C@_0BC@GFOLLGHN@no?9stem?9darkening@ 1012ef68     freetype:ftbase.obj
 0002:00001f7c       ??_C@_0M@LGDPDIPE@random?9seed@ 1012ef7c     freetype:ftbase.obj
 0002:00001f88       _autofit_module_class      1012ef88     freetype:autofit.obj
 0002:00001fac       _af_writing_system_classes 1012efac     freetype:autofit.obj
 0002:00001fc0       _af_adlm_script_class      1012efc0     freetype:autofit.obj
 0002:00001fd4       _af_arab_script_class      1012efd4     freetype:autofit.obj
 0002:00001fe8       _af_armn_script_class      1012efe8     freetype:autofit.obj
 0002:00001ffc       _af_avst_script_class      1012effc     freetype:autofit.obj
 0002:00002010       _af_bamu_script_class      1012f010     freetype:autofit.obj
 0002:00002024       _af_beng_script_class      1012f024     freetype:autofit.obj
 0002:00002038       _af_buhd_script_class      1012f038     freetype:autofit.obj
 0002:0000204c       _af_cakm_script_class      1012f04c     freetype:autofit.obj
 0002:00002060       _af_cans_script_class      1012f060     freetype:autofit.obj
 0002:00002074       _af_cari_script_class      1012f074     freetype:autofit.obj
 0002:00002088       _af_cher_script_class      1012f088     freetype:autofit.obj
 0002:0000209c       _af_copt_script_class      1012f09c     freetype:autofit.obj
 0002:000020b0       _af_cprt_script_class      1012f0b0     freetype:autofit.obj
 0002:000020c4       _af_cyrl_script_class      1012f0c4     freetype:autofit.obj
 0002:000020d8       _af_deva_script_class      1012f0d8     freetype:autofit.obj
 0002:000020ec       _af_dsrt_script_class      1012f0ec     freetype:autofit.obj
 0002:00002100       _af_ethi_script_class      1012f100     freetype:autofit.obj
 0002:00002114       _af_geor_script_class      1012f114     freetype:autofit.obj
 0002:00002128       _af_geok_script_class      1012f128     freetype:autofit.obj
 0002:0000213c       _af_glag_script_class      1012f13c     freetype:autofit.obj
 0002:00002150       _af_goth_script_class      1012f150     freetype:autofit.obj
 0002:00002164       _af_grek_script_class      1012f164     freetype:autofit.obj
 0002:00002178       _af_gujr_script_class      1012f178     freetype:autofit.obj
 0002:0000218c       _af_guru_script_class      1012f18c     freetype:autofit.obj
 0002:000021a0       _af_hebr_script_class      1012f1a0     freetype:autofit.obj
 0002:000021b4       _af_kali_script_class      1012f1b4     freetype:autofit.obj
 0002:000021c8       _af_khmr_script_class      1012f1c8     freetype:autofit.obj
 0002:000021dc       _af_khms_script_class      1012f1dc     freetype:autofit.obj
 0002:000021f0       _af_knda_script_class      1012f1f0     freetype:autofit.obj
 0002:00002204       _af_lao_script_class       1012f204     freetype:autofit.obj
 0002:00002218       _af_latn_script_class      1012f218     freetype:autofit.obj
 0002:0000222c       _af_latb_script_class      1012f22c     freetype:autofit.obj
 0002:00002240       _af_latp_script_class      1012f240     freetype:autofit.obj
 0002:00002254       _af_lisu_script_class      1012f254     freetype:autofit.obj
 0002:00002268       _af_mlym_script_class      1012f268     freetype:autofit.obj
 0002:0000227c       _af_mong_script_class      1012f27c     freetype:autofit.obj
 0002:00002290       _af_mymr_script_class      1012f290     freetype:autofit.obj
 0002:000022a4       _af_nkoo_script_class      1012f2a4     freetype:autofit.obj
 0002:000022b8       _af_none_script_class      1012f2b8     freetype:autofit.obj
 0002:000022cc       _af_olck_script_class      1012f2cc     freetype:autofit.obj
 0002:000022e0       _af_orkh_script_class      1012f2e0     freetype:autofit.obj
 0002:000022f4       _af_osge_script_class      1012f2f4     freetype:autofit.obj
 0002:00002308       _af_osma_script_class      1012f308     freetype:autofit.obj
 0002:0000231c       _af_rohg_script_class      1012f31c     freetype:autofit.obj
 0002:00002330       _af_saur_script_class      1012f330     freetype:autofit.obj
 0002:00002344       _af_shaw_script_class      1012f344     freetype:autofit.obj
 0002:00002358       _af_sinh_script_class      1012f358     freetype:autofit.obj
 0002:0000236c       _af_sund_script_class      1012f36c     freetype:autofit.obj
 0002:00002380       _af_taml_script_class      1012f380     freetype:autofit.obj
 0002:00002394       _af_tavt_script_class      1012f394     freetype:autofit.obj
 0002:000023a8       _af_telu_script_class      1012f3a8     freetype:autofit.obj
 0002:000023bc       _af_tfng_script_class      1012f3bc     freetype:autofit.obj
 0002:000023d0       _af_thai_script_class      1012f3d0     freetype:autofit.obj
 0002:000023e4       _af_vaii_script_class      1012f3e4     freetype:autofit.obj
 0002:000023f8       _af_limb_script_class      1012f3f8     freetype:autofit.obj
 0002:0000240c       _af_orya_script_class      1012f40c     freetype:autofit.obj
 0002:00002420       _af_sylo_script_class      1012f420     freetype:autofit.obj
 0002:00002434       _af_tibt_script_class      1012f434     freetype:autofit.obj
 0002:00002448       _af_hani_script_class      1012f448     freetype:autofit.obj
 0002:0000245c       _af_adlm_dflt_style_class  1012f45c     freetype:autofit.obj
 0002:00002470       _af_script_classes         1012f470     freetype:autofit.obj
 0002:00002560       _af_arab_dflt_style_class  1012f560     freetype:autofit.obj
 0002:00002574       _af_armn_dflt_style_class  1012f574     freetype:autofit.obj
 0002:00002588       _af_avst_dflt_style_class  1012f588     freetype:autofit.obj
 0002:0000259c       _af_bamu_dflt_style_class  1012f59c     freetype:autofit.obj
 0002:000025b0       _af_beng_dflt_style_class  1012f5b0     freetype:autofit.obj
 0002:000025c4       _af_buhd_dflt_style_class  1012f5c4     freetype:autofit.obj
 0002:000025d8       _af_cakm_dflt_style_class  1012f5d8     freetype:autofit.obj
 0002:000025ec       _af_cans_dflt_style_class  1012f5ec     freetype:autofit.obj
 0002:00002600       _af_cari_dflt_style_class  1012f600     freetype:autofit.obj
 0002:00002614       _af_cher_dflt_style_class  1012f614     freetype:autofit.obj
 0002:00002628       _af_copt_dflt_style_class  1012f628     freetype:autofit.obj
 0002:0000263c       _af_cprt_dflt_style_class  1012f63c     freetype:autofit.obj
 0002:00002650       _af_cyrl_c2cp_style_class  1012f650     freetype:autofit.obj
 0002:00002664       _af_cyrl_c2sc_style_class  1012f664     freetype:autofit.obj
 0002:00002678       _af_cyrl_ordn_style_class  1012f678     freetype:autofit.obj
 0002:0000268c       _af_cyrl_pcap_style_class  1012f68c     freetype:autofit.obj
 0002:000026a0       _af_cyrl_sinf_style_class  1012f6a0     freetype:autofit.obj
 0002:000026b4       _af_cyrl_smcp_style_class  1012f6b4     freetype:autofit.obj
 0002:000026c8       _af_cyrl_subs_style_class  1012f6c8     freetype:autofit.obj
 0002:000026dc       _af_cyrl_sups_style_class  1012f6dc     freetype:autofit.obj
 0002:000026f0       _af_cyrl_titl_style_class  1012f6f0     freetype:autofit.obj
 0002:00002704       _af_cyrl_dflt_style_class  1012f704     freetype:autofit.obj
 0002:00002718       _af_deva_dflt_style_class  1012f718     freetype:autofit.obj
 0002:0000272c       _af_dsrt_dflt_style_class  1012f72c     freetype:autofit.obj
 0002:00002740       _af_ethi_dflt_style_class  1012f740     freetype:autofit.obj
 0002:00002754       _af_geor_dflt_style_class  1012f754     freetype:autofit.obj
 0002:00002768       _af_geok_dflt_style_class  1012f768     freetype:autofit.obj
 0002:0000277c       _af_glag_dflt_style_class  1012f77c     freetype:autofit.obj
 0002:00002790       _af_goth_dflt_style_class  1012f790     freetype:autofit.obj
 0002:000027a4       _af_grek_c2cp_style_class  1012f7a4     freetype:autofit.obj
 0002:000027b8       _af_grek_c2sc_style_class  1012f7b8     freetype:autofit.obj
 0002:000027cc       _af_grek_ordn_style_class  1012f7cc     freetype:autofit.obj
 0002:000027e0       _af_grek_pcap_style_class  1012f7e0     freetype:autofit.obj
 0002:000027f4       _af_grek_sinf_style_class  1012f7f4     freetype:autofit.obj
 0002:00002808       _af_grek_smcp_style_class  1012f808     freetype:autofit.obj
 0002:0000281c       _af_grek_subs_style_class  1012f81c     freetype:autofit.obj
 0002:00002830       _af_grek_sups_style_class  1012f830     freetype:autofit.obj
 0002:00002844       _af_grek_titl_style_class  1012f844     freetype:autofit.obj
 0002:00002858       _af_grek_dflt_style_class  1012f858     freetype:autofit.obj
 0002:0000286c       _af_gujr_dflt_style_class  1012f86c     freetype:autofit.obj
 0002:00002880       _af_guru_dflt_style_class  1012f880     freetype:autofit.obj
 0002:00002894       _af_hebr_dflt_style_class  1012f894     freetype:autofit.obj
 0002:000028a8       _af_kali_dflt_style_class  1012f8a8     freetype:autofit.obj
 0002:000028bc       _af_khmr_dflt_style_class  1012f8bc     freetype:autofit.obj
 0002:000028d0       _af_khms_dflt_style_class  1012f8d0     freetype:autofit.obj
 0002:000028e4       _af_knda_dflt_style_class  1012f8e4     freetype:autofit.obj
 0002:000028f8       _af_lao_dflt_style_class   1012f8f8     freetype:autofit.obj
 0002:0000290c       _af_latn_c2cp_style_class  1012f90c     freetype:autofit.obj
 0002:00002920       _af_latn_c2sc_style_class  1012f920     freetype:autofit.obj
 0002:00002934       _af_latn_ordn_style_class  1012f934     freetype:autofit.obj
 0002:00002948       _af_latn_pcap_style_class  1012f948     freetype:autofit.obj
 0002:0000295c       _af_latn_sinf_style_class  1012f95c     freetype:autofit.obj
 0002:00002970       _af_latn_smcp_style_class  1012f970     freetype:autofit.obj
 0002:00002984       _af_latn_subs_style_class  1012f984     freetype:autofit.obj
 0002:00002998       _af_latn_sups_style_class  1012f998     freetype:autofit.obj
 0002:000029ac       _af_latn_titl_style_class  1012f9ac     freetype:autofit.obj
 0002:000029c0       _af_latn_dflt_style_class  1012f9c0     freetype:autofit.obj
 0002:000029d4       _af_latb_dflt_style_class  1012f9d4     freetype:autofit.obj
 0002:000029e8       _af_latp_dflt_style_class  1012f9e8     freetype:autofit.obj
 0002:000029fc       _af_lisu_dflt_style_class  1012f9fc     freetype:autofit.obj
 0002:00002a10       _af_mlym_dflt_style_class  1012fa10     freetype:autofit.obj
 0002:00002a24       _af_mong_dflt_style_class  1012fa24     freetype:autofit.obj
 0002:00002a38       _af_mymr_dflt_style_class  1012fa38     freetype:autofit.obj
 0002:00002a4c       _af_nkoo_dflt_style_class  1012fa4c     freetype:autofit.obj
 0002:00002a60       _af_none_dflt_style_class  1012fa60     freetype:autofit.obj
 0002:00002a74       _af_olck_dflt_style_class  1012fa74     freetype:autofit.obj
 0002:00002a88       _af_orkh_dflt_style_class  1012fa88     freetype:autofit.obj
 0002:00002a9c       _af_osge_dflt_style_class  1012fa9c     freetype:autofit.obj
 0002:00002ab0       _af_osma_dflt_style_class  1012fab0     freetype:autofit.obj
 0002:00002ac4       _af_rohg_dflt_style_class  1012fac4     freetype:autofit.obj
 0002:00002ad8       _af_saur_dflt_style_class  1012fad8     freetype:autofit.obj
 0002:00002aec       _af_shaw_dflt_style_class  1012faec     freetype:autofit.obj
 0002:00002b00       _af_sinh_dflt_style_class  1012fb00     freetype:autofit.obj
 0002:00002b14       _af_sund_dflt_style_class  1012fb14     freetype:autofit.obj
 0002:00002b28       _af_taml_dflt_style_class  1012fb28     freetype:autofit.obj
 0002:00002b3c       _af_tavt_dflt_style_class  1012fb3c     freetype:autofit.obj
 0002:00002b50       _af_telu_dflt_style_class  1012fb50     freetype:autofit.obj
 0002:00002b64       _af_tfng_dflt_style_class  1012fb64     freetype:autofit.obj
 0002:00002b78       _af_thai_dflt_style_class  1012fb78     freetype:autofit.obj
 0002:00002b8c       _af_vaii_dflt_style_class  1012fb8c     freetype:autofit.obj
 0002:00002ba0       _af_limb_dflt_style_class  1012fba0     freetype:autofit.obj
 0002:00002bb4       _af_orya_dflt_style_class  1012fbb4     freetype:autofit.obj
 0002:00002bc8       _af_sylo_dflt_style_class  1012fbc8     freetype:autofit.obj
 0002:00002bdc       _af_tibt_dflt_style_class  1012fbdc     freetype:autofit.obj
 0002:00002bf0       _af_hani_dflt_style_class  1012fbf0     freetype:autofit.obj
 0002:00002c08       _af_style_classes          1012fc08     freetype:autofit.obj
 0002:00002d64       _af_latin_writing_system_class 1012fd64     freetype:autofit.obj
 0002:00002d84       _af_cjk_writing_system_class 1012fd84     freetype:autofit.obj
 0002:00002da4       _af_dummy_writing_system_class 1012fda4     freetype:autofit.obj
 0002:00002dc4       _af_adlm_uniranges         1012fdc4     freetype:autofit.obj
 0002:00002dd4       _af_arab_uniranges         1012fdd4     freetype:autofit.obj
 0002:00002e0c       _af_armn_uniranges         1012fe0c     freetype:autofit.obj
 0002:00002e24       _af_avst_uniranges         1012fe24     freetype:autofit.obj
 0002:00002e34       _af_bamu_uniranges         1012fe34     freetype:autofit.obj
 0002:00002e44       _af_beng_uniranges         1012fe44     freetype:autofit.obj
 0002:00002e54       _af_buhd_uniranges         1012fe54     freetype:autofit.obj
 0002:00002e64       _af_cakm_uniranges         1012fe64     freetype:autofit.obj
 0002:00002e74       _af_cans_uniranges         1012fe74     freetype:autofit.obj
 0002:00002e8c       _af_cari_uniranges         1012fe8c     freetype:autofit.obj
 0002:00002e9c       _af_cher_uniranges         1012fe9c     freetype:autofit.obj
 0002:00002eb4       _af_copt_uniranges         1012feb4     freetype:autofit.obj
 0002:00002ec4       _af_cprt_uniranges         1012fec4     freetype:autofit.obj
 0002:00002ed4       _af_cyrl_uniranges         1012fed4     freetype:autofit.obj
 0002:00002f04       _af_deva_uniranges         1012ff04     freetype:autofit.obj
 0002:00002f3c       _af_dsrt_uniranges         1012ff3c     freetype:autofit.obj
 0002:00002f4c       _af_ethi_uniranges         1012ff4c     freetype:autofit.obj
 0002:00002f74       _af_geor_uniranges         1012ff74     freetype:autofit.obj
 0002:00002f8c       _af_geok_uniranges         1012ff8c     freetype:autofit.obj
 0002:00002fa4       _af_glag_uniranges         1012ffa4     freetype:autofit.obj
 0002:00002fbc       _af_goth_uniranges         1012ffbc     freetype:autofit.obj
 0002:00002fcc       _af_grek_uniranges         1012ffcc     freetype:autofit.obj
 0002:00002fe4       _af_gujr_uniranges         1012ffe4     freetype:autofit.obj
 0002:00002ff4       _af_guru_uniranges         1012fff4     freetype:autofit.obj
 0002:00003004       _af_hebr_uniranges         10130004     freetype:autofit.obj
 0002:0000301c       _af_kali_uniranges         1013001c     freetype:autofit.obj
 0002:0000302c       _af_khmr_uniranges         1013002c     freetype:autofit.obj
 0002:0000303c       _af_khms_uniranges         1013003c     freetype:autofit.obj
 0002:0000304c       _af_knda_uniranges         1013004c     freetype:autofit.obj
 0002:0000305c       _af_lao_uniranges          1013005c     freetype:autofit.obj
 0002:00003070       _af_latn_uniranges         10130070     freetype:autofit.obj
 0002:00003178       _af_latb_uniranges         10130178     freetype:autofit.obj
 0002:00003198       _af_latp_uniranges         10130198     freetype:autofit.obj
 0002:00003208       _af_lisu_uniranges         10130208     freetype:autofit.obj
 0002:00003218       _af_mlym_uniranges         10130218     freetype:autofit.obj
 0002:00003228       _af_mong_uniranges         10130228     freetype:autofit.obj
 0002:00003240       _af_mymr_uniranges         10130240     freetype:autofit.obj
 0002:00003260       _af_nkoo_uniranges         10130260     freetype:autofit.obj
 0002:00003270       _af_none_uniranges         10130270     freetype:autofit.obj
 0002:00003278       _af_olck_uniranges         10130278     freetype:autofit.obj
 0002:00003288       _af_orkh_uniranges         10130288     freetype:autofit.obj
 0002:00003298       _af_osge_uniranges         10130298     freetype:autofit.obj
 0002:000032a8       _af_osma_uniranges         101302a8     freetype:autofit.obj
 0002:000032b8       _af_rohg_uniranges         101302b8     freetype:autofit.obj
 0002:000032c8       _af_saur_uniranges         101302c8     freetype:autofit.obj
 0002:000032d8       _af_shaw_uniranges         101302d8     freetype:autofit.obj
 0002:000032e8       _af_sinh_uniranges         101302e8     freetype:autofit.obj
 0002:000032f8       _af_sund_uniranges         101302f8     freetype:autofit.obj
 0002:00003310       _af_taml_uniranges         10130310     freetype:autofit.obj
 0002:00003320       _af_tavt_uniranges         10130320     freetype:autofit.obj
 0002:00003330       _af_telu_uniranges         10130330     freetype:autofit.obj
 0002:00003340       _af_tfng_uniranges         10130340     freetype:autofit.obj
 0002:00003350       _af_thai_uniranges         10130350     freetype:autofit.obj
 0002:00003360       _af_vaii_uniranges         10130360     freetype:autofit.obj
 0002:00003370       _af_limb_uniranges         10130370     freetype:autofit.obj
 0002:00003380       _af_orya_uniranges         10130380     freetype:autofit.obj
 0002:00003390       _af_sylo_uniranges         10130390     freetype:autofit.obj
 0002:000033a0       _af_tibt_uniranges         101303a0     freetype:autofit.obj
 0002:000033b0       _af_hani_uniranges         101303b0     freetype:autofit.obj
 0002:000034c0       _af_adlm_nonbase_uniranges 101304c0     freetype:autofit.obj
 0002:000034d0       _af_arab_nonbase_uniranges 101304d0     freetype:autofit.obj
 0002:00003570       _af_armn_nonbase_uniranges 10130570     freetype:autofit.obj
 0002:00003580       _af_avst_nonbase_uniranges 10130580     freetype:autofit.obj
 0002:00003590       _af_bamu_nonbase_uniranges 10130590     freetype:autofit.obj
 0002:000035a0       _af_beng_nonbase_uniranges 101305a0     freetype:autofit.obj
 0002:000035d8       _af_buhd_nonbase_uniranges 101305d8     freetype:autofit.obj
 0002:000035e8       _af_cakm_nonbase_uniranges 101305e8     freetype:autofit.obj
 0002:00003608       _af_cans_nonbase_uniranges 10130608     freetype:autofit.obj
 0002:00003610       _af_cari_nonbase_uniranges 10130610     freetype:autofit.obj
 0002:00003618       _af_cher_nonbase_uniranges 10130618     freetype:autofit.obj
 0002:00003620       _af_copt_nonbase_uniranges 10130620     freetype:autofit.obj
 0002:00003630       _af_cprt_nonbase_uniranges 10130630     freetype:autofit.obj
 0002:00003638       _af_cyrl_nonbase_uniranges 10130638     freetype:autofit.obj
 0002:00003660       _af_deva_nonbase_uniranges 10130660     freetype:autofit.obj
 0002:000036a8       _af_dsrt_nonbase_uniranges 101306a8     freetype:autofit.obj
 0002:000036b0       _af_ethi_nonbase_uniranges 101306b0     freetype:autofit.obj
 0002:000036c0       _af_geor_nonbase_uniranges 101306c0     freetype:autofit.obj
 0002:000036c8       _af_geok_nonbase_uniranges 101306c8     freetype:autofit.obj
 0002:000036d0       _af_glag_nonbase_uniranges 101306d0     freetype:autofit.obj
 0002:000036e0       _af_goth_nonbase_uniranges 101306e0     freetype:autofit.obj
 0002:000036e8       _af_grek_nonbase_uniranges 101306e8     freetype:autofit.obj
 0002:00003728       _af_gujr_nonbase_uniranges 10130728     freetype:autofit.obj
 0002:00003760       _af_guru_nonbase_uniranges 10130760     freetype:autofit.obj
 0002:00003790       _af_hebr_nonbase_uniranges 10130790     freetype:autofit.obj
 0002:000037c0       _af_kali_nonbase_uniranges 101307c0     freetype:autofit.obj
 0002:000037d0       _af_khmr_nonbase_uniranges 101307d0     freetype:autofit.obj
 0002:000037f8       _af_khms_nonbase_uniranges 101307f8     freetype:autofit.obj
 0002:00003800       _af_knda_nonbase_uniranges 10130800     freetype:autofit.obj
 0002:00003838       _af_lao_nonbase_uniranges  10130838     freetype:autofit.obj
 0002:00003858       _af_latn_nonbase_uniranges 10130858     freetype:autofit.obj
 0002:000038e0       _af_latb_nonbase_uniranges 101308e0     freetype:autofit.obj
 0002:000038e8       _af_latp_nonbase_uniranges 101308e8     freetype:autofit.obj
 0002:000038f0       _af_lisu_nonbase_uniranges 101308f0     freetype:autofit.obj
 0002:000038f8       _af_mlym_nonbase_uniranges 101308f8     freetype:autofit.obj
 0002:00003920       _af_mong_nonbase_uniranges 10130920     freetype:autofit.obj
 0002:00003938       _af_mymr_nonbase_uniranges 10130938     freetype:autofit.obj
 0002:000039a0       _af_nkoo_nonbase_uniranges 101309a0     freetype:autofit.obj
 0002:000039b8       _af_none_nonbase_uniranges 101309b8     freetype:autofit.obj
 0002:000039c0       _af_olck_nonbase_uniranges 101309c0     freetype:autofit.obj
 0002:000039c8       _af_orkh_nonbase_uniranges 101309c8     freetype:autofit.obj
 0002:000039d0       _af_osge_nonbase_uniranges 101309d0     freetype:autofit.obj
 0002:000039d8       _af_osma_nonbase_uniranges 101309d8     freetype:autofit.obj
 0002:000039e0       _af_rohg_nonbase_uniranges 101309e0     freetype:autofit.obj
 0002:000039e8       _af_saur_nonbase_uniranges 101309e8     freetype:autofit.obj
 0002:00003a00       _af_shaw_nonbase_uniranges 10130a00     freetype:autofit.obj
 0002:00003a08       _af_sinh_nonbase_uniranges 10130a08     freetype:autofit.obj
 0002:00003a20       _af_sund_nonbase_uniranges 10130a20     freetype:autofit.obj
 0002:00003a38       _af_taml_nonbase_uniranges 10130a38     freetype:autofit.obj
 0002:00003a58       _af_tavt_nonbase_uniranges 10130a58     freetype:autofit.obj
 0002:00003a88       _af_telu_nonbase_uniranges 10130a88     freetype:autofit.obj
 0002:00003ab8       _af_tfng_nonbase_uniranges 10130ab8     freetype:autofit.obj
 0002:00003ac0       _af_thai_nonbase_uniranges 10130ac0     freetype:autofit.obj
 0002:00003ae0       _af_vaii_nonbase_uniranges 10130ae0     freetype:autofit.obj
 0002:00003ae8       _af_limb_nonbase_uniranges 10130ae8     freetype:autofit.obj
 0002:00003b08       _af_orya_nonbase_uniranges 10130b08     freetype:autofit.obj
 0002:00003b40       _af_sylo_nonbase_uniranges 10130b40     freetype:autofit.obj
 0002:00003b68       _af_tibt_nonbase_uniranges 10130b68     freetype:autofit.obj
 0002:00003bb8       _af_hani_nonbase_uniranges 10130bb8     freetype:autofit.obj
 0002:00003bd0       _af_indic_writing_system_class 10130bd0     freetype:autofit.obj
 0002:00003c08       _af_autofitter_interface   10130c08     freetype:autofit.obj
 0002:00003d18       _af_blue_strings           10130d18     freetype:autofit.obj
 0002:000051e8       _af_blue_stringsets        101321e8     freetype:autofit.obj
 0002:000059f0       ??_C@_0BE@MOFLNEOP@0?51?52?53?54?55?56?57?58?59@ 101329f0     freetype:autofit.obj
 0002:00005a04       ??_C@_09JDCNEMGL@?p?$JO?$KE?$IM?5?p?$JO?$KE?$KO@ 10132a04     freetype:autofit.obj
 0002:00005a10       ??_C@_08NGKNFCCA@?Y?$IE?5?X?$KN?5?Y?$IA@ 10132a10     freetype:autofit.obj
 0002:00005a1c       ??_C@_05EBMEKBIG@?U?$LN?5?U?$IN@ 10132a1c     freetype:autofit.obj
 0002:00005a24       ??_C@_04JHGFHPIP@?p?$JA?$KM?$JK@ 10132a24     freetype:autofit.obj
 0002:00005a2c       ??_C@_07BADEIFOL@?j?$JL?$IB?5?j?$JL?$KP@ 10132a2c     freetype:autofit.obj
 0002:00005a34       ??_C@_07MLCFGLFO@?$OA?$KH?$KG?5?$OA?$KH?$KK@ 10132a34     freetype:autofit.obj
 0002:00005a3c       ??_C@_07MJBNFAPA@?a?$JN?$IL?5?a?$JN?$IP@ 10132a3c     freetype:autofit.obj
 0002:00005a44       ??_C@_0P@LMDGGGAE@?p?$JB?$IE?$KE?5?p?$JB?$IE?$IJ?5?p?$JB?$IE?$JL@ 10132a44     freetype:autofit.obj
 0002:00005a54       ??_C@_07COJDMBCC@?a?$JB?$IM?5?a?$JD?$JK@ 10132a54     freetype:autofit.obj
 0002:00005a5c       ??_C@_09LEACCEAE@?p?$JA?$IK?$KL?5?p?$JA?$IL?$IJ@ 10132a5c     freetype:autofit.obj
 0002:00005a68       ??_C@_0M@IIEFPKGE@?a?$IO?$KE?5?a?$IP?$IF?5?j?$KO?$JF@ 10132a68     freetype:autofit.obj
 0002:00005a74       ??_C@_07EGBKDBCM@?b?$LC?$JO?5?b?$LC?$JP@ 10132a74     freetype:autofit.obj
 0002:00005a7c       ??_C@_09BIEFHNHC@?p?$JA?$KA?$IF?5?p?$JA?$KA?$KD@ 10132a7c     freetype:autofit.obj
 0002:00005a88       ??_C@_05DBINMJJM@?P?$LO?5?P?$JO@ 10132a88     freetype:autofit.obj
 0002:00005a90       ??_C@_0M@ODJHCGEP@?$OA?$KE?$KA?5?$OA?$KE?$LF?5?$OA?$KE?$JP@ 10132a90     freetype:autofit.obj
 0002:00005a9c       ??_C@_09JIAMNMOE@?p?$JA?$JA?$IE?5?p?$JA?$JA?$KM@ 10132a9c     freetype:autofit.obj
 0002:00005aa8       ??_C@_03CMFJHIMF@?a?$IL?$JA@ 10132aa8     freetype:autofit.obj
 0002:00005aac       ??_C@_0BA@HEGJLNGN@?a?$ID?$JI?5?a?$ID?$JE?5?a?$ID?$JA?5?a?$LC?$LP@ 10132aac     freetype:autofit.obj
 0002:00005abc       ??_C@_0M@CHIIFMEI@?a?$IC?$LG?5?a?$IC?$LB?5?b?$LE?$JJ@ 10132abc     freetype:autofit.obj
 0002:00005ac8       ??_C@_07JCJJEEE@?b?$LA?$JF?5?b?$LB?$IF@ 10132ac8     freetype:autofit.obj
 0002:00005ad0       ??_C@_0P@OLAOOJHK@?p?$JA?$IM?$LE?5?p?$JA?$IM?$LO?5?p?$JA?$IN?$ID@ 10132ad0     freetype:autofit.obj
 0002:00005ae0       ??_C@_05DKJCDMPM@?N?$LP?5?N?$JP@ 10132ae0     freetype:autofit.obj
 0002:00005ae8       ??_C@_07CMCIOKJD@?$OA?$KK?$JP?5?$OA?$KL?$KG@ 10132ae8     freetype:autofit.obj
 0002:00005af0       ??_C@_0M@HILMFBKG@?$OA?$KI?$KA?5?$OA?$KI?$LA?5?$OA?$KJ?$KG@ 10132af0     freetype:autofit.obj
 0002:00005afc       ??_C@_02EMJHPBAP@?W?$JN@   10132afc     freetype:autofit.obj
 0002:00005b00       ??_C@_07EPGAKOL@?j?$KE?$IN?5?j?$KE?$IA@ 10132b00     freetype:autofit.obj
 0002:00005b08       ??_C@_03OIDAEFJK@?a?$JP?$KA@ 10132b08     freetype:autofit.obj
 0002:00005b0c       ??_C@_07KCDGDMBN@?a?$KH?$KB?5?a?$KH?$KK@ 10132b0c     freetype:autofit.obj
 0002:00005b14       ??_C@_07BEADBFJO@?$OA?$LD?$KG?5?$OA?$LC?$KM@ 10132b14     freetype:autofit.obj
 0002:00005b1c       ??_C@_03LAIOPKDA@?$OA?$LL?$JA@ 10132b1c     freetype:autofit.obj
 0002:00005b20       ??_C@_05FCCCPEKP@o?5O?50@  10132b20     freetype:autofit.obj
 0002:00005b28       ??_C@_07HAIKLPAL@?b?$IC?$JC?5?b?$IC?$IA@ 10132b28     freetype:autofit.obj
 0002:00005b30       ??_C@_0M@HBKEJKFL@?a?$LF?$JC?5?a?$LE?$LM?5?b?$IB?$LA@ 10132b30     freetype:autofit.obj
 0002:00005b3c       ??_C@_03FHMEHKGN@?j?$JD?$LD@ 10132b3c     freetype:autofit.obj
 0002:00005b40       ??_C@_07PMBMNIKD@?$OA?$LE?$KA?5?$OA?$LE?$LB@ 10132b40     freetype:autofit.obj
 0002:00005b48       ??_C@_07EFJBGIDK@?a?$KB?$IC?5?a?$KA?$KK@ 10132b48     freetype:autofit.obj
 0002:00005b50       ??_C@_0M@JDJALDKB@?a?$IA?$JN?5?a?$IA?$IE?5?a?$IA?$IC@ 10132b50     freetype:autofit.obj
 0002:00005b5c       ??_C@_05HGAHDEFN@?$NP?$IL?5?$NP?$IA@ 10132b5c     freetype:autofit.obj
 0002:00005b64       ??_C@_03OGFBMBEI@?a?$LB?$JL@ 10132b64     freetype:autofit.obj
 0002:00005b68       ??_C@_04DHPHFLNG@?p?$JA?$LA?$JH@ 10132b68     freetype:autofit.obj
 0002:00005b70       ??_C@_09CBEPPHOC@?p?$JA?$JD?$IC?5?p?$JA?$JD?$KK@ 10132b70     freetype:autofit.obj
 0002:00005b7c       ??_C@_09OCIHFBNC@?p?$JA?$JC?$IG?5?p?$JA?$JC?$KA@ 10132b7c     freetype:autofit.obj
 0002:00005b88       ??_C@_04OKDLEBGP@?p?$JA?$LE?$LA@ 10132b88     freetype:autofit.obj
 0002:00005b90       ??_C@_07CLHNDJJO@?j?$KC?$JN?5?j?$KD?$JA@ 10132b90     freetype:autofit.obj
 0002:00005b98       ??_C@_04LANBAAGA@?p?$JA?$JB?$LE@ 10132b98     freetype:autofit.obj
 0002:00005ba0       ??_C@_03CIFBMJFH@?$OA?$LG?$KH@ 10132ba0     freetype:autofit.obj
 0002:00005ba4       ??_C@_03IHFLNIGM@?a?$KO?$LA@ 10132ba4     freetype:autofit.obj
 0002:00005ba8       ??_C@_03CCLNGAOJ@?$OA?$KP?$KG@ 10132ba8     freetype:autofit.obj
 0002:00005bac       ??_C@_07NKKHBBJL@?j?$KK?$JC?5?j?$KK?$KL@ 10132bac     freetype:autofit.obj
 0002:00005bb4       ??_C@_07GCCOGDCF@?$OA?$LB?$KG?5?$OA?$LB?$KH@ 10132bb4     freetype:autofit.obj
 0002:00005bbc       ??_C@_03HEHFNKLF@?b?$LF?$JE@ 10132bbc     freetype:autofit.obj
 0002:00005bc0       ??_C@_0M@PFDFPHNJ@?$OA?$LI?$LC?5?$OA?$LJ?$IF?5?$OA?$LJ?$JA@ 10132bc0     freetype:autofit.obj
 0002:00005bcc       ??_C@_0M@BIKJPOHA@?j?$JI?$JD?5?j?$JG?$JM?5?j?$JG?$LE@ 10132bcc     freetype:autofit.obj
 0002:00005bd8       ??_C@_07PNKDJIHG@?g?$JE?$LA?5?e?$JL?$JH@ 10132bd8     freetype:autofit.obj
 0002:00005be0       ??_C@_0BA@OKOILHEH@fallback?9script@ 10132be0     freetype:autofit.obj
 0002:00005bf0       ??_C@_0P@PHBNIPOP@default?9script@ 10132bf0     freetype:autofit.obj
 0002:00005c00       ??_C@_0BC@OOHNGIJD@increase?9x?9height@ 10132c00     freetype:autofit.obj
 0002:00005c14       ??_C@_07IAGKBAII@warping@  10132c14     freetype:autofit.obj
 0002:00005c1c       ??_C@_0BE@CELKBFDM@glyph?9to?9script?9map@ 10132c1c     freetype:autofit.obj
 0002:00005c30       ??_C@_0L@MNEBCNMP@autofitter@ 10132c30     freetype:autofit.obj
 0002:00005c40       __xmm@00000000000000000001000000010000 10132c40     freetype:autofit.obj
 0002:00006110       _tt_driver_class           10133110     freetype:truetype.obj
 0002:00006170       _tt_default_graphics_state 10133170     freetype:truetype.obj
 0002:000064b8       ??_C@_07JBKHDJHE@?4notdef@ 101334b8     freetype:truetype.obj
 0002:000064c0       ??_C@_0BE@OJJAFABD@interpreter?9version@ 101334c0     freetype:truetype.obj
 0002:000064d4       ??_C@_08KJILHNAM@TrueType@ 101334d4     freetype:truetype.obj
 0002:000064e0       ??_C@_0O@DHADKGAK@multi?9masters@ 101334e0     freetype:truetype.obj
 0002:000064f0       ??_C@_0BD@EFEGEJAN@metrics?9variations@ 101334f0     freetype:truetype.obj
 0002:00006504       ??_C@_07CDLHCBDE@tt?9glyf@ 10133504     freetype:truetype.obj
 0002:0000650c       ??_C@_04JAPIGAPK@sfnt@     1013350c     freetype:truetype.obj
 0002:00006514       ??_C@_06ODJMJFLN@Weight@   10133514     freetype:truetype.obj
 0002:0000651c       ??_C@_05IBAMDCFI@Width@    1013351c     freetype:truetype.obj
 0002:00006524       ??_C@_0M@EDHPABCB@OpticalSize@ 10133524     freetype:truetype.obj
 0002:00006530       ??_C@_05BCGFHEPH@Slant@    10133530     freetype:truetype.obj
 0002:00006538       _t1_driver_class           10133538     freetype:type1.obj
 0002:00006cd4       ??_C@_0BA@EAOIOGJA@postscript?9info@ 10133cd4     freetype:type1.obj
 0002:00006ce4       ??_C@_0BB@MLEHKAJM@StandardEncoding@ 10133ce4     freetype:type1.obj
 0002:00006cf8       ??_C@_0P@LHOFAKJ@ExpertEncoding@ 10133cf8     freetype:type1.obj
 0002:00006d08       ??_C@_0BC@OHHLKLPP@ISOLatin1Encoding@ 10133d08     freetype:type1.obj
 0002:00006d1c       ??_C@_03BHPKJDPK@dup@      10133d1c     freetype:type1.obj
 0002:00006d20       ??_C@_03KMONJGDG@put@      10133d20     freetype:type1.obj
 0002:00006d24       ??_C@_07CPCPJPKL@version@  10133d24     freetype:type1.obj
 0002:00006d2c       ??_C@_06JHGCIHDH@Notice@   10133d2c     freetype:type1.obj
 0002:00006d34       ??_C@_08FPDCFGEH@FullName@ 10133d34     freetype:type1.obj
 0002:00006d40       ??_C@_0L@KKMPOENF@FamilyName@ 10133d40     freetype:type1.obj
 0002:00006d4c       ??_C@_0M@ILCDBHGP@ItalicAngle@ 10133d4c     freetype:type1.obj
 0002:00006d58       ??_C@_0N@OPLNPOL@isFixedPitch@ 10133d58     freetype:type1.obj
 0002:00006d68       ??_C@_0BC@CCIMILPE@UnderlinePosition@ 10133d68     freetype:type1.obj
 0002:00006d7c       ??_C@_0BD@KBICJDLM@UnderlineThickness@ 10133d7c     freetype:type1.obj
 0002:00006d90       ??_C@_06FIINGLDE@FSType@   10133d90     freetype:type1.obj
 0002:00006d98       ??_C@_08OMJGNOHD@UniqueID@ 10133d98     freetype:type1.obj
 0002:00006da4       ??_C@_05CIIKKFON@lenIV@    10133da4     freetype:type1.obj
 0002:00006dac       ??_C@_0O@PJDGHDCK@LanguageGroup@ 10133dac     freetype:type1.obj
 0002:00006dbc       ??_C@_08NLHBPEGP@password@ 10133dbc     freetype:type1.obj
 0002:00006dc8       ??_C@_09IPAGIEBG@BlueScale@ 10133dc8     freetype:type1.obj
 0002:00006dd4       ??_C@_09GDCMDLCO@BlueShift@ 10133dd4     freetype:type1.obj
 0002:00006de0       ??_C@_08IPFLJFPM@BlueFuzz@ 10133de0     freetype:type1.obj
 0002:00006dec       ??_C@_0L@DKDIMLOI@BlueValues@ 10133dec     freetype:type1.obj
 0002:00006df8       ??_C@_0L@CCJAIIMC@OtherBlues@ 10133df8     freetype:type1.obj
 0002:00006e04       ??_C@_0M@OIPOLIDA@FamilyBlues@ 10133e04     freetype:type1.obj
 0002:00006e10       ??_C@_0BB@FMLCJJDP@FamilyOtherBlues@ 10133e10     freetype:type1.obj
 0002:00006e24       ??_C@_05PHECBFLF@StdHW@    10133e24     freetype:type1.obj
 0002:00006e2c       ??_C@_05OBPKJLMP@StdVW@    10133e2c     freetype:type1.obj
 0002:00006e34       ??_C@_0L@NKGPCONN@MinFeature@ 10133e34     freetype:type1.obj
 0002:00006e40       ??_C@_09NCKADFKP@StemSnapH@ 10133e40     freetype:type1.obj
 0002:00006e4c       ??_C@_09GOBAKHA@StemSnapV@ 10133e4c     freetype:type1.obj
 0002:00006e58       ??_C@_0BA@PKGIFANC@ExpansionFactor@ 10133e58     freetype:type1.obj
 0002:00006e68       ??_C@_09BDDIAPM@ForceBold@ 10133e68     freetype:type1.obj
 0002:00006e74       ??_C@_08MKFDOKHL@FontName@ 10133e74     freetype:type1.obj
 0002:00006e80       ??_C@_09PNDIDGHG@PaintType@ 10133e80     freetype:type1.obj
 0002:00006e8c       ??_C@_08GBFACKAL@FontType@ 10133e8c     freetype:type1.obj
 0002:00006e98       ??_C@_0M@GLGMDIGG@StrokeWidth@ 10133e98     freetype:type1.obj
 0002:00006ea4       ??_C@_08EBMMLPNI@FontBBox@ 10133ea4     freetype:type1.obj
 0002:00006eb0       ??_C@_03DOACNACD@NDV@      10133eb0     freetype:type1.obj
 0002:00006eb4       ??_C@_03MMGIAIPO@CDV@      10133eb4     freetype:type1.obj
 0002:00006eb8       ??_C@_0N@PGGOPDKP@DesignVector@ 10133eb8     freetype:type1.obj
 0002:00006ec8       ??_C@_0L@LNCCOCBB@FontMatrix@ 10133ec8     freetype:type1.obj
 0002:00006ed4       ??_C@_08EJAHIGCJ@Encoding@ 10133ed4     freetype:type1.obj
 0002:00006ee0       ??_C@_05DHFNOCDJ@Subrs@    10133ee0     freetype:type1.obj
 0002:00006ee8       ??_C@_0M@EKIFGBLL@CharStrings@ 10133ee8     freetype:type1.obj
 0002:00006ef4       ??_C@_07CFINJGKH@Private@  10133ef4     freetype:type1.obj
 0002:00006efc       ??_C@_0BF@BEKHBPMN@BlendDesignPositions@ 10133efc     freetype:type1.obj
 0002:00006f14       ??_C@_0P@FPDIEJKK@BlendDesignMap@ 10133f14     freetype:type1.obj
 0002:00006f24       ??_C@_0P@LEAACMFJ@BlendAxisTypes@ 10133f24     freetype:type1.obj
 0002:00006f34       ??_C@_0N@JPPBHHHF@WeightVector@ 10133f34     freetype:type1.obj
 0002:00006f44       ??_C@_0P@KEOGGALI@BuildCharArray@ 10133f44     freetype:type1.obj
 0002:00006f54       ??_C@_05OJJBIBFE@eexec@    10133f54     freetype:type1.obj
 0002:00006f5c       ??_C@_09BJJLCLMA@closefile@ 10133f5c     freetype:type1.obj
 0002:00006f68       ??_C@_0O@CJLBGMNG@FontDirectory@ 10133f68     freetype:type1.obj
 0002:00006f78       ??_C@_08MNGCAOLP@pshinter@ 10133f78     freetype:type1.obj
 0002:00006f84       ??_C@_0BB@JIMLNENF@postscript?9cmaps@ 10133f84     freetype:type1.obj
 0002:00006f98       ??_C@_05MNCLAAKB@psaux@    10133f98     freetype:type1.obj
 0002:00006fa0       ??_C@_07FFHPBFOK@Regular@  10133fa0     freetype:type1.obj
 0002:00006fa8       ??_C@_04DIPHHIHJ@Bold@     10133fa8     freetype:type1.obj
 0002:00006fb0       ??_C@_05BPGNDIAE@Black@    10133fb0     freetype:type1.obj
 0002:00006fb8       ??_C@_0P@EMKCEFJO@?$CF?$CBPS?9AdobeFont@ 10133fb8     freetype:type1.obj
 0002:00006fc8       ??_C@_0L@LLIKMEDC@?$CF?$CBFontType@ 10133fc8     freetype:type1.obj
 0002:00006fd8       _cff_cmap_encoding_class_rec 10133fd8     freetype:cff.obj
 0002:00007000       _cff_cmap_unicode_class_rec 10134000     freetype:cff.obj
 0002:00007028       _cff_driver_class          10134028     freetype:cff.obj
 0002:00008220       ??_C@_07IAJFBLNJ@?1FSType@ 10135220     freetype:cff.obj
 0002:00008228       ??_C@_03BHEEIFFN@def@      10135228     freetype:cff.obj
 0002:0000822c       ??_C@_03IFCOMOMB@CFF@      1013522c     freetype:cff.obj
 0002:00008230       ??_C@_03LMEEOLHO@CID@      10135230     freetype:cff.obj
 0002:00008234       ??_C@_08EOMLOCJG@cff?9load@ 10135234     freetype:cff.obj
 0002:000089b8       _t1cid_driver_class        101359b8     freetype:type1cid.obj
 0002:00008a70       ??_C@_0M@CKCGNNAK@CIDFontName@ 10135a70     freetype:type1cid.obj
 0002:00008a7c       ??_C@_0P@FDOGBFAP@CIDFontVersion@ 10135a7c     freetype:type1cid.obj
 0002:00008a8c       ??_C@_0M@IBCFBNHK@CIDFontType@ 10135a8c     freetype:type1cid.obj
 0002:00008a98       ??_C@_08EPBENDNC@Registry@ 10135a98     freetype:type1cid.obj
 0002:00008aa4       ??_C@_08HMKBFHBJ@Ordering@ 10135aa4     freetype:type1cid.obj
 0002:00008ab0       ??_C@_0L@EJNILPMC@Supplement@ 10135ab0     freetype:type1cid.obj
 0002:00008abc       ??_C@_07CNNFHHEA@UIDBase@  10135abc     freetype:type1cid.obj
 0002:00008ac4       ??_C@_04CGDDEPDG@XUID@     10135ac4     freetype:type1cid.obj
 0002:00008acc       ??_C@_0N@LBMCPKAC@CIDMapOffset@ 10135acc     freetype:type1cid.obj
 0002:00008adc       ??_C@_07NNGKIHHK@FDBytes@  10135adc     freetype:type1cid.obj
 0002:00008ae4       ??_C@_07BBMAIHOE@GDBytes@  10135ae4     freetype:type1cid.obj
 0002:00008aec       ??_C@_08LPCKMOBH@CIDCount@ 10135aec     freetype:type1cid.obj
 0002:00008af8       ??_C@_0O@DKIHOHFK@SubrMapOffset@ 10135af8     freetype:type1cid.obj
 0002:00008b08       ??_C@_07OJDBLIDF@SDBytes@  10135b08     freetype:type1cid.obj
 0002:00008b10       ??_C@_09NKAONILE@SubrCount@ 10135b10     freetype:type1cid.obj
 0002:00008b1c       ??_C@_0BC@HBJENNOG@lenBuildCharArray@ 10135b1c     freetype:type1cid.obj
 0002:00008b30       ??_C@_0BD@BGHMBBEO@ForceBoldThreshold@ 10135b30     freetype:type1cid.obj
 0002:00008b44       ??_C@_07PEKDNLEP@FDArray@  10135b44     freetype:type1cid.obj
 0002:00008b4c       ??_C@_0BC@JBBEDJNJ@?$CFADOBeginFontDict@ 10135b4c     freetype:type1cid.obj
 0002:00008b60       ??_C@_0CA@JGHPJJJF@?$CF?$CBPS?9Adobe?93?40?5Resource?9CIDFont@ 10135b60     freetype:type1cid.obj
 0002:00008b80       ??_C@_09BFOLOCGO@StartData@ 10135b80     freetype:type1cid.obj
 0002:00008b8c       ??_C@_06EMLBPOPP@?1sfnts@  10135b8c     freetype:type1cid.obj
 0002:00008b94       ??_C@_05NPBNGLLN@?$CIHex?$CJ@ 10135b94     freetype:type1cid.obj
 0002:00008b9c       ??_C@_0L@DDPIBKML@CID?5Type?51@ 10135b9c     freetype:type1cid.obj
 0002:00008ba8       ??_C@_05CNMLIGFM@t1cid@    10135ba8     freetype:type1cid.obj
 0002:00008c74       _pfr_cmap_class_rec        10135c74     freetype:pfr.obj
 0002:00008ca0       _pfr_driver_class          10135ca0     freetype:pfr.obj
 0002:00008d00       ??_C@_0M@BAGPBJNL@pfr?9metrics@ 10135d00     freetype:pfr.obj
 0002:00008d0c       ??_C@_03OJCMOBOF@PFR@      10135d0c     freetype:pfr.obj
 0002:00008d10       ??_C@_03OENHCMJJ@pfr@      10135d10     freetype:pfr.obj
 0002:00009030       _t42_driver_class          10136030     freetype:type42.obj
 0002:00009090       ??_C@_07GJBALKN@Type?542@  10136090     freetype:type42.obj
 0002:00009098       ??_C@_05FJOKMJFH@sfnts@    10136098     freetype:type42.obj
 0002:000090a0       ??_C@_0BC@IJJLOJBO@?$CF?$CBPS?9TrueTypeFont@ 101360a0     freetype:type42.obj
 0002:000090b4       ??_C@_05MDIJLHEA@known@    101360b4     freetype:type42.obj
 0002:00009108       _winfnt_driver_class       10136108     freetype:winfnt.obj
 0002:000092c8       ??_C@_0M@DFCIIFPB@Bold?5Italic@ 101362c8     freetype:winfnt.obj
 0002:000092d4       ??_C@_06PPMHIBHB@Italic@   101362d4     freetype:winfnt.obj
 0002:000092dc       ??_C@_0M@FPCOPFGH@Windows?5FNT@ 101362dc     freetype:winfnt.obj
 0002:000092e8       ??_C@_08NAMFKPDH@winfonts@ 101362e8     freetype:winfnt.obj
 0002:000092f4       ??_C@_05FPAEEJJG@10646@    101362f4     freetype:pcf.obj
 0002:000092fc       ??_C@_04LBDHIBCK@8859@     101362fc     freetype:pcf.obj
 0002:00009304       ??_C@_08EPMKAEBA@646?41991@ 10136304     freetype:pcf.obj
 0002:00009310       ??_C@_03LLHODHFI@IRV@      10136310     freetype:pcf.obj
 0002:00009498       _pcf_driver_class          10136498     freetype:pcf.obj
 0002:00009520       ??_C@_03DDONLALG@bdf@      10136520     freetype:pcf.obj
 0002:00009524       ??_C@_03MBEJPEFL@PCF@      10136524     freetype:pcf.obj
 0002:00009528       ??_C@_03MMLCDJCH@pcf@      10136528     freetype:pcf.obj
 0002:0000952c       ??_C@_05NOFPJGIP@SLANT@    1013652c     freetype:pcf.obj
 0002:00009534       ??_C@_07EGOIFKG@Oblique@   10136534     freetype:pcf.obj
 0002:0000953c       ??_C@_0M@FCJHKPGH@WEIGHT_NAME@ 1013653c     freetype:pcf.obj
 0002:00009548       ??_C@_0O@DANCJNNA@SETWIDTH_NAME@ 10136548     freetype:pcf.obj
 0002:00009558       ??_C@_0P@BLEODLOA@ADD_STYLE_NAME@ 10136558     freetype:pcf.obj
 0002:00009568       ??_C@_0M@FBEHGJKE@FAMILY_NAME@ 10136568     freetype:pcf.obj
 0002:00009574       ??_C@_0O@KPOPAFON@AVERAGE_WIDTH@ 10136574     freetype:pcf.obj
 0002:00009584       ??_C@_0L@JCJJGPJF@POINT_SIZE@ 10136584     freetype:pcf.obj
 0002:00009590       ??_C@_0L@CNGHIHBP@PIXEL_SIZE@ 10136590     freetype:pcf.obj
 0002:0000959c       ??_C@_0N@NBDHNJFJ@RESOLUTION_X@ 1013659c     freetype:pcf.obj
 0002:000095ac       ??_C@_0N@MICMOIBI@RESOLUTION_Y@ 101365ac     freetype:pcf.obj
 0002:000095bc       ??_C@_0BB@OHIDJKBJ@CHARSET_REGISTRY@ 101365bc     freetype:pcf.obj
 0002:000095d0       ??_C@_0BB@OBJAMPOC@CHARSET_ENCODING@ 101365d0     freetype:pcf.obj
 0002:00009710       _cff_builder_funcs         10136710     freetype:psaux.obj
 0002:00009730       _ps_builder_funcs          10136730     freetype:psaux.obj
 0002:00009738       _ps_table_funcs            10136738     freetype:psaux.obj
 0002:00009748       _ps_parser_funcs           10136748     freetype:psaux.obj
 0002:0000977c       _t1_builder_funcs          1013677c     freetype:psaux.obj
 0002:0000979c       _t1_decoder_funcs          1013679c     freetype:psaux.obj
 0002:000097ac       _t1_cmap_standard_class_rec 101367ac     freetype:psaux.obj
 0002:000097d4       _t1_cmap_expert_class_rec  101367d4     freetype:psaux.obj
 0002:000097fc       _t1_cmap_custom_class_rec  101367fc     freetype:psaux.obj
 0002:00009824       _t1_cmap_unicode_class_rec 10136824     freetype:psaux.obj
 0002:0000984c       _afm_parser_funcs          1013684c     freetype:psaux.obj
 0002:00009858       _t1_cmap_classes           10136858     freetype:psaux.obj
 0002:00009868       _cff_decoder_funcs         10136868     freetype:psaux.obj
 0002:000098a0       _psaux_module_class        101368a0     freetype:psaux.obj
 0002:000099e0       ??_C@_08NBPEBJDA@Ascender@ 101369e0     freetype:psaux.obj
 0002:000099ec       ??_C@_09POOBGNPO@AxisLabel@ 101369ec     freetype:psaux.obj
 0002:000099f8       ??_C@_08KLONHBMG@AxisType@ 101369f8     freetype:psaux.obj
 0002:00009a04       ??_C@_02KJDGAJLC@CC@       10136a04     freetype:psaux.obj
 0002:00009a08       ??_C@_02EKMCNAHJ@CH@       10136a08     freetype:psaux.obj
 0002:00009a0c       ??_C@_09JOCJHGEG@CapHeight@ 10136a0c     freetype:psaux.obj
 0002:00009a18       ??_C@_09CGMEAFLF@CharWidth@ 10136a18     freetype:psaux.obj
 0002:00009a24       ??_C@_0N@LHPDLMAH@CharacterSet@ 10136a24     freetype:psaux.obj
 0002:00009a34       ??_C@_0L@EMODJLOD@Characters@ 10136a34     freetype:psaux.obj
 0002:00009a40       ??_C@_09JMDLBBJN@Descender@ 10136a40     freetype:psaux.obj
 0002:00009a4c       ??_C@_0P@JNPLONMI@EncodingScheme@ 10136a4c     freetype:psaux.obj
 0002:00009a5c       ??_C@_07DLEALFPL@EndAxis@  10136a5c     freetype:psaux.obj
 0002:00009a64       ??_C@_0P@GFNMGKCM@EndCharMetrics@ 10136a64     freetype:psaux.obj
 0002:00009a74       ??_C@_0O@JABMALCH@EndComposites@ 10136a74     freetype:psaux.obj
 0002:00009a84       ??_C@_0N@FNMEONKF@EndDirection@ 10136a84     freetype:psaux.obj
 0002:00009a94       ??_C@_0P@FGFFCKLI@EndFontMetrics@ 10136a94     freetype:psaux.obj
 0002:00009aa4       ??_C@_0M@HKHGIIOM@EndKernData@ 10136aa4     freetype:psaux.obj
 0002:00009ab0       ??_C@_0N@IJIACAAI@EndKernPairs@ 10136ab0     freetype:psaux.obj
 0002:00009ac0       ??_C@_0N@FEBBJBLC@EndTrackKern@ 10136ac0     freetype:psaux.obj
 0002:00009ad0       ??_C@_07BNJNBMEL@EscChar@  10136ad0     freetype:psaux.obj
 0002:00009ad8       ??_C@_0L@PAHDJIHN@IsBaseFont@ 10136ad8     freetype:psaux.obj
 0002:00009ae4       ??_C@_09OIFAOJEJ@IsCIDFont@ 10136ae4     freetype:psaux.obj
 0002:00009af0       ??_C@_0N@LNIFJEBO@IsFixedPitch@ 10136af0     freetype:psaux.obj
 0002:00009b00       ??_C@_08CHFNODLO@IsFixedV@ 10136b00     freetype:psaux.obj
 0002:00009b0c       ??_C@_02MGMKBJJI@KP@       10136b0c     freetype:psaux.obj
 0002:00009b10       ??_C@_03MGLCBEGC@KPH@      10136b10     freetype:psaux.obj
 0002:00009b14       ??_C@_03IMHAAGDD@KPX@      10136b14     freetype:psaux.obj
 0002:00009b18       ??_C@_03JFGLDHHC@KPY@      10136b18     freetype:psaux.obj
 0002:00009b1c       ??_C@_0O@NDBFHPJC@MappingScheme@ 10136b1c     freetype:psaux.obj
 0002:00009b2c       ??_C@_0M@PGHPLBFB@MetricsSets@ 10136b2c     freetype:psaux.obj
 0002:00009b38       ??_C@_03LMDOAABO@PCC@      10136b38     freetype:psaux.obj
 0002:00009b3c       ??_C@_09JMBADFPL@StartAxis@ 10136b3c     freetype:psaux.obj
 0002:00009b48       ??_C@_0BB@JDMDJAID@StartCharMetrics@ 10136b48     freetype:psaux.obj
 0002:00009b5c       ??_C@_0BA@DGMAPPPC@StartComposites@ 10136b5c     freetype:psaux.obj
 0002:00009b6c       ??_C@_0P@DNGHFPAA@StartDirection@ 10136b6c     freetype:psaux.obj
 0002:00009b7c       ??_C@_0BB@KAEKNABH@StartFontMetrics@ 10136b7c     freetype:psaux.obj
 0002:00009b90       ??_C@_0O@GJEKPIHD@StartKernData@ 10136b90     freetype:psaux.obj
 0002:00009ba0       ??_C@_0P@OJCDJCKN@StartKernPairs@ 10136ba0     freetype:psaux.obj
 0002:00009bb0       ??_C@_0BA@HHMIMKDE@StartKernPairs0@ 10136bb0     freetype:psaux.obj
 0002:00009bc0       ??_C@_0BA@GONDPLHF@StartKernPairs1@ 10136bc0     freetype:psaux.obj
 0002:00009bd0       ??_C@_0P@DELCCDBH@StartTrackKern@ 10136bd0     freetype:psaux.obj
 0002:00009be0       ??_C@_09DJCDMHFC@TrackKern@ 10136be0     freetype:psaux.obj
 0002:00009bec       ??_C@_02IEGOIODN@VV@       10136bec     freetype:psaux.obj
 0002:00009bf0       ??_C@_07HFOFDFIM@VVector@  10136bf0     freetype:psaux.obj
 0002:00009bf8       ??_C@_07NGFJPNPN@Version@  10136bf8     freetype:psaux.obj
 0002:00009c00       ??_C@_02LGALCICL@W0@       10136c00     freetype:psaux.obj
 0002:00009c04       ??_C@_03NOGICFDE@W0X@      10136c04     freetype:psaux.obj
 0002:00009c08       ??_C@_03MHHDBEHF@W0Y@      10136c08     freetype:psaux.obj
 0002:00009c0c       ??_C@_02KPBABJGK@W1@       10136c0c     freetype:psaux.obj
 0002:00009c10       ??_C@_03NPKKEPAD@W1X@      10136c10     freetype:psaux.obj
 0002:00009c14       ??_C@_03MGLBHOEC@W1Y@      10136c14     freetype:psaux.obj
 0002:00009c18       ??_C@_02BLCPMJIE@WX@       10136c18     freetype:psaux.obj
 0002:00009c1c       ??_C@_02CDEPIMF@WY@        10136c1c     freetype:psaux.obj
 0002:00009c20       ??_C@_07MIHJBPO@XHeight@   10136c20     freetype:psaux.obj
 0002:00009c30       __xmm@000000000000000a0000000000000008 10136c30     freetype:psaux.obj
 0002:00009c40       _psnames_module_class      10136c40     freetype:psmodule.obj
 0002:00009c68       _ft_standard_glyph_names   10136c68     freetype:psmodule.obj
 0002:0000aad8       _ft_mac_names              10137ad8     freetype:psmodule.obj
 0002:0000ace0       _ft_sid_names              10137ce0     freetype:psmodule.obj
 0002:0000aff0       _t1_standard_encoding      10137ff0     freetype:psmodule.obj
 0002:0000b1f0       _t1_expert_encoding        101381f0     freetype:psmodule.obj
 0002:0000b3f0       _ft_adobe_glyph_list       101383f0     freetype:psmodule.obj
 0002:00018f88       ??_C@_07POODEHEH@psnames@  10145f88     freetype:psmodule.obj
 0002:00018f9c       _pshinter_module_class     10145f9c     freetype:pshinter.obj
 0002:00018fc0       _ft_raster1_renderer_class 10145fc0     freetype:raster.obj
 0002:00018ffc       _ft_standard_raster        10145ffc     freetype:raster.obj
 0002:00019014       ??_C@_07EFFNHEPH@raster1@  10146014     freetype:raster.obj
 0002:00019038       _sfnt_module_class         10146038     freetype:sfnt.obj
 0002:00019114       _tt_cmap_unicode_class_rec 10146114     freetype:sfnt.obj
 0002:00019554       _tt_cmap0_class_rec        10146554     freetype:sfnt.obj
 0002:00019588       _tt_cmap2_class_rec        10146588     freetype:sfnt.obj
 0002:000195bc       _tt_cmap4_class_rec        101465bc     freetype:sfnt.obj
 0002:000195f0       _tt_cmap6_class_rec        101465f0     freetype:sfnt.obj
 0002:00019624       _tt_cmap8_class_rec        10146624     freetype:sfnt.obj
 0002:00019658       _tt_cmap10_class_rec       10146658     freetype:sfnt.obj
 0002:0001968c       _tt_cmap12_class_rec       1014668c     freetype:sfnt.obj
 0002:000196c0       _tt_cmap13_class_rec       101466c0     freetype:sfnt.obj
 0002:000196f4       _tt_cmap14_class_rec       101466f4     freetype:sfnt.obj
 0002:00019750       ??_C@_06INICNAFJ@smooth@   10146750     freetype:smooth.obj
 0002:00019758       ??_C@_0L@KCJBAIJI@smooth?9lcd@ 10146758     freetype:smooth.obj
 0002:00019764       ??_C@_0M@IHBDFEAO@smooth?9lcdv@ 10146764     freetype:smooth.obj
 0002:00019770       _ft_grays_raster           10146770     freetype:smooth.obj
 0002:000197a0       _ft_smooth_renderer_class  101467a0     freetype:smooth.obj
 0002:000197dc       _ft_smooth_lcd_renderer_class 101467dc     freetype:smooth.obj
 0002:00019818       _ft_smooth_lcdv_renderer_class 10146818     freetype:smooth.obj
 0002:00019920       _bdf_driver_class          10146920     freetype:bdf.obj
 0002:00019f10       ??_C@_05HCHEPOAH@CHARS@    10146f10     freetype:bdf.obj
 0002:00019f18       ??_C@_02EOIDJNGE@?5?$CL@   10146f18     freetype:bdf.obj
 0002:00019f1c       ??_C@_07MLEKHHFJ@ENDFONT@  10146f1c     freetype:bdf.obj
 0002:00019f24       ??_C@_07MDHLCACL@ENDCHAR@  10146f24     freetype:bdf.obj
 0002:00019f2c       ??_C@_09BPKMEANO@STARTCHAR@ 10146f2c     freetype:bdf.obj
 0002:00019f38       ??_C@_08LEFKDKKN@ENCODING@ 10146f38     freetype:bdf.obj
 0002:00019f44       ??_C@_06HDKFFNNH@SWIDTH@   10146f44     freetype:bdf.obj
 0002:00019f4c       ??_C@_06NBNMPPJH@DWIDTH@   10146f4c     freetype:bdf.obj
 0002:00019f54       ??_C@_03OONKDOKH@BBX@      10146f54     freetype:bdf.obj
 0002:00019f58       ??_C@_06PGFOEMDN@BITMAP@   10146f58     freetype:bdf.obj
 0002:00019f60       ??_C@_0O@JFDPHGFD@ENDPROPERTIES@ 10146f60     freetype:bdf.obj
 0002:00019f70       ??_C@_03OACELNE@?$CFhd@    10146f70     freetype:bdf.obj
 0002:00019f74       ??_C@_0BG@NDMEGDOA@_XFREE86_GLYPH_RANGES@ 10146f74     freetype:bdf.obj
 0002:00019f8c       ??_C@_09BHJNBHKM@STARTFONT@ 10146f8c     freetype:bdf.obj
 0002:00019f98       ??_C@_0BA@HGECMEMA@STARTPROPERTIES@ 10146f98     freetype:bdf.obj
 0002:00019fa8       ??_C@_0BA@PIDAKDPC@FONTBOUNDINGBOX@ 10146fa8     freetype:bdf.obj
 0002:00019fb8       ??_C@_04EMFHLKGI@SIZE@     10146fb8     freetype:bdf.obj
 0002:00019fc0       ??_C@_03DOBGHNMK@BDF@      10146fc0     freetype:bdf.obj
 0002:00019fc4       ??_C@_0BC@DEIBICAG@AVG_CAPITAL_WIDTH@ 10146fc4     freetype:bdf.obj
 0002:00019fd8       ??_C@_0BE@FDPIDJIH@AVG_LOWERCASE_WIDTH@ 10146fd8     freetype:bdf.obj
 0002:00019fec       ??_C@_0L@IPPBEDCK@CAP_HEIGHT@ 10146fec     freetype:bdf.obj
 0002:00019ff8       ??_C@_0BE@KNHMGHPI@CHARSET_COLLECTIONS@ 10146ff8     freetype:bdf.obj
 0002:0001a00c       ??_C@_07JEDAPFNH@COMMENT@  1014700c     freetype:bdf.obj
 0002:0001a014       ??_C@_09DJIAAPDG@COPYRIGHT@ 10147014     freetype:bdf.obj
 0002:0001a020       ??_C@_0N@LOGJBDOF@DEFAULT_CHAR@ 10147020     freetype:bdf.obj
 0002:0001a030       ??_C@_0M@LFJMPFGC@DESTINATION@ 10147030     freetype:bdf.obj
 0002:0001a03c       ??_C@_0BB@PJMJCLEI@DEVICE_FONT_NAME@ 1014703c     freetype:bdf.obj
 0002:0001a050       ??_C@_09GEIPNEKC@END_SPACE@ 10147050     freetype:bdf.obj
 0002:0001a05c       ??_C@_09DLOGKOHL@FACE_NAME@ 1014705c     freetype:bdf.obj
 0002:0001a068       ??_C@_0N@LCIIJFB@FIGURE_WIDTH@ 10147068     freetype:bdf.obj
 0002:0001a078       ??_C@_04IJMKNFPK@FONT@     10147078     freetype:bdf.obj
 0002:0001a080       ??_C@_0BC@LNICJLFI@FONTNAME_REGISTRY@ 10147080     freetype:bdf.obj
 0002:0001a094       ??_C@_0M@ECCDLGDC@FONT_ASCENT@ 10147094     freetype:bdf.obj
 0002:0001a0a0       ??_C@_0N@BAIKBLGK@FONT_DESCENT@ 101470a0     freetype:bdf.obj
 0002:0001a0b0       ??_C@_07GMNLECKJ@FOUNDRY@  101470b0     freetype:bdf.obj
 0002:0001a0b8       ??_C@_09IGHCOKHJ@FULL_NAME@ 101470b8     freetype:bdf.obj
 0002:0001a0c4       ??_C@_0N@LHJKBLMB@ITALIC_ANGLE@ 101470c4     freetype:bdf.obj
 0002:0001a0d4       ??_C@_09IDPFHPOD@MAX_SPACE@ 101470d4     freetype:bdf.obj
 0002:0001a0e0       ??_C@_09ICPJOFFH@MIN_SPACE@ 101470e0     freetype:bdf.obj
 0002:0001a0ec       ??_C@_0L@CKCFAFFG@NORM_SPACE@ 101470ec     freetype:bdf.obj
 0002:0001a0f8       ??_C@_06FMPEGAHJ@NOTICE@   101470f8     freetype:bdf.obj
 0002:0001a100       ??_C@_0L@MANNMNIK@QUAD_WIDTH@ 10147100     freetype:bdf.obj
 0002:0001a10c       ??_C@_0L@CAMLDNCF@RAW_ASCENT@ 1014710c     freetype:bdf.obj
 0002:0001a118       ??_C@_0BC@LNOEENJF@RAW_AVERAGE_WIDTH@ 10147118     freetype:bdf.obj
 0002:0001a12c       ??_C@_0BG@PEMOHOIO@RAW_AVG_CAPITAL_WIDTH@ 1014712c     freetype:bdf.obj
 0002:0001a144       ??_C@_0BI@BEKJFFLM@RAW_AVG_LOWERCASE_WIDTH@ 10147144     freetype:bdf.obj
 0002:0001a15c       ??_C@_0P@PDBKEGFB@RAW_CAP_HEIGHT@ 1014715c     freetype:bdf.obj
 0002:0001a16c       ??_C@_0M@JDDLHGCG@RAW_DESCENT@ 1014716c     freetype:bdf.obj
 0002:0001a178       ??_C@_0O@FDGFBIGM@RAW_END_SPACE@ 10147178     freetype:bdf.obj
 0002:0001a188       ??_C@_0BB@LHIJKBAI@RAW_FIGURE_WIDTH@ 10147188     freetype:bdf.obj
 0002:0001a19c       ??_C@_0O@LEBPLDCN@RAW_MAX_SPACE@ 1014719c     freetype:bdf.obj
 0002:0001a1ac       ??_C@_0O@LFBDCJJJ@RAW_MIN_SPACE@ 101471ac     freetype:bdf.obj
 0002:0001a1bc       ??_C@_0P@FGMOAACN@RAW_NORM_SPACE@ 101471bc     freetype:bdf.obj
 0002:0001a1cc       ??_C@_0P@FBIMICGE@RAW_PIXEL_SIZE@ 101471cc     freetype:bdf.obj
 0002:0001a1dc       ??_C@_0P@OOHCGKOO@RAW_POINT_SIZE@ 101471dc     freetype:bdf.obj
 0002:0001a1ec       ??_C@_0O@HNFKKCGD@RAW_PIXELSIZE@ 101471ec     freetype:bdf.obj
 0002:0001a1fc       ??_C@_0O@FDNDDOFA@RAW_POINTSIZE@ 101471fc     freetype:bdf.obj
 0002:0001a20c       ??_C@_0P@LMDGMIPB@RAW_QUAD_WIDTH@ 1014720c     freetype:bdf.obj
 0002:0001a21c       ??_C@_0BD@HHNHPPKD@RAW_SMALL_CAP_SIZE@ 1014721c     freetype:bdf.obj
 0002:0001a230       ??_C@_0BF@DLAIFMIE@RAW_STRIKEOUT_ASCENT@ 10147230     freetype:bdf.obj
 0002:0001a248       ??_C@_0BG@DCPBCGDJ@RAW_STRIKEOUT_DESCENT@ 10147248     freetype:bdf.obj
 0002:0001a260       ??_C@_0BD@FGAMCDPE@RAW_SUBSCRIPT_SIZE@ 10147260     freetype:bdf.obj
 0002:0001a274       ??_C@_0BA@ICOMKGEO@RAW_SUBSCRIPT_X@ 10147274     freetype:bdf.obj
 0002:0001a284       ??_C@_0BA@JLPHJHAP@RAW_SUBSCRIPT_Y@ 10147284     freetype:bdf.obj
 0002:0001a294       ??_C@_0BF@ILCJEECH@RAW_SUPERSCRIPT_SIZE@ 10147294     freetype:bdf.obj
 0002:0001a2ac       ??_C@_0BC@EMCLOPNI@RAW_SUPERSCRIPT_X@ 101472ac     freetype:bdf.obj
 0002:0001a2c0       ??_C@_0BC@FFDANOJJ@RAW_SUPERSCRIPT_Y@ 101472c0     freetype:bdf.obj
 0002:0001a2d4       ??_C@_0BH@LIHCGIBB@RAW_UNDERLINE_POSITION@ 101472d4     freetype:bdf.obj
 0002:0001a2ec       ??_C@_0BI@OEPMFPAK@RAW_UNDERLINE_THICKNESS@ 101472ec     freetype:bdf.obj
 0002:0001a304       ??_C@_0N@LFICGJOL@RAW_X_HEIGHT@ 10147304     freetype:bdf.obj
 0002:0001a314       ??_C@_0BC@JMGAMBDF@RELATIVE_SETWIDTH@ 10147314     freetype:bdf.obj
 0002:0001a328       ??_C@_0BA@NKHOPHOP@RELATIVE_WEIGHT@ 10147328     freetype:bdf.obj
 0002:0001a338       ??_C@_0L@JGAABLGD@RESOLUTION@ 10147338     freetype:bdf.obj
 0002:0001a344       ??_C@_0P@CJBLANOF@SMALL_CAP_SIZE@ 10147344     freetype:bdf.obj
 0002:0001a354       ??_C@_07JKNGKIOL@SPACING@  10147354     freetype:bdf.obj
 0002:0001a35c       ??_C@_0BB@MOJIHJPL@STRIKEOUT_ASCENT@ 1014735c     freetype:bdf.obj
 0002:0001a370       ??_C@_0BC@PCLONKLB@STRIKEOUT_DESCENT@ 10147370     freetype:bdf.obj
 0002:0001a384       ??_C@_0P@IMANBLC@SUBSCRIPT_SIZE@ 10147384     freetype:bdf.obj
 0002:0001a394       ??_C@_0M@EFEHOFPP@SUBSCRIPT_X@ 10147394     freetype:bdf.obj
 0002:0001a3a0       ??_C@_0M@FMFMNELO@SUBSCRIPT_Y@ 101473a0     freetype:bdf.obj
 0002:0001a3ac       ??_C@_0BB@HOLJGBFI@SUPERSCRIPT_SIZE@ 101473ac     freetype:bdf.obj
 0002:0001a3c0       ??_C@_0O@FOCAKHKA@SUPERSCRIPT_X@ 101473c0     freetype:bdf.obj
 0002:0001a3d0       ??_C@_0O@EHDLJGOB@SUPERSCRIPT_Y@ 101473d0     freetype:bdf.obj
 0002:0001a3e0       ??_C@_0BD@FLNBCMPP@UNDERLINE_POSITION@ 101473e0     freetype:bdf.obj
 0002:0001a3f4       ??_C@_0BE@KDKNDDDB@UNDERLINE_THICKNESS@ 101473f4     freetype:bdf.obj
 0002:0001a408       ??_C@_06CIAKHCPD@WEIGHT@   10147408     freetype:bdf.obj
 0002:0001a410       ??_C@_08IHHFFHAA@X_HEIGHT@ 10147410     freetype:bdf.obj
 0002:0001a41c       ??_C@_0BG@NJJHMBCE@_MULE_BASELINE_OFFSET@ 1014741c     freetype:bdf.obj
 0002:0001a434       ??_C@_0BH@EGBLCDE@_MULE_RELATIVE_COMPOSE@ 10147434     freetype:bdf.obj
 0002:0001a450       __xmm@00000008000000000000000100000001 10147450     freetype:bdf.obj
 0002:0001b7fc       ??_C@_0CI@CGMOPDPD@oversubscribed?5dynamic?5bit?5leng@ 101487fc     freetype:ftgzip.obj
 0002:0001b824       ??_C@_0CE@LOHAHEGK@incomplete?5dynamic?5bit?5lengths?5@ 10148824     freetype:ftgzip.obj
 0002:0001b848       ??_C@_0CD@GJIDGCKE@oversubscribed?5literal?1length?5t@ 10148848     freetype:ftgzip.obj
 0002:0001b86c       ??_C@_0BP@NEEEJJNA@incomplete?5literal?1length?5tree@ 1014886c     freetype:ftgzip.obj
 0002:0001b88c       ??_C@_0BN@KBLCDIAI@oversubscribed?5distance?5tree@ 1014888c     freetype:ftgzip.obj
 0002:0001b8ac       ??_C@_0BJ@CBCPDPJF@incomplete?5distance?5tree@ 101488ac     freetype:ftgzip.obj
 0002:0001b8c8       ??_C@_0CB@KPKKKLFO@empty?5distance?5tree?5with?5length@ 101488c8     freetype:ftgzip.obj
 0002:0001b8ec       ??_C@_0BM@FFFLPBBC@invalid?5literal?1length?5code@ 101488ec     freetype:ftgzip.obj
 0002:0001b908       ??_C@_0BG@LBKINIKP@invalid?5distance?5code@ 10148908     freetype:ftgzip.obj
 0002:0001b920       ??_C@_0BD@PJCBIDD@invalid?5block?5type@ 10148920     freetype:ftgzip.obj
 0002:0001b934       ??_C@_0BN@LGAADGOK@invalid?5stored?5block?5lengths@ 10148934     freetype:ftgzip.obj
 0002:0001b954       ??_C@_0CE@GMIGFPBB@too?5many?5length?5or?5distance?5sym@ 10148954     freetype:ftgzip.obj
 0002:0001b978       ??_C@_0BK@BMMPFBBH@invalid?5bit?5length?5repeat@ 10148978     freetype:ftgzip.obj
 0002:0001b994       ??_C@_05DOIEBMOI@1?41?44@  10148994     freetype:ftgzip.obj
 0002:0001b99c       ??_C@_0BL@IHKGDAEE@unknown?5compression?5method@ 1014899c     freetype:ftgzip.obj
 0002:0001b9b8       ??_C@_0BE@EMOGCLGO@invalid?5window?5size@ 101489b8     freetype:ftgzip.obj
 0002:0001b9cc       ??_C@_0BH@LIBMMIGA@incorrect?5header?5check@ 101489cc     freetype:ftgzip.obj
 0002:0001b9e4       ??_C@_0BA@MOKMMFOD@need?5dictionary@ 101489e4     freetype:ftgzip.obj
 0002:0001b9f4       ??_C@_0BF@MEIGEHBE@incorrect?5data?5check@ 101489f4     freetype:ftgzip.obj
 0002:0001ba0c       __pDestructExceptionObject 10148a0c     libvcruntime:ehhelpers.obj
 0002:0001ba14       ??_7bad_exception@std@@6B@ 10148a14     libvcruntime:frame.obj
 0002:0001ba1c       ??_C@_0O@DPKOEFFH@bad?5exception@ 10148a1c     libvcruntime:frame.obj
 0002:0001bdb8       ??_C@_08EHJDFFNH@__based?$CI@ 10148db8     libvcruntime:undname.obj
 0002:0001bdc4       ??_C@_07KOLFKCDI@__cdecl@  10148dc4     libvcruntime:undname.obj
 0002:0001bdcc       ??_C@_08GHMPAG@__pascal@   10148dcc     libvcruntime:undname.obj
 0002:0001bdd8       ??_C@_09IFJBGAPI@__stdcall@ 10148dd8     libvcruntime:undname.obj
 0002:0001bde4       ??_C@_0L@NPHFGOKO@__thiscall@ 10148de4     libvcruntime:undname.obj
 0002:0001bdf0       ??_C@_0L@JMKHOMEK@__fastcall@ 10148df0     libvcruntime:undname.obj
 0002:0001bdfc       ??_C@_0N@BCKKPABJ@__vectorcall@ 10148dfc     libvcruntime:undname.obj
 0002:0001be0c       ??_C@_09HIJEGCPM@__clrcall@ 10148e0c     libvcruntime:undname.obj
 0002:0001be18       ??_C@_06GHPCKEAG@__eabi@   10148e18     libvcruntime:undname.obj
 0002:0001be20       ??_C@_09IOPIDJLG@__swift_1@ 10148e20     libvcruntime:undname.obj
 0002:0001be2c       ??_C@_09KFNFGKHF@__swift_2@ 10148e2c     libvcruntime:undname.obj
 0002:0001be38       ??_C@_09LMMOFLDE@__swift_3@ 10148e38     libvcruntime:undname.obj
 0002:0001be44       ??_C@_07JOMMBBKO@__ptr64@  10148e44     libvcruntime:undname.obj
 0002:0001be4c       ??_C@_0L@PILCLIHE@__restrict@ 10148e4c     libvcruntime:undname.obj
 0002:0001be58       ??_C@_0M@GFIIJFMG@__unaligned@ 10148e58     libvcruntime:undname.obj
 0002:0001be64       ??_C@_09DHDLOLLB@restrict?$CI@ 10148e64     libvcruntime:undname.obj
 0002:0001be70       ??_C@_04NIHEBCM@?5new@     10148e70     libvcruntime:undname.obj
 0002:0001be78       ??_C@_07FPCDHGMM@?5delete@ 10148e78     libvcruntime:undname.obj
 0002:0001be80       ??_C@_01NEMOKFLO@?$DN@     10148e80     libvcruntime:undname.obj
 0002:0001be84       ??_C@_02GPIOPFAK@?$DO?$DO@ 10148e84     libvcruntime:undname.obj
 0002:0001be88       ??_C@_02FODMEDOG@?$DM?$DM@ 10148e88     libvcruntime:undname.obj
 0002:0001be8c       ??_C@_01DCLJPIOD@?$CB@     10148e8c     libvcruntime:undname.obj
 0002:0001be90       ??_C@_02EGOFBIJA@?$DN?$DN@ 10148e90     libvcruntime:undname.obj
 0002:0001be94       ??_C@_02FDNJECIE@?$CB?$DN@ 10148e94     libvcruntime:undname.obj
 0002:0001be98       ??_C@_08LHJFAFGD@operator@ 10148e98     libvcruntime:undname.obj
 0002:0001bea4       ??_C@_02HBOOOICD@?9?$DO@   10148ea4     libvcruntime:undname.obj
 0002:0001bea8       ??_C@_02ECNGHCIF@?$CL?$CL@ 10148ea8     libvcruntime:undname.obj
 0002:0001beac       ??_C@_02BAABKJLB@?9?9@     10148eac     libvcruntime:undname.obj
 0002:0001beb0       ??_C@_01HNPIGOCE@?$CG@     10148eb0     libvcruntime:undname.obj
 0002:0001beb4       ??_C@_03MNHNFDLC@?9?$DO?$CK@ 10148eb4     libvcruntime:undname.obj
 0002:0001beb8       ??_C@_02EHCHHCKH@?$DM?$DN@ 10148eb8     libvcruntime:undname.obj
 0002:0001bebc       ??_C@_02EEKDKGMJ@?$DO?$DN@ 10148ebc     libvcruntime:undname.obj
 0002:0001bec0       ??_C@_02HCKGKOFO@?$CI?$CJ@ 10148ec0     libvcruntime:undname.obj
 0002:0001bec4       ??_C@_01JKBOJNNK@?$FO@     10148ec4     libvcruntime:undname.obj
 0002:0001bec8       ??_C@_01DNKMNLPK@?$HM@     10148ec8     libvcruntime:undname.obj
 0002:0001becc       ??_C@_02PPKAJPJL@?$CG?$CG@ 10148ecc     libvcruntime:undname.obj
 0002:0001bed0       ??_C@_02NONPIBCD@?$HM?$HM@ 10148ed0     libvcruntime:undname.obj
 0002:0001bed4       ??_C@_02FPIMKNGF@?$CK?$DN@ 10148ed4     libvcruntime:undname.obj
 0002:0001bed8       ??_C@_02FOEOMHFC@?$CL?$DN@ 10148ed8     libvcruntime:undname.obj
 0002:0001bedc       ??_C@_02FKMDLLOA@?9?$DN@   10148edc     libvcruntime:undname.obj
 0002:0001bee0       ??_C@_02FJEHGPIO@?1?$DN@   10148ee0     libvcruntime:undname.obj
 0002:0001bee4       ??_C@_02FENAOKFI@?$CF?$DN@ 10148ee4     libvcruntime:undname.obj
 0002:0001bee8       ??_C@_03IKFCCPFF@?$DO?$DO?$DN@ 10148ee8     libvcruntime:undname.obj
 0002:0001beec       ??_C@_03CDNPDDLA@?$DM?$DM?$DN@ 10148eec     libvcruntime:undname.obj
 0002:0001bef0       ??_C@_02FGJGFEAB@?$CG?$DN@ 10148ef0     libvcruntime:undname.obj
 0002:0001bef4       ??_C@_02DHLNPPGH@?$HM?$DN@ 10148ef4     libvcruntime:undname.obj
 0002:0001bef8       ??_C@_02MHEGNOJ@?$FO?$DN@  10148ef8     libvcruntime:undname.obj
 0002:0001befc       ??_C@_09IFPLHPGF@?$GAvftable?8@ 10148efc     libvcruntime:undname.obj
 0002:0001bf08       ??_C@_09BLBHBJP@?$GAvbtable?8@ 10148f08     libvcruntime:undname.obj
 0002:0001bf14       ??_C@_07FEEIOKP@?$GAvcall?8@ 10148f14     libvcruntime:undname.obj
 0002:0001bf1c       ??_C@_08LLFFHHDJ@?$GAtypeof?8@ 10148f1c     libvcruntime:undname.obj
 0002:0001bf28       ??_C@_0BF@KDPPACIK@?$GAlocal?5static?5guard?8@ 10148f28     libvcruntime:undname.obj
 0002:0001bf40       ??_C@_08OBABFOLI@?$GAstring?8@ 10148f40     libvcruntime:undname.obj
 0002:0001bf4c       ??_C@_0BD@JDLKDPAB@?$GAvbase?5destructor?8@ 10148f4c     libvcruntime:undname.obj
 0002:0001bf60       ??_C@_0BN@DEGPLNFK@?$GAvector?5deleting?5destructor?8@ 10148f60     libvcruntime:undname.obj
 0002:0001bf80       ??_C@_0BO@OBMKPJIG@?$GAdefault?5constructor?5closure?8@ 10148f80     libvcruntime:undname.obj
 0002:0001bfa0       ??_C@_0BN@IMDCHIKM@?$GAscalar?5deleting?5destructor?8@ 10148fa0     libvcruntime:undname.obj
 0002:0001bfc0       ??_C@_0BO@PFGOCPJJ@?$GAvector?5constructor?5iterator?8@ 10148fc0     libvcruntime:undname.obj
 0002:0001bfe0       ??_C@_0BN@LFPFMEDL@?$GAvector?5destructor?5iterator?8@ 10148fe0     libvcruntime:undname.obj
 0002:0001c000       ??_C@_0CE@IKBNEHA@?$GAvector?5vbase?5constructor?5itera@ 10149000     libvcruntime:undname.obj
 0002:0001c024       ??_C@_0BL@NILFHHPC@?$GAvirtual?5displacement?5map?8@ 10149024     libvcruntime:undname.obj
 0002:0001c040       ??_C@_0CB@JONCMFFK@?$GAeh?5vector?5constructor?5iterator@ 10149040     libvcruntime:undname.obj
 0002:0001c064       ??_C@_0CA@GCEOPDGL@?$GAeh?5vector?5destructor?5iterator?8@ 10149064     libvcruntime:undname.obj
 0002:0001c084       ??_C@_0CH@OOJPLCPH@?$GAeh?5vector?5vbase?5constructor?5it@ 10149084     libvcruntime:undname.obj
 0002:0001c0ac       ??_C@_0BL@LLKPOHJI@?$GAcopy?5constructor?5closure?8@ 101490ac     libvcruntime:undname.obj
 0002:0001c0c8       ??_C@_0BA@KBCDOMBN@?$GAudt?5returning?8@ 101490c8     libvcruntime:undname.obj
 0002:0001c0d8       ??_C@_03KLGMFNMG@?$GAEH@   101490d8     libvcruntime:undname.obj
 0002:0001c0dc       ??_C@_05KHLCHHI@?$GARTTI@  101490dc     libvcruntime:undname.obj
 0002:0001c0e4       ??_C@_0BA@KKLDJDLB@?$GAlocal?5vftable?8@ 101490e4     libvcruntime:undname.obj
 0002:0001c0f4       ??_C@_0CE@IIHCMGGL@?$GAlocal?5vftable?5constructor?5clos@ 101490f4     libvcruntime:undname.obj
 0002:0001c118       ??_C@_06FHBGPFGH@?5new?$FL?$FN@ 10149118     libvcruntime:undname.obj
 0002:0001c120       ??_C@_09LBNFPBCA@?5delete?$FL?$FN@ 10149120     libvcruntime:undname.obj
 0002:0001c12c       ??_C@_0P@HJKNJFNN@?$GAomni?5callsig?8@ 1014912c     libvcruntime:undname.obj
 0002:0001c13c       ??_C@_0BL@CNOONJFP@?$GAplacement?5delete?5closure?8@ 1014913c     libvcruntime:undname.obj
 0002:0001c158       ??_C@_0BN@CKNJLHMB@?$GAplacement?5delete?$FL?$FN?5closure?8@ 10149158     libvcruntime:undname.obj
 0002:0001c178       ??_C@_0CG@CFDHKGGD@?$GAmanaged?5vector?5constructor?5ite@ 10149178     libvcruntime:undname.obj
 0002:0001c1a0       ??_C@_0CF@IMGKMJNO@?$GAmanaged?5vector?5destructor?5iter@ 101491a0     libvcruntime:undname.obj
 0002:0001c1c8       ??_C@_0CG@HLDDJMAG@?$GAeh?5vector?5copy?5constructor?5ite@ 101491c8     libvcruntime:undname.obj
 0002:0001c1f0       ??_C@_0CM@FCBBDIGB@?$GAeh?5vector?5vbase?5copy?5construct@ 101491f0     libvcruntime:undname.obj
 0002:0001c21c       ??_C@_0BL@CLIPGLGB@?$GAdynamic?5initializer?5for?5?8@ 1014921c     libvcruntime:undname.obj
 0002:0001c238       ??_C@_0CB@PDBIFEP@?$GAdynamic?5atexit?5destructor?5for?5@ 10149238     libvcruntime:undname.obj
 0002:0001c25c       ??_C@_0CD@CGAJBKEJ@?$GAvector?5copy?5constructor?5iterat@ 1014925c     libvcruntime:undname.obj
 0002:0001c280       ??_C@_0CJ@GJELGAMM@?$GAvector?5vbase?5copy?5constructor?5@ 10149280     libvcruntime:undname.obj
 0002:0001c2ac       ??_C@_0CL@FGIJHLCE@?$GAmanaged?5vector?5copy?5constructo@ 101492ac     libvcruntime:undname.obj
 0002:0001c2d8       ??_C@_0BM@PMGGMLDN@?$GAlocal?5static?5thread?5guard?8@ 101492d8     libvcruntime:undname.obj
 0002:0001c2f4       ??_C@_0N@BDNMDMOL@operator?5?$CC?$CC?5@ 101492f4     libvcruntime:undname.obj
 0002:0001c304       ??_C@_0BC@GGEBGALA@operator?5co_await@ 10149304     libvcruntime:undname.obj
 0002:0001c318       ??_C@_0M@GAAIMMOH@operator?$DM?$DN?$DO@ 10149318     libvcruntime:undname.obj
 0002:0001c324       ??_C@_0BC@DAFEJGAK@?5Type?5Descriptor?8@ 10149324     libvcruntime:undname.obj
 0002:0001c338       ??_C@_0BM@LDKODKLH@?5Base?5Class?5Descriptor?5at?5?$CI@ 10149338     libvcruntime:undname.obj
 0002:0001c354       ??_C@_0BD@LGICGFMM@?5Base?5Class?5Array?8@ 10149354     libvcruntime:undname.obj
 0002:0001c368       ??_C@_0BN@MECKDCOJ@?5Class?5Hierarchy?5Descriptor?8@ 10149368     libvcruntime:undname.obj
 0002:0001c388       ??_C@_0BK@CFCOFLF@?5Complete?5Object?5Locator?8@ 10149388     libvcruntime:undname.obj
 0002:0001c3a4       ??_C@_0BG@JNJLAMPM@?$GAanonymous?5namespace?8@ 101493a4     libvcruntime:undname.obj
 0002:0001c3cc       ??_C@_1DM@KHCHBNEB@?$AAa?$AAp?$AAi?$AA?9?$AAm?$AAs?$AA?9?$AAw?$AAi?$AAn?$AA?9?$AAc?$AAo?$AAr?$AAe@ 101493cc     libvcruntime:winapi_downlevel.obj
 0002:0001c408       ??_C@_1DK@LPPGFMPP@?$AAa?$AAp?$AAi?$AA?9?$AAm?$AAs?$AA?9?$AAw?$AAi?$AAn?$AA?9?$AAc?$AAo?$AAr?$AAe@ 10149408     libvcruntime:winapi_downlevel.obj
 0002:0001c444       ??_C@_1BC@GDMECMAK@?$AAk?$AAe?$AAr?$AAn?$AAe?$AAl?$AA3?$AA2@ 10149444     libvcruntime:winapi_downlevel.obj
 0002:0001c458       ??_C@_1BA@PFFKHIOG@?$AAa?$AAp?$AAi?$AA?9?$AAm?$AAs?$AA?9@ 10149458     libvcruntime:winapi_downlevel.obj
 0002:0001c470       ??_C@_08KNHFBNJ@FlsAlloc@  10149470     libvcruntime:winapi_downlevel.obj
 0002:0001c484       ??_C@_07PEJMOBNF@FlsFree@  10149484     libvcruntime:winapi_downlevel.obj
 0002:0001c494       ??_C@_0M@GDNOONDI@FlsGetValue@ 10149494     libvcruntime:winapi_downlevel.obj
 0002:0001c4a8       ??_C@_0M@JCPCPOEF@FlsSetValue@ 101494a8     libvcruntime:winapi_downlevel.obj
 0002:0001c4bc       ??_C@_0BM@HCFOFFN@InitializeCriticalSectionEx@ 101494bc     libvcruntime:winapi_downlevel.obj
 0002:0001c4d8       ?standard_lookup_table_spectre@__crt_stdio_output@@3V?$spectre_mitigated_lookup_table@Ustate_transition_pair@__crt_stdio_output@@$0IA@@1@B 101494d8     libucrt:output.obj
 0002:0001c5d8       ?format_validation_lookup_table_spectre@__crt_stdio_output@@3V?$spectre_mitigated_lookup_table@Ustate_transition_pair@__crt_stdio_output@@$0IA@@1@B 101495d8     libucrt:output.obj
 0002:0001c6d8       ??_C@_1O@CEDCILHN@?$AA?$CI?$AAn?$AAu?$AAl?$AAl?$AA?$CJ@ 101496d8     libucrt:output.obj
 0002:0001c6e8       ??_C@_06OJHGLDPL@?$CInull?$CJ@ 101496e8     libucrt:output.obj
 0002:0001c6f0       ?large_power_data@?1??multiply_by_power_of_ten@__crt_strtox@@YA_NAAUbig_integer@2@I@Z@4QBIB 101496f0     libucrt:input.obj
 0002:0001cff8       ?large_power_indices@?1??multiply_by_power_of_ten@__crt_strtox@@YA_NAAUbig_integer@2@I@Z@4QBUunpack_index@?1??12@YA_N0I@Z@B 10149ff8     libucrt:input.obj
 0002:0001d090       ?small_powers_of_ten@?1??multiply_by_power_of_ten@__crt_strtox@@YA_NAAUbig_integer@2@I@Z@4QBIB 1014a090     libucrt:input.obj
 0002:0001d0b8       ??_C@_1GE@DPGDJKLM@?$AAm?$AAi?$AAn?$AAk?$AAe?$AAr?$AAn?$AAe?$AAl?$AA?2?$AAc?$AAr?$AAt?$AAs?$AA?2@ 1014a0b8     libucrt:input.obj
 0002:0001d120       ??_C@_1FM@FELNCOBF@?$AA_?$AA_?$AAc?$AAr?$AAt?$AA_?$AAs?$AAt?$AAr?$AAt?$AAo?$AAx?$AA?3?$AA?3?$AAf@ 1014a120     libucrt:input.obj
 0002:0001d17c       ??_C@_1BG@GEMHBGAF@?$AA_?$AAi?$AAs?$AA_?$AAd?$AAo?$AAu?$AAb?$AAl?$AAe@ 1014a17c     libucrt:input.obj
 0002:0001d198       ??_C@_1FK@JOJELFFO@?$AA_?$AA_?$AAc?$AAr?$AAt?$AA_?$AAs?$AAt?$AAr?$AAt?$AAo?$AAx?$AA?3?$AA?3?$AAf@ 1014a198     libucrt:input.obj
 0002:0001d1f4       ??_C@_1BI@BANMPGJI@?$AA?$CB?$AA_?$AAi?$AAs?$AA_?$AAd?$AAo?$AAu?$AAb?$AAl?$AAe@ 1014a1f4     libucrt:input.obj
 0002:0001d210       ?constraints@?1??is_length_valid@__crt_stdio_input@@YA_NW4conversion_mode@2@W4length_modifier@2@@Z@4QAY0M@$$CBEA 1014a210     libucrt:input.obj
 0002:0001d288       ?inf_uppercase@?1???$parse_floating_point_possible_infinity@DV?$input_adapter_character_source@V?$string_input_adapter@D@__crt_stdio_input@@@__crt_strtox@@_K@__crt_strtox@@YA?AW4floating_point_parse_result@1@AADAAV?$input_adapter_character_source@V?$string_input_adapter@D@__crt_stdio_input@@@1@_K@Z@4QBDB 1014a288     libucrt:input.obj
 0002:0001d28c       ?inf_lowercase@?1???$parse_floating_point_possible_infinity@DV?$input_adapter_character_source@V?$string_input_adapter@D@__crt_stdio_input@@@__crt_strtox@@_K@__crt_strtox@@YA?AW4floating_point_parse_result@1@AADAAV?$input_adapter_character_source@V?$string_input_adapter@D@__crt_stdio_input@@@1@_K@Z@4QBDB 1014a28c     libucrt:input.obj
 0002:0001d290       ?inity_uppercase@?1???$parse_floating_point_possible_infinity@DV?$input_adapter_character_source@V?$string_input_adapter@D@__crt_stdio_input@@@__crt_strtox@@_K@__crt_strtox@@YA?AW4floating_point_parse_result@1@AADAAV?$input_adapter_character_source@V?$string_input_adapter@D@__crt_stdio_input@@@1@_K@Z@4QBDB 1014a290     libucrt:input.obj
 0002:0001d298       ?inity_lowercase@?1???$parse_floating_point_possible_infinity@DV?$input_adapter_character_source@V?$string_input_adapter@D@__crt_stdio_input@@@__crt_strtox@@_K@__crt_strtox@@YA?AW4floating_point_parse_result@1@AADAAV?$input_adapter_character_source@V?$string_input_adapter@D@__crt_stdio_input@@@1@_K@Z@4QBDB 1014a298     libucrt:input.obj
 0002:0001d2a0       ?uppercase@?1???$parse_floating_point_possible_nan@DV?$input_adapter_character_source@V?$string_input_adapter@D@__crt_stdio_input@@@__crt_strtox@@_K@__crt_strtox@@YA?AW4floating_point_parse_result@1@AADAAV?$input_adapter_character_source@V?$string_input_adapter@D@__crt_stdio_input@@@1@_K@Z@4QBDB 1014a2a0     libucrt:input.obj
 0002:0001d2a4       ?lowercase@?1???$parse_floating_point_possible_nan@DV?$input_adapter_character_source@V?$string_input_adapter@D@__crt_stdio_input@@@__crt_strtox@@_K@__crt_strtox@@YA?AW4floating_point_parse_result@1@AADAAV?$input_adapter_character_source@V?$string_input_adapter@D@__crt_stdio_input@@@1@_K@Z@4QBDB 1014a2a4     libucrt:input.obj
 0002:0001d2a8       ?uppercase@?1???$parse_floating_point_possible_nan_is_snan@DV?$input_adapter_character_source@V?$string_input_adapter@D@__crt_stdio_input@@@__crt_strtox@@@__crt_strtox@@YA_NAADAAV?$input_adapter_character_source@V?$string_input_adapter@D@__crt_stdio_input@@@1@@Z@4QBDB 1014a2a8     libucrt:input.obj
 0002:0001d2b0       ?lowercase@?1???$parse_floating_point_possible_nan_is_snan@DV?$input_adapter_character_source@V?$string_input_adapter@D@__crt_stdio_input@@@__crt_strtox@@@__crt_strtox@@YA_NAADAAV?$input_adapter_character_source@V?$string_input_adapter@D@__crt_stdio_input@@@1@@Z@4QBDB 1014a2b0     libucrt:input.obj
 0002:0001d2b8       ?uppercase@?1???$parse_floating_point_possible_nan_is_ind@DV?$input_adapter_character_source@V?$string_input_adapter@D@__crt_stdio_input@@@__crt_strtox@@@__crt_strtox@@YA_NAADAAV?$input_adapter_character_source@V?$string_input_adapter@D@__crt_stdio_input@@@1@@Z@4QBDB 1014a2b8     libucrt:input.obj
 0002:0001d2bc       ?lowercase@?1???$parse_floating_point_possible_nan_is_ind@DV?$input_adapter_character_source@V?$string_input_adapter@D@__crt_stdio_input@@@__crt_strtox@@@__crt_strtox@@YA_NAADAAV?$input_adapter_character_source@V?$string_input_adapter@D@__crt_stdio_input@@@1@@Z@4QBDB 1014a2bc     libucrt:input.obj
 0002:0001d468       ___newctype                1014a468     libucrt:ctype.obj
 0002:0001d768       ___newclmap                1014a768     libucrt:ctype.obj
 0002:0001d8e8       ___newcumap                1014a8e8     libucrt:ctype.obj
 0002:0001da68       __wctype                   1014aa68     libucrt:ctype.obj
 0002:0001dc74       __half                     1014ac74     libucrt:pow_impl.obj
 0002:0001dc80       ___acrt_exception_action_table 1014ac80     libucrt:exception_filter.obj
 0002:0001dd10       ___acrt_signal_action_table_count 1014ad10     libucrt:exception_filter.obj
 0002:0001dd14       ___acrt_signal_action_first_fpe_index 1014ad14     libucrt:exception_filter.obj
 0002:0001dd18       ___acrt_signal_action_fpe_count 1014ad18     libucrt:exception_filter.obj
 0002:0001dd1c       ??_C@_1BI@BGOHAHKC@?$AAm?$AAs?$AAc?$AAo?$AAr?$AAe?$AAe?$AA?4?$AAd?$AAl?$AAl@ 1014ad1c     libucrt:exit.obj
 0002:0001dd34       ??_C@_0P@MIGLKIOC@CorExitProcess@ 1014ad34     libucrt:exit.obj
 0002:0001de48       ___lc_category             1014ae48     libucrt:wsetlocale.obj
 0002:0001de90       ??_C@_1O@GIFLHMA@?$AAL?$AAC?$AA_?$AAA?$AAL?$AAL@ 1014ae90     libucrt:wsetlocale.obj
 0002:0001dea0       ??_C@_1BG@PPOMIBNJ@?$AAL?$AAC?$AA_?$AAC?$AAO?$AAL?$AAL?$AAA?$AAT?$AAE@ 1014aea0     libucrt:wsetlocale.obj
 0002:0001deb8       ??_C@_1BC@FFJGAPJM@?$AAL?$AAC?$AA_?$AAC?$AAT?$AAY?$AAP?$AAE@ 1014aeb8     libucrt:wsetlocale.obj
 0002:0001decc       ??_C@_1BI@PCKFNJFB@?$AAL?$AAC?$AA_?$AAM?$AAO?$AAN?$AAE?$AAT?$AAA?$AAR?$AAY@ 1014aecc     libucrt:wsetlocale.obj
 0002:0001dee4       ??_C@_1BG@ENIEDKID@?$AAL?$AAC?$AA_?$AAN?$AAU?$AAM?$AAE?$AAR?$AAI?$AAC@ 1014aee4     libucrt:wsetlocale.obj
 0002:0001defc       ??_C@_1BA@HAAOMIIG@?$AAL?$AAC?$AA_?$AAT?$AAI?$AAM?$AAE@ 1014aefc     libucrt:wsetlocale.obj
 0002:0001df0c       ??_C@_15NBPDDFIP@?$AA?$DN?$AA?$DL@ 1014af0c     libucrt:wsetlocale.obj
 0002:0001df14       ??_C@_13PJJBFPED@?$AA?$DL@ 1014af14     libucrt:wsetlocale.obj
 0002:0001df18       ??_C@_13NMPKAAJP@?$AA?$DN@ 1014af18     libucrt:wsetlocale.obj
 0002:0001df1c       ??_C@_17EFJLDFDO@?$AA?9?$AA_?$AA?4@ 1014af1c     libucrt:wsetlocale.obj
 0002:0001df24       ??_C@_13FHBKNHDA@?$AAC@    1014af24     libucrt:wsetlocale.obj
 0002:0001df28       ??_C@_17MBJJLFDM@?$AA_?$AA?4?$AA?0@ 1014af28     libucrt:wsetlocale.obj
 0002:0001df30       ??_C@_13ENNFDPBH@?$AA_@    1014af30     libucrt:wsetlocale.obj
 0002:0001df34       ??_C@_13JOFGPIOO@?$AA?4@   1014af34     libucrt:wsetlocale.obj
 0002:0001df38       ___lc_time_c               1014af38     libucrt:nlsdata.obj
 0002:0001e09c       ??_C@_03KOEHGMDN@Sun@      1014b09c     libucrt:nlsdata.obj
 0002:0001e0a0       ??_C@_03PDAGKDH@Mon@       1014b0a0     libucrt:nlsdata.obj
 0002:0001e0a4       ??_C@_03NAGEINEP@Tue@      1014b0a4     libucrt:nlsdata.obj
 0002:0001e0a8       ??_C@_03MHOMLAJA@Wed@      1014b0a8     libucrt:nlsdata.obj
 0002:0001e0ac       ??_C@_03IOFIKPDN@Thu@      1014b0ac     libucrt:nlsdata.obj
 0002:0001e0b0       ??_C@_03IDIOELNC@Fri@      1014b0b0     libucrt:nlsdata.obj
 0002:0001e0b4       ??_C@_03FEFJNEK@Sat@       1014b0b4     libucrt:nlsdata.obj
 0002:0001e0b8       ??_C@_06OOPIFAJ@Sunday@    1014b0b8     libucrt:nlsdata.obj
 0002:0001e0c0       ??_C@_06JLEDEDGH@Monday@   1014b0c0     libucrt:nlsdata.obj
 0002:0001e0c8       ??_C@_07BAAGCFCM@Tuesday@  1014b0c8     libucrt:nlsdata.obj
 0002:0001e0d0       ??_C@_09DLIGFAKA@Wednesday@ 1014b0d0     libucrt:nlsdata.obj
 0002:0001e0dc       ??_C@_08HACCIKIA@Thursday@ 1014b0dc     libucrt:nlsdata.obj
 0002:0001e0e8       ??_C@_06JECMNKMI@Friday@   1014b0e8     libucrt:nlsdata.obj
 0002:0001e0f0       ??_C@_08INBOOONO@Saturday@ 1014b0f0     libucrt:nlsdata.obj
 0002:0001e0fc       ??_C@_03JIHJHPIE@Jan@      1014b0fc     libucrt:nlsdata.obj
 0002:0001e100       ??_C@_03HJBDCHOM@Feb@      1014b100     libucrt:nlsdata.obj
 0002:0001e104       ??_C@_03ODNJBKGA@Mar@      1014b104     libucrt:nlsdata.obj
 0002:0001e108       ??_C@_03LEOLGMJP@Apr@      1014b108     libucrt:nlsdata.obj
 0002:0001e10c       ??_C@_03CNMDKL@May@        1014b10c     libucrt:nlsdata.obj
 0002:0001e110       ??_C@_03IDFGHECI@Jun@      1014b110     libucrt:nlsdata.obj
 0002:0001e114       ??_C@_03LBGABGKK@Jul@      1014b114     libucrt:nlsdata.obj
 0002:0001e118       ??_C@_03IFJFEIGA@Aug@      1014b118     libucrt:nlsdata.obj
 0002:0001e11c       ??_C@_03GGCAPAJC@Sep@      1014b11c     libucrt:nlsdata.obj
 0002:0001e120       ??_C@_03BMAOKBAD@Oct@      1014b120     libucrt:nlsdata.obj
 0002:0001e124       ??_C@_03JPJOFNIA@Nov@      1014b124     libucrt:nlsdata.obj
 0002:0001e128       ??_C@_03MKABNOCG@Dec@      1014b128     libucrt:nlsdata.obj
 0002:0001e12c       ??_C@_07CGJPFGJA@January@  1014b12c     libucrt:nlsdata.obj
 0002:0001e134       ??_C@_08GNJGEPFN@February@ 1014b134     libucrt:nlsdata.obj
 0002:0001e140       ??_C@_05HPCKOFNC@March@    1014b140     libucrt:nlsdata.obj
 0002:0001e148       ??_C@_05DMJDNLEJ@April@    1014b148     libucrt:nlsdata.obj
 0002:0001e150       ??_C@_04CNLMGBGM@June@     1014b150     libucrt:nlsdata.obj
 0002:0001e158       ??_C@_04MIEPOIFP@July@     1014b158     libucrt:nlsdata.obj
 0002:0001e160       ??_C@_06LBBHFDDG@August@   1014b160     libucrt:nlsdata.obj
 0002:0001e168       ??_C@_09BHHEALKD@September@ 1014b168     libucrt:nlsdata.obj
 0002:0001e174       ??_C@_07JJNFCEND@October@  1014b174     libucrt:nlsdata.obj
 0002:0001e17c       ??_C@_08HCHEGEOA@November@ 1014b17c     libucrt:nlsdata.obj
 0002:0001e188       ??_C@_08EDHMEBNP@December@ 1014b188     libucrt:nlsdata.obj
 0002:0001e194       ??_C@_02DEDBPAFC@AM@       1014b194     libucrt:nlsdata.obj
 0002:0001e198       ??_C@_02CJNFDJBF@PM@       1014b198     libucrt:nlsdata.obj
 0002:0001e19c       ??_C@_08BPBNCDIB@MM?1dd?1yy@ 1014b19c     libucrt:nlsdata.obj
 0002:0001e1a8       ??_C@_0BE@CKGJFCPC@dddd?0?5MMMM?5dd?0?5yyyy@ 1014b1a8     libucrt:nlsdata.obj
 0002:0001e1bc       ??_C@_08JCCMCCIL@HH?3mm?3ss@ 1014b1bc     libucrt:nlsdata.obj
 0002:0001e1c8       ??_C@_17MBGCMIPB@?$AAS?$AAu?$AAn@ 1014b1c8     libucrt:nlsdata.obj
 0002:0001e1d0       ??_C@_17KBOMKBF@?$AAM?$AAo?$AAn@ 1014b1d0     libucrt:nlsdata.obj
 0002:0001e1d8       ??_C@_17BMKGEGOJ@?$AAT?$AAu?$AAe@ 1014b1d8     libucrt:nlsdata.obj
 0002:0001e1e0       ??_C@_17CJEDCEPE@?$AAW?$AAe?$AAd@ 1014b1e0     libucrt:nlsdata.obj
 0002:0001e1e8       ??_C@_17PDPHAADD@?$AAT?$AAh?$AAu@ 1014b1e8     libucrt:nlsdata.obj
 0002:0001e1f0       ??_C@_17HFOLPPLP@?$AAF?$AAr?$AAi@ 1014b1f0     libucrt:nlsdata.obj
 0002:0001e1f8       ??_C@_17GGIBDPIH@?$AAS?$AAa?$AAt@ 1014b1f8     libucrt:nlsdata.obj
 0002:0001e200       ??_C@_1O@IHNHDHPB@?$AAS?$AAu?$AAn?$AAd?$AAa?$AAy@ 1014b200     libucrt:nlsdata.obj
 0002:0001e210       ??_C@_1O@MMNBFLIA@?$AAM?$AAo?$AAn?$AAd?$AAa?$AAy@ 1014b210     libucrt:nlsdata.obj
 0002:0001e220       ??_C@_1BA@ENFBFFEK@?$AAT?$AAu?$AAe?$AAs?$AAd?$AAa?$AAy@ 1014b220     libucrt:nlsdata.obj
 0002:0001e230       ??_C@_1BE@EBOGMDOH@?$AAW?$AAe?$AAd?$AAn?$AAe?$AAs?$AAd?$AAa?$AAy@ 1014b230     libucrt:nlsdata.obj
 0002:0001e244       ??_C@_1BC@HHMNLIHE@?$AAT?$AAh?$AAu?$AAr?$AAs?$AAd?$AAa?$AAy@ 1014b244     libucrt:nlsdata.obj
 0002:0001e258       ??_C@_1O@PDICJHAG@?$AAF?$AAr?$AAi?$AAd?$AAa?$AAy@ 1014b258     libucrt:nlsdata.obj
 0002:0001e268       ??_C@_1BC@ENMNNPAJ@?$AAS?$AAa?$AAt?$AAu?$AAr?$AAd?$AAa?$AAy@ 1014b268     libucrt:nlsdata.obj
 0002:0001e27c       ??_C@_17DKNBKCHM@?$AAJ?$AAa?$AAn@ 1014b27c     libucrt:nlsdata.obj
 0002:0001e284       ??_C@_17LMDJEKJN@?$AAF?$AAe?$AAb@ 1014b284     libucrt:nlsdata.obj
 0002:0001e28c       ??_C@_17CKNLEDEC@?$AAM?$AAa?$AAr@ 1014b28c     libucrt:nlsdata.obj
 0002:0001e294       ??_C@_17LFPOIHDD@?$AAA?$AAp?$AAr@ 1014b294     libucrt:nlsdata.obj
 0002:0001e29c       ??_C@_17PNNKMEED@?$AAM?$AAa?$AAy@ 1014b29c     libucrt:nlsdata.obj
 0002:0001e2a4       ??_C@_17KCJGOCPB@?$AAJ?$AAu?$AAn@ 1014b2a4     libucrt:nlsdata.obj
 0002:0001e2ac       ??_C@_17IJPCKHK@?$AAJ?$AAu?$AAl@ 1014b2ac     libucrt:nlsdata.obj
 0002:0001e2b4       ??_C@_17ICPELBCN@?$AAA?$AAu?$AAg@ 1014b2b4     libucrt:nlsdata.obj
 0002:0001e2bc       ??_C@_17HCHCOKMG@?$AAS?$AAe?$AAp@ 1014b2bc     libucrt:nlsdata.obj
 0002:0001e2c4       ??_C@_17FNLKOI@?$AAO?$AAc?$AAt@ 1014b2c4     libucrt:nlsdata.obj
 0002:0001e2cc       ??_C@_17BBDMLCIG@?$AAN?$AAo?$AAv@ 1014b2cc     libucrt:nlsdata.obj
 0002:0001e2d4       ??_C@_17EGKACKIF@?$AAD?$AAe?$AAc@ 1014b2d4     libucrt:nlsdata.obj
 0002:0001e2dc       ??_C@_1BA@EFMEIEBA@?$AAJ?$AAa?$AAn?$AAu?$AAa?$AAr?$AAy@ 1014b2dc     libucrt:nlsdata.obj
 0002:0001e2ec       ??_C@_1BC@JGDDFFAM@?$AAF?$AAe?$AAb?$AAr?$AAu?$AAa?$AAr?$AAy@ 1014b2ec     libucrt:nlsdata.obj
 0002:0001e300       ??_C@_1M@IKEENEDF@?$AAM?$AAa?$AAr?$AAc?$AAh@ 1014b300     libucrt:nlsdata.obj
 0002:0001e30c       ??_C@_1M@GJNLMHFD@?$AAA?$AAp?$AAr?$AAi?$AAl@ 1014b30c     libucrt:nlsdata.obj
 0002:0001e318       ??_C@_19EPFLPGAP@?$AAJ?$AAu?$AAn?$AAe@ 1014b318     libucrt:nlsdata.obj
 0002:0001e324       ??_C@_19BIFMLPCD@?$AAJ?$AAu?$AAl?$AAy@ 1014b324     libucrt:nlsdata.obj
 0002:0001e330       ??_C@_1O@PAHLKOAC@?$AAA?$AAu?$AAg?$AAu?$AAs?$AAt@ 1014b330     libucrt:nlsdata.obj
 0002:0001e340       ??_C@_1BE@DKAAMBJL@?$AAS?$AAe?$AAp?$AAt?$AAe?$AAm?$AAb?$AAe?$AAr@ 1014b340     libucrt:nlsdata.obj
 0002:0001e354       ??_C@_1BA@EPANDLNG@?$AAO?$AAc?$AAt?$AAo?$AAb?$AAe?$AAr@ 1014b354     libucrt:nlsdata.obj
 0002:0001e364       ??_C@_1BC@BGLIFPF@?$AAN?$AAo?$AAv?$AAe?$AAm?$AAb?$AAe?$AAr@ 1014b364     libucrt:nlsdata.obj
 0002:0001e378       ??_C@_1BC@FEMKIFH@?$AAD?$AAe?$AAc?$AAe?$AAm?$AAb?$AAe?$AAr@ 1014b378     libucrt:nlsdata.obj
 0002:0001e38c       ??_C@_15ODEHAHHF@?$AAA?$AAM@ 1014b38c     libucrt:nlsdata.obj
 0002:0001e394       ??_C@_15CLMNNGEL@?$AAP?$AAM@ 1014b394     libucrt:nlsdata.obj
 0002:0001e39c       ??_C@_1BC@IEBCMHCM@?$AAM?$AAM?$AA?1?$AAd?$AAd?$AA?1?$AAy?$AAy@ 1014b39c     libucrt:nlsdata.obj
 0002:0001e3b0       ??_C@_1CI@KNAKOEBC@?$AAd?$AAd?$AAd?$AAd?$AA?0?$AA?5?$AAM?$AAM?$AAM?$AAM?$AA?5?$AAd?$AAd?$AA?0?$AA?5@ 1014b3b0     libucrt:nlsdata.obj
 0002:0001e3d8       ??_C@_1BC@GDGBMEMK@?$AAH?$AAH?$AA?3?$AAm?$AAm?$AA?3?$AAs?$AAs@ 1014b3d8     libucrt:nlsdata.obj
 0002:0001e3ec       ??_C@_1M@BMHNFIME@?$AAe?$AAn?$AA?9?$AAU?$AAS@ 1014b3ec     libucrt:nlsdata.obj
 0002:0001e448       ??_C@_1EA@JGEFHKEI@?$AAa?$AAp?$AAi?$AA?9?$AAm?$AAs?$AA?9?$AAw?$AAi?$AAn?$AA?9?$AAc?$AAo?$AAr?$AAe@ 1014b448     libucrt:winapi_thunks.obj
 0002:0001e488       ??_C@_1DI@IJCEHOCB@?$AAa?$AAp?$AAi?$AA?9?$AAm?$AAs?$AA?9?$AAw?$AAi?$AAn?$AA?9?$AAc?$AAo?$AAr?$AAe@ 1014b488     libucrt:winapi_thunks.obj
 0002:0001e4c0       ??_C@_1EI@MPIAOHOC@?$AAa?$AAp?$AAi?$AA?9?$AAm?$AAs?$AA?9?$AAw?$AAi?$AAn?$AA?9?$AAc?$AAo?$AAr?$AAe@ 1014b4c0     libucrt:winapi_thunks.obj
 0002:0001e508       ??_C@_1FK@FPHCKFIE@?$AAa?$AAp?$AAi?$AA?9?$AAm?$AAs?$AA?9?$AAw?$AAi?$AAn?$AA?9?$AAc?$AAo?$AAr?$AAe@ 1014b508     libucrt:winapi_thunks.obj
 0002:0001e568       ??_C@_1EM@DILCGIIO@?$AAa?$AAp?$AAi?$AA?9?$AAm?$AAs?$AA?9?$AAw?$AAi?$AAn?$AA?9?$AAc?$AAo?$AAr?$AAe@ 1014b568     libucrt:winapi_thunks.obj
 0002:0001e5b4       ??_C@_1DM@LNCGDDPN@?$AAa?$AAp?$AAi?$AA?9?$AAm?$AAs?$AA?9?$AAw?$AAi?$AAn?$AA?9?$AAc?$AAo?$AAr?$AAe@ 1014b5b4     libucrt:winapi_thunks.obj
 0002:0001e5f0       ??_C@_1DO@FPAPJEMD@?$AAa?$AAp?$AAi?$AA?9?$AAm?$AAs?$AA?9?$AAw?$AAi?$AAn?$AA?9?$AAc?$AAo?$AAr?$AAe@ 1014b5f0     libucrt:winapi_thunks.obj
 0002:0001e630       ??_C@_1DK@NDHNAHIO@?$AAa?$AAp?$AAi?$AA?9?$AAm?$AAs?$AA?9?$AAw?$AAi?$AAn?$AA?9?$AAc?$AAo?$AAr?$AAe@ 1014b630     libucrt:winapi_thunks.obj
 0002:0001e66c       ??_C@_1DM@KGHDGBCM@?$AAa?$AAp?$AAi?$AA?9?$AAm?$AAs?$AA?9?$AAw?$AAi?$AAn?$AA?9?$AAc?$AAo?$AAr?$AAe@ 1014b66c     libucrt:winapi_thunks.obj
 0002:0001e6a8       ??_C@_1EO@IJIOEFOH@?$AAa?$AAp?$AAi?$AA?9?$AAm?$AAs?$AA?9?$AAw?$AAi?$AAn?$AA?9?$AAr?$AAt?$AAc?$AAo@ 1014b6a8     libucrt:winapi_thunks.obj
 0002:0001e6f8       ??_C@_1FG@HHGEKANL@?$AAa?$AAp?$AAi?$AA?9?$AAm?$AAs?$AA?9?$AAw?$AAi?$AAn?$AA?9?$AAs?$AAe?$AAc?$AAu@ 1014b6f8     libucrt:winapi_thunks.obj
 0002:0001e750       ??_C@_1EG@DBIOJECG@?$AAe?$AAx?$AAt?$AA?9?$AAm?$AAs?$AA?9?$AAw?$AAi?$AAn?$AA?9?$AAn?$AAt?$AAu?$AAs@ 1014b750     libucrt:winapi_thunks.obj
 0002:0001e798       ??_C@_1EO@FIHMJCLF@?$AAe?$AAx?$AAt?$AA?9?$AAm?$AAs?$AA?9?$AAw?$AAi?$AAn?$AA?9?$AAn?$AAt?$AAu?$AAs@ 1014b798     libucrt:winapi_thunks.obj
 0002:0001e7e8       ??_C@_1BC@DNHGCMLG@?$AAa?$AAd?$AAv?$AAa?$AAp?$AAi?$AA3?$AA2@ 1014b7e8     libucrt:winapi_thunks.obj
 0002:0001e7fc       ??_C@_1M@OAIMIKLP@?$AAn?$AAt?$AAd?$AAl?$AAl@ 1014b7fc     libucrt:winapi_thunks.obj
 0002:0001e808       ??_C@_1EG@DPGNFKGC@?$AAa?$AAp?$AAi?$AA?9?$AAm?$AAs?$AA?9?$AAw?$AAi?$AAn?$AA?9?$AAa?$AAp?$AAp?$AAm@ 1014b808     libucrt:winapi_thunks.obj
 0002:0001e850       ??_C@_1O@BCCLBEOE@?$AAu?$AAs?$AAe?$AAr?$AA3?$AA2@ 1014b850     libucrt:winapi_thunks.obj
 0002:0001e860       ??_C@_1DM@BPJLHKCE@?$AAa?$AAp?$AAi?$AA?9?$AAm?$AAs?$AA?9?$AAw?$AAi?$AAn?$AA?9?$AAc?$AAo?$AAr?$AAe@ 1014b860     libucrt:winapi_thunks.obj
 0002:0001e89c       ??_C@_1BA@IAIFMGEF@?$AAe?$AAx?$AAt?$AA?9?$AAm?$AAs?$AA?9@ 1014b89c     libucrt:winapi_thunks.obj
 0002:0001e8b0       ??_C@_0BA@FHFNEAED@AreFileApisANSI@ 1014b8b0     libucrt:winapi_thunks.obj
 0002:0001e8c8       ??_C@_0BA@IHGNDAEB@CompareStringEx@ 1014b8c8     libucrt:winapi_thunks.obj
 0002:0001e8e0       ??_C@_0BE@LJANKFHF@EnumSystemLocalesEx@ 1014b8e0     libucrt:winapi_thunks.obj
 0002:0001e8fc       ??_C@_0BA@EPCJIIPD@GetDateFormatEx@ 1014b8fc     libucrt:winapi_thunks.obj
 0002:0001e914       ??_C@_0BA@ONOKGCMP@GetLocaleInfoEx@ 1014b914     libucrt:winapi_thunks.obj
 0002:0001e92c       ??_C@_0BA@CIJJKCJJ@GetTimeFormatEx@ 1014b92c     libucrt:winapi_thunks.obj
 0002:0001e944       ??_C@_0BJ@PBCCBIPI@GetUserDefaultLocaleName@ 1014b944     libucrt:winapi_thunks.obj
 0002:0001e970       ??_C@_0BC@CELBKLLA@IsValidLocaleName@ 1014b970     libucrt:winapi_thunks.obj
 0002:0001e98c       ??_C@_0O@KKBNKAPF@LCMapStringEx@ 1014b98c     libucrt:winapi_thunks.obj
 0002:0001e9a4       ??_C@_0BB@CDHDDLLP@LCIDToLocaleName@ 1014b9a4     libucrt:winapi_thunks.obj
 0002:0001e9c0       ??_C@_0BB@HBDEELFH@LocaleNameToLCID@ 1014b9c0     libucrt:winapi_thunks.obj
 0002:0001e9d8       ??_C@_0N@PPOMPGGK@RoInitialize@ 1014b9d8     libucrt:winapi_thunks.obj
 0002:0001e9ec       ??_C@_0P@LLFHBIJD@RoUninitialize@ 1014b9ec     libucrt:winapi_thunks.obj
 0002:0001ea00       ??_C@_0CF@OJOFEIGO@AppPolicyGetProcessTerminationM@ 1014ba00     libucrt:winapi_thunks.obj
 0002:0001ea2c       ??_C@_0CF@NNDFDCOC@AppPolicyGetThreadInitializatio@ 1014ba2c     libucrt:winapi_thunks.obj
 0002:0001ea74       ?ccs@?1???$__acrt_stdio_parse_mode@D@@YA?AU__acrt_stdio_stream_mode@@QBD@Z@4QBDB 1014ba74     libucrt:openfile.obj
 0002:0001ea78       ?utf8_encoding@?1???$__acrt_stdio_parse_mode@D@@YA?AU__acrt_stdio_stream_mode@@QBD@Z@4QBDB 1014ba78     libucrt:openfile.obj
 0002:0001ea80       ?utf16_encoding@?1???$__acrt_stdio_parse_mode@D@@YA?AU__acrt_stdio_stream_mode@@QBD@Z@4QBDB 1014ba80     libucrt:openfile.obj
 0002:0001ea88       ?unicode_encoding@?1???$__acrt_stdio_parse_mode@D@@YA?AU__acrt_stdio_stream_mode@@QBD@Z@4QBDB 1014ba88     libucrt:openfile.obj
 0002:0001ea90       ?ccs@?1???$__acrt_stdio_parse_mode@_W@@YA?AU__acrt_stdio_stream_mode@@QB_W@Z@4QB_WB 1014ba90     libucrt:openfile.obj
 0002:0001ea98       ?utf8_encoding@?1???$__acrt_stdio_parse_mode@_W@@YA?AU__acrt_stdio_stream_mode@@QB_W@Z@4QB_WB 1014ba98     libucrt:openfile.obj
 0002:0001eaa4       ?utf16_encoding@?1???$__acrt_stdio_parse_mode@_W@@YA?AU__acrt_stdio_stream_mode@@QB_W@Z@4QB_WB 1014baa4     libucrt:openfile.obj
 0002:0001eab4       ?unicode_encoding@?1???$__acrt_stdio_parse_mode@_W@@YA?AU__acrt_stdio_stream_mode@@QB_W@Z@4QB_WB 1014bab4     libucrt:openfile.obj
 0002:0001eb08       ??_C@_03OEIAHPBN@INF@      1014bb08     libucrt:cvt.obj
 0002:0001eb0c       ??_C@_03OJHLLCGB@inf@      1014bb0c     libucrt:cvt.obj
 0002:0001eb10       ??_C@_03LKNCIKJB@NAN@      1014bb10     libucrt:cvt.obj
 0002:0001eb14       ??_C@_03LHCJEHON@nan@      1014bb14     libucrt:cvt.obj
 0002:0001eb18       ??_C@_09OFJJIMPC@NAN?$CISNAN?$CJ@ 1014bb18     libucrt:cvt.obj
 0002:0001eb24       ??_C@_09IPFBKMDL@nan?$CIsnan?$CJ@ 1014bb24     libucrt:cvt.obj
 0002:0001eb30       ??_C@_08IKHNHAJ@NAN?$CIIND?$CJ@ 1014bb30     libucrt:cvt.obj
 0002:0001eb3c       ??_C@_08OFCDMILK@nan?$CIind?$CJ@ 1014bb3c     libucrt:cvt.obj
 0002:0001eb48       ??_C@_05KLBDPFGC@e?$CL000@ 1014bb48     libucrt:cvt.obj
 0002:0001eb50       ??_C@_03MGHMBJCF@log@      1014bb50     libucrt:libm_error.obj
 0002:0001eb54       ??_C@_05HGHHAHAP@log10@    1014bb54     libucrt:libm_error.obj
 0002:0001eb5c       ??_C@_03KHJOGHMM@exp@      1014bb5c     libucrt:libm_error.obj
 0002:0001eb60       ??_C@_03JGHBODFD@pow@      1014bb60     libucrt:libm_error.obj
 0002:0001eb64       ??_C@_04FIHNOPOL@asin@     1014bb64     libucrt:libm_error.obj
 0002:0001eb6c       ??_C@_04PDIFKINK@acos@     1014bb6c     libucrt:libm_error.obj
 0002:0001eb74       ??_C@_04EIAKFFMI@sqrt@     1014bb74     libucrt:libm_error.obj
 0002:0001ec68       ??_C@_04COOMCNPB@sinh@     1014bc68     libucrt:fpexcept.obj
 0002:0001ec70       ??_C@_04HPJJNFIM@cosh@     1014bc70     libucrt:fpexcept.obj
 0002:0001ec78       ??_C@_04FJHINJAO@tanh@     1014bc78     libucrt:fpexcept.obj
 0002:0001ec80       ??_C@_04MLLJIGOK@atan@     1014bc80     libucrt:fpexcept.obj
 0002:0001ec88       ??_C@_05KNGEOGJB@atan2@    1014bc88     libucrt:fpexcept.obj
 0002:0001ec90       ??_C@_03BLEJJJBH@sin@      1014bc90     libucrt:fpexcept.obj
 0002:0001ec94       ??_C@_03LALBNOCG@cos@      1014bc94     libucrt:fpexcept.obj
 0002:0001ec98       ??_C@_03IIINPABG@tan@      1014bc98     libucrt:fpexcept.obj
 0002:0001ec9c       ??_C@_04GFPJNGEK@ceil@     1014bc9c     libucrt:fpexcept.obj
 0002:0001eca4       ??_C@_05PBJFFIGL@floor@    1014bca4     libucrt:fpexcept.obj
 0002:0001ecac       ??_C@_04ODHECPBC@fabs@     1014bcac     libucrt:fpexcept.obj
 0002:0001ecb4       ??_C@_04EHEDPDJG@modf@     1014bcb4     libucrt:fpexcept.obj
 0002:0001ecbc       ??_C@_05CEJMAHNP@ldexp@    1014bcbc     libucrt:fpexcept.obj
 0002:0001ecc4       ??_C@_05KBKMEMPO@_cabs@    1014bcc4     libucrt:fpexcept.obj
 0002:0001eccc       ??_C@_06MEIMCGCF@_hypot@   1014bccc     libucrt:fpexcept.obj
 0002:0001ecd4       ??_C@_04KEPJIHGP@fmod@     1014bcd4     libucrt:fpexcept.obj
 0002:0001ecdc       ??_C@_05GKKHEGJL@frexp@    1014bcdc     libucrt:fpexcept.obj
 0002:0001ece4       ??_C@_03MJLDFKDL@_y0@      1014bce4     libucrt:fpexcept.obj
 0002:0001ece8       ??_C@_03NAKIGLHK@_y1@      1014bce8     libucrt:fpexcept.obj
 0002:0001ecec       ??_C@_03ONILCKOB@_yn@      1014bcec     libucrt:fpexcept.obj
 0002:0001ecf0       ??_C@_05JGDBENOH@_logb@    1014bcf0     libucrt:fpexcept.obj
 0002:0001ecf8       ??_C@_0L@KDOEJCKC@_nextafter@ 1014bcf8     libucrt:fpexcept.obj
 0002:0001ed08       __d_inf                    1014bd08     libucrt:util.obj
 0002:0001ed10       __d_ind                    1014bd10     libucrt:util.obj
 0002:0001ed18       __d_max                    1014bd18     libucrt:util.obj
 0002:0001ed20       __d_mzero                  1014bd20     libucrt:util.obj
 0002:0001ed40       __real@3fe0000000000000    1014bd40     libucrt:remquof.obj
 0002:0001ee60       __infinity                 1014be60     libucrt:87tran.obj
 0002:0001ee6a       __minfinity                1014be6a     libucrt:87tran.obj
 0002:0001ee74       __logemax                  1014be74     libucrt:87tran.obj
 0002:0001ee9a       __OP_EXPjmptab             1014be9a     libucrt:87tran.obj
 0002:0001eec0       __indefinite               1014bec0     libucrt:87disp.obj
 0002:0001eeca       __piby2                    1014beca     libucrt:87disp.obj
 0002:0001eed4       __piby4                    1014bed4     libucrt:87disp.obj
 0002:0001ef08       __DEFAULT_CW_in_mem        1014bf08     libucrt:common.obj
 0002:0001ef0a       __pi_by_2_to_61            1014bf0a     libucrt:common.obj
 0002:0001ef54       ??_C@_1M@HPNHIDJI@?$AAj?$AAa?$AA?9?$AAJ?$AAP@ 1014bf54     libucrt:mbctype.obj
 0002:0001ef60       ??_C@_1M@BIBDDEMK@?$AAz?$AAh?$AA?9?$AAC?$AAN@ 1014bf60     libucrt:mbctype.obj
 0002:0001ef6c       ??_C@_1M@JLOOOEGK@?$AAk?$AAo?$AA?9?$AAK?$AAR@ 1014bf6c     libucrt:mbctype.obj
 0002:0001ef78       ??_C@_1M@CLNBBOPM@?$AAz?$AAh?$AA?9?$AAT?$AAW@ 1014bf78     libucrt:mbctype.obj
 0002:0001ef88       ___acrt_rg_language        1014bf88     libucrt:get_qualified_locale.obj
 0002:0001f294       ___acrt_rg_language_count  1014c294     libucrt:get_qualified_locale.obj
 0002:0001f298       ___acrt_rg_country         1014c298     libucrt:get_qualified_locale.obj
 0002:0001f3ac       ___acrt_rg_country_count   1014c3ac     libucrt:get_qualified_locale.obj
 0002:0001f3b0       ??_C@_1BC@LLOKLNP@?$AAa?$AAm?$AAe?$AAr?$AAi?$AAc?$AAa?$AAn@ 1014c3b0     libucrt:get_qualified_locale.obj
 0002:0001f3c4       ??_C@_1CC@HEIGCDGG@?$AAa?$AAm?$AAe?$AAr?$AAi?$AAc?$AAa?$AAn?$AA?5?$AAe?$AAn?$AAg?$AAl?$AAi?$AAs@ 1014c3c4     libucrt:get_qualified_locale.obj
 0002:0001f3e8       ??_C@_1CC@IHCNOMIN@?$AAa?$AAm?$AAe?$AAr?$AAi?$AAc?$AAa?$AAn?$AA?9?$AAe?$AAn?$AAg?$AAl?$AAi?$AAs@ 1014c3e8     libucrt:get_qualified_locale.obj
 0002:0001f40c       ??_C@_1BG@GKAGPCGG@?$AAa?$AAu?$AAs?$AAt?$AAr?$AAa?$AAl?$AAi?$AAa?$AAn@ 1014c40c     libucrt:get_qualified_locale.obj
 0002:0001f424       ??_C@_1BA@GMENCENF@?$AAb?$AAe?$AAl?$AAg?$AAi?$AAa?$AAn@ 1014c424     libucrt:get_qualified_locale.obj
 0002:0001f434       ??_C@_1BC@PJMIIAAN@?$AAc?$AAa?$AAn?$AAa?$AAd?$AAi?$AAa?$AAn@ 1014c434     libucrt:get_qualified_locale.obj
 0002:0001f448       ??_C@_17NOIMNFBF@?$AAc?$AAh?$AAh@ 1014c448     libucrt:get_qualified_locale.obj
 0002:0001f450       ??_C@_17GGDALCHA@?$AAc?$AAh?$AAi@ 1014c450     libucrt:get_qualified_locale.obj
 0002:0001f458       ??_C@_1BA@NPNJKIBL@?$AAc?$AAh?$AAi?$AAn?$AAe?$AAs?$AAe@ 1014c458     libucrt:get_qualified_locale.obj
 0002:0001f468       ??_C@_1CC@DINBAMMJ@?$AAc?$AAh?$AAi?$AAn?$AAe?$AAs?$AAe?$AA?9?$AAh?$AAo?$AAn?$AAg?$AAk?$AAo?$AAn@ 1014c468     libucrt:get_qualified_locale.obj
 0002:0001f48c       ??_C@_1CG@IOBJPACO@?$AAc?$AAh?$AAi?$AAn?$AAe?$AAs?$AAe?$AA?9?$AAs?$AAi?$AAm?$AAp?$AAl?$AAi?$AAf@ 1014c48c     libucrt:get_qualified_locale.obj
 0002:0001f4b4       ??_C@_1CE@GAJNDCKG@?$AAc?$AAh?$AAi?$AAn?$AAe?$AAs?$AAe?$AA?9?$AAs?$AAi?$AAn?$AAg?$AAa?$AAp?$AAo@ 1014c4b4     libucrt:get_qualified_locale.obj
 0002:0001f4d8       ??_C@_1CI@PAJPIOOD@?$AAc?$AAh?$AAi?$AAn?$AAe?$AAs?$AAe?$AA?9?$AAt?$AAr?$AAa?$AAd?$AAi?$AAt?$AAi@ 1014c4d8     libucrt:get_qualified_locale.obj
 0002:0001f500       ??_C@_1BM@NILJBMMD@?$AAd?$AAu?$AAt?$AAc?$AAh?$AA?9?$AAb?$AAe?$AAl?$AAg?$AAi?$AAa?$AAn@ 1014c500     libucrt:get_qualified_locale.obj
 0002:0001f51c       ??_C@_1CC@OOJPJNEJ@?$AAe?$AAn?$AAg?$AAl?$AAi?$AAs?$AAh?$AA?9?$AAa?$AAm?$AAe?$AAr?$AAi?$AAc?$AAa@ 1014c51c     libucrt:get_qualified_locale.obj
 0002:0001f540       ??_C@_1BI@IOLFEEM@?$AAe?$AAn?$AAg?$AAl?$AAi?$AAs?$AAh?$AA?9?$AAa?$AAu?$AAs@ 1014c540     libucrt:get_qualified_locale.obj
 0002:0001f558       ??_C@_1BO@HFFNLENJ@?$AAe?$AAn?$AAg?$AAl?$AAi?$AAs?$AAh?$AA?9?$AAb?$AAe?$AAl?$AAi?$AAz?$AAe@ 1014c558     libucrt:get_qualified_locale.obj
 0002:0001f578       ??_C@_1BI@HAPKJMPO@?$AAe?$AAn?$AAg?$AAl?$AAi?$AAs?$AAh?$AA?9?$AAc?$AAa?$AAn@ 1014c578     libucrt:get_qualified_locale.obj
 0002:0001f590       ??_C@_1CE@HLNDMIOJ@?$AAe?$AAn?$AAg?$AAl?$AAi?$AAs?$AAh?$AA?9?$AAc?$AAa?$AAr?$AAi?$AAb?$AAb?$AAe@ 1014c590     libucrt:get_qualified_locale.obj
 0002:0001f5b4       ??_C@_1BI@LDHJHHAC@?$AAe?$AAn?$AAg?$AAl?$AAi?$AAs?$AAh?$AA?9?$AAi?$AAr?$AAe@ 1014c5b4     libucrt:get_qualified_locale.obj
 0002:0001f5cc       ??_C@_1CA@NJMMCFOC@?$AAe?$AAn?$AAg?$AAl?$AAi?$AAs?$AAh?$AA?9?$AAj?$AAa?$AAm?$AAa?$AAi?$AAc?$AAa@ 1014c5cc     libucrt:get_qualified_locale.obj
 0002:0001f5ec       ??_C@_1BG@BHJEBBGG@?$AAe?$AAn?$AAg?$AAl?$AAi?$AAs?$AAh?$AA?9?$AAn?$AAz@ 1014c5ec     libucrt:get_qualified_locale.obj
 0002:0001f604       ??_C@_1CK@FGOEJJCO@?$AAe?$AAn?$AAg?$AAl?$AAi?$AAs?$AAh?$AA?9?$AAs?$AAo?$AAu?$AAt?$AAh?$AA?5?$AAa@ 1014c604     libucrt:get_qualified_locale.obj
 0002:0001f630       ??_C@_1DE@PDBJPCJ@?$AAe?$AAn?$AAg?$AAl?$AAi?$AAs?$AAh?$AA?9?$AAt?$AAr?$AAi?$AAn?$AAi?$AAd?$AAa@ 1014c630     libucrt:get_qualified_locale.obj
 0002:0001f664       ??_C@_1BG@JGCANDME@?$AAe?$AAn?$AAg?$AAl?$AAi?$AAs?$AAh?$AA?9?$AAu?$AAk@ 1014c664     libucrt:get_qualified_locale.obj
 0002:0001f67c       ??_C@_1BG@DINKMLE@?$AAe?$AAn?$AAg?$AAl?$AAi?$AAs?$AAh?$AA?9?$AAu?$AAs@ 1014c67c     libucrt:get_qualified_locale.obj
 0002:0001f694       ??_C@_1BI@NMFDBHJE@?$AAe?$AAn?$AAg?$AAl?$AAi?$AAs?$AAh?$AA?9?$AAu?$AAs?$AAa@ 1014c694     libucrt:get_qualified_locale.obj
 0002:0001f6ac       ??_C@_1BO@OIHKJKII@?$AAf?$AAr?$AAe?$AAn?$AAc?$AAh?$AA?9?$AAb?$AAe?$AAl?$AAg?$AAi?$AAa?$AAn@ 1014c6ac     libucrt:get_qualified_locale.obj
 0002:0001f6cc       ??_C@_1CA@NKAELJKI@?$AAf?$AAr?$AAe?$AAn?$AAc?$AAh?$AA?9?$AAc?$AAa?$AAn?$AAa?$AAd?$AAi?$AAa?$AAn@ 1014c6cc     libucrt:get_qualified_locale.obj
 0002:0001f6ec       ??_C@_1CE@MGKCNLGN@?$AAf?$AAr?$AAe?$AAn?$AAc?$AAh?$AA?9?$AAl?$AAu?$AAx?$AAe?$AAm?$AAb?$AAo?$AAu@ 1014c6ec     libucrt:get_qualified_locale.obj
 0002:0001f710       ??_C@_1BK@CEGEAILM@?$AAf?$AAr?$AAe?$AAn?$AAc?$AAh?$AA?9?$AAs?$AAw?$AAi?$AAs?$AAs@ 1014c710     libucrt:get_qualified_locale.obj
 0002:0001f72c       ??_C@_1CA@PAFKEOCC@?$AAg?$AAe?$AAr?$AAm?$AAa?$AAn?$AA?9?$AAa?$AAu?$AAs?$AAt?$AAr?$AAi?$AAa?$AAn@ 1014c72c     libucrt:get_qualified_locale.obj
 0002:0001f74c       ??_C@_1CI@HCFHGOFD@?$AAg?$AAe?$AAr?$AAm?$AAa?$AAn?$AA?9?$AAl?$AAi?$AAc?$AAh?$AAt?$AAe?$AAn?$AAs@ 1014c74c     libucrt:get_qualified_locale.obj
 0002:0001f774       ??_C@_1CE@FEDDNPDG@?$AAg?$AAe?$AAr?$AAm?$AAa?$AAn?$AA?9?$AAl?$AAu?$AAx?$AAe?$AAm?$AAb?$AAo?$AAu@ 1014c774     libucrt:get_qualified_locale.obj
 0002:0001f798       ??_C@_1BK@LIMINNMN@?$AAg?$AAe?$AAr?$AAm?$AAa?$AAn?$AA?9?$AAs?$AAw?$AAi?$AAs?$AAs@ 1014c798     libucrt:get_qualified_locale.obj
 0002:0001f7b4       ??_C@_1BM@LGMDBEPD@?$AAi?$AAr?$AAi?$AAs?$AAh?$AA?9?$AAe?$AAn?$AAg?$AAl?$AAi?$AAs?$AAh@ 1014c7b4     libucrt:get_qualified_locale.obj
 0002:0001f7d0       ??_C@_1BM@NNCFBAEE@?$AAi?$AAt?$AAa?$AAl?$AAi?$AAa?$AAn?$AA?9?$AAs?$AAw?$AAi?$AAs?$AAs@ 1014c7d0     libucrt:get_qualified_locale.obj
 0002:0001f7ec       ??_C@_1BE@FEDJNPIB@?$AAn?$AAo?$AAr?$AAw?$AAe?$AAg?$AAi?$AAa?$AAn@ 1014c7ec     libucrt:get_qualified_locale.obj
 0002:0001f800       ??_C@_1CC@CILKDEIE@?$AAn?$AAo?$AAr?$AAw?$AAe?$AAg?$AAi?$AAa?$AAn?$AA?9?$AAb?$AAo?$AAk?$AAm?$AAa@ 1014c800     libucrt:get_qualified_locale.obj
 0002:0001f824       ??_C@_1CE@DHMMHEPL@?$AAn?$AAo?$AAr?$AAw?$AAe?$AAg?$AAi?$AAa?$AAn?$AA?9?$AAn?$AAy?$AAn?$AAo?$AAr@ 1014c824     libucrt:get_qualified_locale.obj
 0002:0001f848       ??_C@_1CK@OPNMHECD@?$AAp?$AAo?$AAr?$AAt?$AAu?$AAg?$AAu?$AAe?$AAs?$AAe?$AA?9?$AAb?$AAr?$AAa?$AAz@ 1014c848     libucrt:get_qualified_locale.obj
 0002:0001f874       ??_C@_1CE@KEEHCDB@?$AAs?$AAp?$AAa?$AAn?$AAi?$AAs?$AAh?$AA?9?$AAa?$AAr?$AAg?$AAe?$AAn?$AAt?$AAi@ 1014c874     libucrt:get_qualified_locale.obj
 0002:0001f898       ??_C@_1CA@GIAOLHJD@?$AAs?$AAp?$AAa?$AAn?$AAi?$AAs?$AAh?$AA?9?$AAb?$AAo?$AAl?$AAi?$AAv?$AAi?$AAa@ 1014c898     libucrt:get_qualified_locale.obj
 0002:0001f8b8       ??_C@_1BM@OJNDFNPD@?$AAs?$AAp?$AAa?$AAn?$AAi?$AAs?$AAh?$AA?9?$AAc?$AAh?$AAi?$AAl?$AAe@ 1014c8b8     libucrt:get_qualified_locale.obj
 0002:0001f8d4       ??_C@_1CC@OCOLPALL@?$AAs?$AAp?$AAa?$AAn?$AAi?$AAs?$AAh?$AA?9?$AAc?$AAo?$AAl?$AAo?$AAm?$AAb?$AAi@ 1014c8d4     libucrt:get_qualified_locale.obj
 0002:0001f8f8       ??_C@_1CG@BPOFMKBB@?$AAs?$AAp?$AAa?$AAn?$AAi?$AAs?$AAh?$AA?9?$AAc?$AAo?$AAs?$AAt?$AAa?$AA?5?$AAr@ 1014c8f8     libucrt:get_qualified_locale.obj
 0002:0001f920       ??_C@_1DG@IGOBAPBB@?$AAs?$AAp?$AAa?$AAn?$AAi?$AAs?$AAh?$AA?9?$AAd?$AAo?$AAm?$AAi?$AAn?$AAi?$AAc@ 1014c920     libucrt:get_qualified_locale.obj
 0002:0001f958       ??_C@_1CA@JHAPGEGI@?$AAs?$AAp?$AAa?$AAn?$AAi?$AAs?$AAh?$AA?9?$AAe?$AAc?$AAu?$AAa?$AAd?$AAo?$AAr@ 1014c958     libucrt:get_qualified_locale.obj
 0002:0001f978       ??_C@_1CI@LAPALJPP@?$AAs?$AAp?$AAa?$AAn?$AAi?$AAs?$AAh?$AA?9?$AAe?$AAl?$AA?5?$AAs?$AAa?$AAl?$AAv@ 1014c978     libucrt:get_qualified_locale.obj
 0002:0001f9a0       ??_C@_1CE@PDGBOFOM@?$AAs?$AAp?$AAa?$AAn?$AAi?$AAs?$AAh?$AA?9?$AAg?$AAu?$AAa?$AAt?$AAe?$AAm?$AAa@ 1014c9a0     libucrt:get_qualified_locale.obj
 0002:0001f9c4       ??_C@_1CC@NBEBAODI@?$AAs?$AAp?$AAa?$AAn?$AAi?$AAs?$AAh?$AA?9?$AAh?$AAo?$AAn?$AAd?$AAu?$AAr?$AAa@ 1014c9c4     libucrt:get_qualified_locale.obj
 0002:0001f9e8       ??_C@_1CA@LLKGHBMF@?$AAs?$AAp?$AAa?$AAn?$AAi?$AAs?$AAh?$AA?9?$AAm?$AAe?$AAx?$AAi?$AAc?$AAa?$AAn@ 1014c9e8     libucrt:get_qualified_locale.obj
 0002:0001fa08       ??_C@_1BO@LKNDOIGD@?$AAs?$AAp?$AAa?$AAn?$AAi?$AAs?$AAh?$AA?9?$AAm?$AAo?$AAd?$AAe?$AAr?$AAn@ 1014ca08     libucrt:get_qualified_locale.obj
 0002:0001fa28       ??_C@_1CE@NMDMOEEB@?$AAs?$AAp?$AAa?$AAn?$AAi?$AAs?$AAh?$AA?9?$AAn?$AAi?$AAc?$AAa?$AAr?$AAa?$AAg@ 1014ca28     libucrt:get_qualified_locale.obj
 0002:0001fa4c       ??_C@_1BO@LLCBEJGB@?$AAs?$AAp?$AAa?$AAn?$AAi?$AAs?$AAh?$AA?9?$AAp?$AAa?$AAn?$AAa?$AAm?$AAa@ 1014ca4c     libucrt:get_qualified_locale.obj
 0002:0001fa6c       ??_C@_1CC@FKPGGIHO@?$AAs?$AAp?$AAa?$AAn?$AAi?$AAs?$AAh?$AA?9?$AAp?$AAa?$AAr?$AAa?$AAg?$AAu?$AAa@ 1014ca6c     libucrt:get_qualified_locale.obj
 0002:0001fa90       ??_C@_1BK@CDEIHOOP@?$AAs?$AAp?$AAa?$AAn?$AAi?$AAs?$AAh?$AA?9?$AAp?$AAe?$AAr?$AAu@ 1014ca90     libucrt:get_qualified_locale.obj
 0002:0001faac       ??_C@_1CI@GAHAKKGP@?$AAs?$AAp?$AAa?$AAn?$AAi?$AAs?$AAh?$AA?9?$AAp?$AAu?$AAe?$AAr?$AAt?$AAo?$AA?5@ 1014caac     libucrt:get_qualified_locale.obj
 0002:0001fad4       ??_C@_1CA@NKJBCAGP@?$AAs?$AAp?$AAa?$AAn?$AAi?$AAs?$AAh?$AA?9?$AAu?$AAr?$AAu?$AAg?$AAu?$AAa?$AAy@ 1014cad4     libucrt:get_qualified_locale.obj
 0002:0001faf4       ??_C@_1CE@ODILCONM@?$AAs?$AAp?$AAa?$AAn?$AAi?$AAs?$AAh?$AA?9?$AAv?$AAe?$AAn?$AAe?$AAz?$AAu?$AAe@ 1014caf4     libucrt:get_qualified_locale.obj
 0002:0001fb18       ??_C@_1CA@OBNMCGFO@?$AAs?$AAw?$AAe?$AAd?$AAi?$AAs?$AAh?$AA?9?$AAf?$AAi?$AAn?$AAl?$AAa?$AAn?$AAd@ 1014cb18     libucrt:get_qualified_locale.obj
 0002:0001fb38       ??_C@_1M@PIPDDPPI@?$AAs?$AAw?$AAi?$AAs?$AAs@ 1014cb38     libucrt:get_qualified_locale.obj
 0002:0001fb44       ??_C@_15PJPFLCCM@?$AAu?$AAk@ 1014cb44     libucrt:get_qualified_locale.obj
 0002:0001fb4c       ??_C@_15GMFIMNFM@?$AAu?$AAs@ 1014cb4c     libucrt:get_qualified_locale.obj
 0002:0001fb54       ??_C@_17HAEBFAGL@?$AAu?$AAs?$AAa@ 1014cb54     libucrt:get_qualified_locale.obj
 0002:0001fb5c       ??_C@_1BA@DPFJEPHB@?$AAa?$AAm?$AAe?$AAr?$AAi?$AAc?$AAa@ 1014cb5c     libucrt:get_qualified_locale.obj
 0002:0001fb6c       ??_C@_1BA@ELOGGFK@?$AAb?$AAr?$AAi?$AAt?$AAa?$AAi?$AAn@ 1014cb6c     libucrt:get_qualified_locale.obj
 0002:0001fb7c       ??_C@_1M@GHBGIGDA@?$AAc?$AAh?$AAi?$AAn?$AAa@ 1014cb7c     libucrt:get_qualified_locale.obj
 0002:0001fb88       ??_C@_1M@NCHEJOPO@?$AAc?$AAz?$AAe?$AAc?$AAh@ 1014cb88     libucrt:get_qualified_locale.obj
 0002:0001fb94       ??_C@_1BA@BKPAPBLA@?$AAe?$AAn?$AAg?$AAl?$AAa?$AAn?$AAd@ 1014cb94     libucrt:get_qualified_locale.obj
 0002:0001fba4       ??_C@_1BM@HKBCKIPC@?$AAg?$AAr?$AAe?$AAa?$AAt?$AA?5?$AAb?$AAr?$AAi?$AAt?$AAa?$AAi?$AAn@ 1014cba4     libucrt:get_qualified_locale.obj
 0002:0001fbc0       ??_C@_1BA@PPCHPGJB@?$AAh?$AAo?$AAl?$AAl?$AAa?$AAn?$AAd@ 1014cbc0     libucrt:get_qualified_locale.obj
 0002:0001fbd0       ??_C@_1BE@JBMPEGDG@?$AAh?$AAo?$AAn?$AAg?$AA?9?$AAk?$AAo?$AAn?$AAg@ 1014cbd0     libucrt:get_qualified_locale.obj
 0002:0001fbe4       ??_C@_1BI@KOELBBPJ@?$AAn?$AAe?$AAw?$AA?9?$AAz?$AAe?$AAa?$AAl?$AAa?$AAn?$AAd@ 1014cbe4     libucrt:get_qualified_locale.obj
 0002:0001fbfc       ??_C@_15HIEBHAIO@?$AAn?$AAz@ 1014cbfc     libucrt:get_qualified_locale.obj
 0002:0001fc04       ??_C@_1BC@CHBCPFPI@?$AAp?$AAr?$AA?5?$AAc?$AAh?$AAi?$AAn?$AAa@ 1014cc04     libucrt:get_qualified_locale.obj
 0002:0001fc18       ??_C@_1BC@JAOIIFKD@?$AAp?$AAr?$AA?9?$AAc?$AAh?$AAi?$AAn?$AAa@ 1014cc18     libucrt:get_qualified_locale.obj
 0002:0001fc2c       ??_C@_1BI@BEHPPHKC@?$AAp?$AAu?$AAe?$AAr?$AAt?$AAo?$AA?9?$AAr?$AAi?$AAc?$AAo@ 1014cc2c     libucrt:get_qualified_locale.obj
 0002:0001fc44       ??_C@_1O@PAEOFKDI@?$AAs?$AAl?$AAo?$AAv?$AAa?$AAk@ 1014cc44     libucrt:get_qualified_locale.obj
 0002:0001fc54       ??_C@_1BK@FIHMCKAM@?$AAs?$AAo?$AAu?$AAt?$AAh?$AA?5?$AAa?$AAf?$AAr?$AAi?$AAc?$AAa@ 1014cc54     libucrt:get_qualified_locale.obj
 0002:0001fc70       ??_C@_1BI@NAEOODKB@?$AAs?$AAo?$AAu?$AAt?$AAh?$AA?5?$AAk?$AAo?$AAr?$AAe?$AAa@ 1014cc70     libucrt:get_qualified_locale.obj
 0002:0001fc88       ??_C@_1BK@FBDGGIFF@?$AAs?$AAo?$AAu?$AAt?$AAh?$AA?9?$AAa?$AAf?$AAr?$AAi?$AAc?$AAa@ 1014cc88     libucrt:get_qualified_locale.obj
 0002:0001fca4       ??_C@_1BI@GHLEJDPK@?$AAs?$AAo?$AAu?$AAt?$AAh?$AA?9?$AAk?$AAo?$AAr?$AAe?$AAa@ 1014cca4     libucrt:get_qualified_locale.obj
 0002:0001fcbc       ??_C@_1CE@PLHLOMJF@?$AAt?$AAr?$AAi?$AAn?$AAi?$AAd?$AAa?$AAd?$AA?5?$AA?$CG?$AA?5?$AAt?$AAo?$AAb?$AAa@ 1014ccbc     libucrt:get_qualified_locale.obj
 0002:0001fce0       ??_C@_1BO@MODIMHHI@?$AAu?$AAn?$AAi?$AAt?$AAe?$AAd?$AA?9?$AAk?$AAi?$AAn?$AAg?$AAd?$AAo?$AAm@ 1014cce0     libucrt:get_qualified_locale.obj
 0002:0001fd00       ??_C@_1BM@FFHJONBJ@?$AAu?$AAn?$AAi?$AAt?$AAe?$AAd?$AA?9?$AAs?$AAt?$AAa?$AAt?$AAe?$AAs@ 1014cd00     libucrt:get_qualified_locale.obj
 0002:0001fd1c       ??_C@_19MPDNHKDG@?$AAu?$AAt?$AAf?$AA8@ 1014cd1c     libucrt:get_qualified_locale.obj
 0002:0001fd28       ??_C@_17DNCLJFIF@?$AAA?$AAC?$AAP@ 1014cd28     libucrt:get_qualified_locale.obj
 0002:0001fd30       ??_C@_1M@FPEIIFAM@?$AAu?$AAt?$AAf?$AA?9?$AA8@ 1014cd30     libucrt:get_qualified_locale.obj
 0002:0001fd3c       ??_C@_17CIKBIHLH@?$AAO?$AAC?$AAP@ 1014cd3c     libucrt:get_qualified_locale.obj
 0002:0001fd44       ___rglangidNotDefault      1014cd44     libucrt:getqloc_downlevel.obj
 0002:00020478       ??_C@_15EMKDOKLE@?$AAa?$AAr@ 1014d478     libucrt:lcidtoname_downlevel.obj
 0002:00020480       ??_C@_15KNPADPLH@?$AAb?$AAg@ 1014d480     libucrt:lcidtoname_downlevel.obj
 0002:00020488       ??_C@_15EDMHLDMO@?$AAc?$AAa@ 1014d488     libucrt:lcidtoname_downlevel.obj
 0002:00020490       ??_C@_1O@BPEAJADD@?$AAz?$AAh?$AA?9?$AAC?$AAH?$AAS@ 1014d490     libucrt:lcidtoname_downlevel.obj
 0002:000204a0       ??_C@_15LJNHCMNK@?$AAc?$AAs@ 1014d4a0     libucrt:lcidtoname_downlevel.obj
 0002:000204a8       ??_C@_15FOMCIDHG@?$AAd?$AAa@ 1014d4a8     libucrt:lcidtoname_downlevel.obj
 0002:000204b0       ??_C@_15NBKABECB@?$AAd?$AAe@ 1014d4b0     libucrt:lcidtoname_downlevel.obj
 0002:000204b8       ??_C@_15GHPEIIAO@?$AAe?$AAl@ 1014d4b8     libucrt:lcidtoname_downlevel.obj
 0002:000204c0       ??_C@_15MNPNEAIF@?$AAe?$AAn@ 1014d4c0     libucrt:lcidtoname_downlevel.obj
 0002:000204c8       ??_C@_15GPIOMPMH@?$AAe?$AAs@ 1014d4c8     libucrt:lcidtoname_downlevel.obj
 0002:000204d0       ??_C@_15NGLOAKJC@?$AAf?$AAi@ 1014d4d0     libucrt:lcidtoname_downlevel.obj
 0002:000204d8       ??_C@_15FBKGNKAM@?$AAf?$AAr@ 1014d4d8     libucrt:lcidtoname_downlevel.obj
 0002:000204e0       ??_C@_15KGGCNEFK@?$AAh?$AAe@ 1014d4e0     libucrt:lcidtoname_downlevel.obj
 0002:000204e8       ??_C@_15PGHLIDMF@?$AAh?$AAu@ 1014d4e8     libucrt:lcidtoname_downlevel.obj
 0002:000204f0       ??_C@_15BIEMAPLM@?$AAi?$AAs@ 1014d4f0     libucrt:lcidtoname_downlevel.obj
 0002:000204f8       ??_C@_15IFJLDHAF@?$AAi?$AAt@ 1014d4f8     libucrt:lcidtoname_downlevel.obj
 0002:00020500       ??_C@_15GEMIOCAG@?$AAj?$AAa@ 1014d500     libucrt:lcidtoname_downlevel.obj
 0002:00020508       ??_C@_15EPELEGJA@?$AAk?$AAo@ 1014d508     libucrt:lcidtoname_downlevel.obj
 0002:00020510       ??_C@_15NDDHIMN@?$AAn?$AAl@ 1014d510     libucrt:lcidtoname_downlevel.obj
 0002:00020518       ??_C@_15BPIGNHCD@?$AAn?$AAo@ 1014d518     libucrt:lcidtoname_downlevel.obj
 0002:00020520       ??_C@_15DEOPBLCG@?$AAp?$AAl@ 1014d520     libucrt:lcidtoname_downlevel.obj
 0002:00020528       ??_C@_15KBECGEFG@?$AAp?$AAt@ 1014d528     libucrt:lcidtoname_downlevel.obj
 0002:00020530       ??_C@_15GLJCBFMD@?$AAr?$AAo@ 1014d530     libucrt:lcidtoname_downlevel.obj
 0002:00020538       ??_C@_15FEDGKCDI@?$AAr?$AAu@ 1014d538     libucrt:lcidtoname_downlevel.obj
 0002:00020540       ??_C@_15GLKMLLHM@?$AAh?$AAr@ 1014d540     libucrt:lcidtoname_downlevel.obj
 0002:00020548       ??_C@_15CPKMFBDB@?$AAs?$AAk@ 1014d548     libucrt:lcidtoname_downlevel.obj
 0002:00020550       ??_C@_15BAAIOGMK@?$AAs?$AAq@ 1014d550     libucrt:lcidtoname_downlevel.obj
 0002:00020558       ??_C@_15INNPNOHD@?$AAs?$AAv@ 1014d558     libucrt:lcidtoname_downlevel.obj
 0002:00020560       ??_C@_15CABMMOGH@?$AAt?$AAh@ 1014d560     libucrt:lcidtoname_downlevel.obj
 0002:00020568       ??_C@_15BPLIHJJM@?$AAt?$AAr@ 1014d568     libucrt:lcidtoname_downlevel.obj
 0002:00020570       ??_C@_15NEOEKKDJ@?$AAu?$AAr@ 1014d570     libucrt:lcidtoname_downlevel.obj
 0002:00020578       ??_C@_15NFICGAJK@?$AAi?$AAd@ 1014d578     libucrt:lcidtoname_downlevel.obj
 0002:00020580       ??_C@_15HPJPHDM@?$AAb?$AAe@ 1014d580     libucrt:lcidtoname_downlevel.obj
 0002:00020588       ??_C@_15LCHLGJII@?$AAs?$AAl@ 1014d588     libucrt:lcidtoname_downlevel.obj
 0002:00020590       ??_C@_15PCFJPHHO@?$AAe?$AAt@ 1014d590     libucrt:lcidtoname_downlevel.obj
 0002:00020598       ??_C@_15HPFPGODN@?$AAl?$AAv@ 1014d598     libucrt:lcidtoname_downlevel.obj
 0002:000205a0       ??_C@_15NFFGKGLG@?$AAl?$AAt@ 1014d5a0     libucrt:lcidtoname_downlevel.obj
 0002:000205a8       ??_C@_15BDAKCCHN@?$AAf?$AAa@ 1014d5a8     libucrt:lcidtoname_downlevel.obj
 0002:000205b0       ??_C@_15NFGIAIAJ@?$AAv?$AAi@ 1014d5b0     libucrt:lcidtoname_downlevel.obj
 0002:000205b8       ??_C@_15LMKNDMHN@?$AAh?$AAy@ 1014d5b8     libucrt:lcidtoname_downlevel.obj
 0002:000205c0       ??_C@_15IJBHMCFL@?$AAa?$AAz@ 1014d5c0     libucrt:lcidtoname_downlevel.obj
 0002:000205c8       ??_C@_15EKOFJABL@?$AAe?$AAu@ 1014d5c8     libucrt:lcidtoname_downlevel.obj
 0002:000205d0       ??_C@_15BGHADCNK@?$AAm?$AAk@ 1014d5d0     libucrt:lcidtoname_downlevel.obj
 0002:000205d8       ??_C@_15JDNICKHM@?$AAa?$AAf@ 1014d5d8     libucrt:lcidtoname_downlevel.obj
 0002:000205e0       ??_C@_15KPJEDBKD@?$AAk?$AAa@ 1014d5e0     libucrt:lcidtoname_downlevel.obj
 0002:000205e8       ??_C@_15PDNFFFEO@?$AAf?$AAo@ 1014d5e8     libucrt:lcidtoname_downlevel.obj
 0002:000205f0       ??_C@_15OMLEGLOC@?$AAh?$AAi@ 1014d5f0     libucrt:lcidtoname_downlevel.obj
 0002:000205f8       ??_C@_15IDNNENKK@?$AAm?$AAs@ 1014d5f8     libucrt:lcidtoname_downlevel.obj
 0002:00020600       ??_C@_15MACJNBMH@?$AAk?$AAk@ 1014d600     libucrt:lcidtoname_downlevel.obj
 0002:00020608       ??_C@_15DKDJEOND@?$AAk?$AAy@ 1014d608     libucrt:lcidtoname_downlevel.obj
 0002:00020610       ??_C@_15DFGDLJBG@?$AAs?$AAw@ 1014d610     libucrt:lcidtoname_downlevel.obj
 0002:00020618       ??_C@_15BBFAICNG@?$AAu?$AAz@ 1014d618     libucrt:lcidtoname_downlevel.obj
 0002:00020620       ??_C@_15DKNDCGEA@?$AAt?$AAt@ 1014d620     libucrt:lcidtoname_downlevel.obj
 0002:00020628       ??_C@_15MGIFMDPL@?$AAp?$AAa@ 1014d628     libucrt:lcidtoname_downlevel.obj
 0002:00020630       ??_C@_15HCNDBBA@?$AAg?$AAu@ 1014d630     libucrt:lcidtoname_downlevel.obj
 0002:00020638       ??_C@_15FNBEIBON@?$AAt?$AAa@ 1014d638     libucrt:lcidtoname_downlevel.obj
 0002:00020640       ??_C@_15NCHGBGLK@?$AAt?$AAe@ 1014d640     libucrt:lcidtoname_downlevel.obj
 0002:00020648       ??_C@_15PHPHCBPF@?$AAk?$AAn@ 1014d648     libucrt:lcidtoname_downlevel.obj
 0002:00020650       ??_C@_15DLGBCKMP@?$AAm?$AAr@ 1014d650     libucrt:lcidtoname_downlevel.obj
 0002:00020658       ??_C@_15EABBLBFF@?$AAs?$AAa@ 1014d658     libucrt:lcidtoname_downlevel.obj
 0002:00020660       ??_C@_15CBKOMCOI@?$AAm?$AAn@ 1014d660     libucrt:lcidtoname_downlevel.obj
 0002:00020668       ??_C@_15CKDMCJAF@?$AAg?$AAl@ 1014d668     libucrt:lcidtoname_downlevel.obj
 0002:00020670       ??_C@_17CNJFBPG@?$AAk?$AAo?$AAk@ 1014d670     libucrt:lcidtoname_downlevel.obj
 0002:00020678       ??_C@_17FFBJICPL@?$AAs?$AAy?$AAr@ 1014d678     libucrt:lcidtoname_downlevel.obj
 0002:00020680       ??_C@_17KPNDCPAF@?$AAd?$AAi?$AAv@ 1014d680     libucrt:lcidtoname_downlevel.obj
 0002:00020688       ??_C@_1M@OKAHONE@?$AAa?$AAr?$AA?9?$AAS?$AAA@ 1014d688     libucrt:lcidtoname_downlevel.obj
 0002:00020694       ??_C@_1M@FFFIGIGK@?$AAb?$AAg?$AA?9?$AAB?$AAG@ 1014d694     libucrt:lcidtoname_downlevel.obj
 0002:000206a0       ??_C@_1M@BJNKEDC@?$AAc?$AAa?$AA?9?$AAE?$AAS@ 1014d6a0     libucrt:lcidtoname_downlevel.obj
 0002:000206ac       ??_C@_1M@IJJHFJHA@?$AAc?$AAs?$AA?9?$AAC?$AAZ@ 1014d6ac     libucrt:lcidtoname_downlevel.obj
 0002:000206b8       ??_C@_1M@CLPEOBGI@?$AAd?$AAa?$AA?9?$AAD?$AAK@ 1014d6b8     libucrt:lcidtoname_downlevel.obj
 0002:000206c4       ??_C@_1M@MCMADGCB@?$AAd?$AAe?$AA?9?$AAD?$AAE@ 1014d6c4     libucrt:lcidtoname_downlevel.obj
 0002:000206d0       ??_C@_1M@OOCKEMAM@?$AAe?$AAl?$AA?9?$AAG?$AAR@ 1014d6d0     libucrt:lcidtoname_downlevel.obj
 0002:000206dc       ??_C@_1M@DDNJFGID@?$AAf?$AAi?$AA?9?$AAF?$AAI@ 1014d6dc     libucrt:lcidtoname_downlevel.obj
 0002:000206e8       ??_C@_1M@GLIPPMAC@?$AAf?$AAr?$AA?9?$AAF?$AAR@ 1014d6e8     libucrt:lcidtoname_downlevel.obj
 0002:000206f4       ??_C@_1M@GFMCHPE@?$AAh?$AAe?$AA?9?$AAI?$AAL@ 1014d6f4     libucrt:lcidtoname_downlevel.obj
 0002:00020700       ??_C@_1M@MHLPGNKM@?$AAh?$AAu?$AA?9?$AAH?$AAU@ 1014d700     libucrt:lcidtoname_downlevel.obj
 0002:0002070c       ??_C@_1M@LPDDNNPN@?$AAi?$AAs?$AA?9?$AAI?$AAS@ 1014d70c     libucrt:lcidtoname_downlevel.obj
 0002:00020718       ??_C@_1M@MADIPODN@?$AAi?$AAt?$AA?9?$AAI?$AAT@ 1014d718     libucrt:lcidtoname_downlevel.obj
 0002:00020724       ??_C@_1M@IHBJJGG@?$AAn?$AAl?$AA?9?$AAN?$AAL@ 1014d724     libucrt:lcidtoname_downlevel.obj
 0002:00020730       ??_C@_1M@EANAGDL@?$AAn?$AAb?$AA?9?$AAN?$AAO@ 1014d730     libucrt:lcidtoname_downlevel.obj
 0002:0002073c       ??_C@_1M@NEIEMEGP@?$AAp?$AAl?$AA?9?$AAP?$AAL@ 1014d73c     libucrt:lcidtoname_downlevel.obj
 0002:00020748       ??_C@_1M@BOCFIGEP@?$AAp?$AAt?$AA?9?$AAB?$AAR@ 1014d748     libucrt:lcidtoname_downlevel.obj
 0002:00020754       ??_C@_1M@IMPFOPBG@?$AAr?$AAo?$AA?9?$AAR?$AAO@ 1014d754     libucrt:lcidtoname_downlevel.obj
 0002:00020760       ??_C@_1M@IDNNEJMM@?$AAr?$AAu?$AA?9?$AAR?$AAU@ 1014d760     libucrt:lcidtoname_downlevel.obj
 0002:0002076c       ??_C@_1M@LILEEOGM@?$AAh?$AAr?$AA?9?$AAH?$AAR@ 1014d76c     libucrt:lcidtoname_downlevel.obj
 0002:00020778       ??_C@_1M@FKIFEHPB@?$AAs?$AAk?$AA?9?$AAS?$AAK@ 1014d778     libucrt:lcidtoname_downlevel.obj
 0002:00020784       ??_C@_1M@LJMAMNPJ@?$AAs?$AAq?$AA?9?$AAA?$AAL@ 1014d784     libucrt:lcidtoname_downlevel.obj
 0002:00020790       ??_C@_1M@GIAKDKJK@?$AAs?$AAv?$AA?9?$AAS?$AAE@ 1014d790     libucrt:lcidtoname_downlevel.obj
 0002:0002079c       ??_C@_1M@MKJKIKCL@?$AAt?$AAh?$AA?9?$AAT?$AAH@ 1014d79c     libucrt:lcidtoname_downlevel.obj
 0002:000207a8       ??_C@_1M@MFLCCMPB@?$AAt?$AAr?$AA?9?$AAT?$AAR@ 1014d7a8     libucrt:lcidtoname_downlevel.obj
 0002:000207b4       ??_C@_1M@OIJHDKJN@?$AAu?$AAr?$AA?9?$AAP?$AAK@ 1014d7b4     libucrt:lcidtoname_downlevel.obj
 0002:000207c0       ??_C@_1M@LHIPCIEK@?$AAi?$AAd?$AA?9?$AAI?$AAD@ 1014d7c0     libucrt:lcidtoname_downlevel.obj
 0002:000207cc       ??_C@_1M@MFMOBGI@?$AAu?$AAk?$AA?9?$AAU?$AAA@ 1014d7cc     libucrt:lcidtoname_downlevel.obj
 0002:000207d8       ??_C@_1M@OBGLJIPL@?$AAb?$AAe?$AA?9?$AAB?$AAY@ 1014d7d8     libucrt:lcidtoname_downlevel.obj
 0002:000207e4       ??_C@_1M@BCFAJEAD@?$AAs?$AAl?$AA?9?$AAS?$AAI@ 1014d7e4     libucrt:lcidtoname_downlevel.obj
 0002:000207f0       ??_C@_1M@FKFFEDDN@?$AAe?$AAt?$AA?9?$AAE?$AAE@ 1014d7f0     libucrt:lcidtoname_downlevel.obj
 0002:000207fc       ??_C@_1M@KGKKAACI@?$AAl?$AAv?$AA?9?$AAL?$AAV@ 1014d7fc     libucrt:lcidtoname_downlevel.obj
 0002:00020808       ??_C@_1M@IFGBIJO@?$AAl?$AAt?$AA?9?$AAL?$AAT@ 1014d808     libucrt:lcidtoname_downlevel.obj
 0002:00020814       ??_C@_1M@FGEAHEDM@?$AAf?$AAa?$AA?9?$AAI?$AAR@ 1014d814     libucrt:lcidtoname_downlevel.obj
 0002:00020820       ??_C@_1M@KBMAIBFN@?$AAv?$AAi?$AA?9?$AAV?$AAN@ 1014d820     libucrt:lcidtoname_downlevel.obj
 0002:0002082c       ??_C@_1M@GPCBKDJK@?$AAh?$AAy?$AA?9?$AAA?$AAM@ 1014d82c     libucrt:lcidtoname_downlevel.obj
 0002:00020838       ??_C@_1BG@BECMDDJB@?$AAa?$AAz?$AA?9?$AAA?$AAZ?$AA?9?$AAL?$AAa?$AAt?$AAn@ 1014d838     libucrt:lcidtoname_downlevel.obj
 0002:00020850       ??_C@_1M@MAOFCAEA@?$AAe?$AAu?$AA?9?$AAE?$AAS@ 1014d850     libucrt:lcidtoname_downlevel.obj
 0002:0002085c       ??_C@_1M@IGHABKPI@?$AAm?$AAk?$AA?9?$AAM?$AAK@ 1014d85c     libucrt:lcidtoname_downlevel.obj
 0002:00020868       ??_C@_1M@IAIGNEJG@?$AAt?$AAn?$AA?9?$AAZ?$AAA@ 1014d868     libucrt:lcidtoname_downlevel.obj
 0002:00020874       ??_C@_1M@IIJCOJFA@?$AAx?$AAh?$AA?9?$AAZ?$AAA@ 1014d874     libucrt:lcidtoname_downlevel.obj
 0002:00020880       ??_C@_1M@LGPJHNJH@?$AAz?$AAu?$AA?9?$AAZ?$AAA@ 1014d880     libucrt:lcidtoname_downlevel.obj
 0002:0002088c       ??_C@_1M@HOKAOIO@?$AAa?$AAf?$AA?9?$AAZ?$AAA@ 1014d88c     libucrt:lcidtoname_downlevel.obj
 0002:00020898       ??_C@_1M@DPCLHLIE@?$AAk?$AAa?$AA?9?$AAG?$AAE@ 1014d898     libucrt:lcidtoname_downlevel.obj
 0002:000208a4       ??_C@_1M@BLKMHJBI@?$AAf?$AAo?$AA?9?$AAF?$AAO@ 1014d8a4     libucrt:lcidtoname_downlevel.obj
 0002:000208b0       ??_C@_1M@LGGJAPPB@?$AAh?$AAi?$AA?9?$AAI?$AAN@ 1014d8b0     libucrt:lcidtoname_downlevel.obj
 0002:000208bc       ??_C@_1M@FIKPIHFE@?$AAm?$AAt?$AA?9?$AAM?$AAT@ 1014d8bc     libucrt:lcidtoname_downlevel.obj
 0002:000208c8       ??_C@_1M@HEGGPBFA@?$AAs?$AAe?$AA?9?$AAN?$AAO@ 1014d8c8     libucrt:lcidtoname_downlevel.obj
 0002:000208d4       ??_C@_1M@EIBJEEPA@?$AAm?$AAs?$AA?9?$AAM?$AAY@ 1014d8d4     libucrt:lcidtoname_downlevel.obj
 0002:000208e0       ??_C@_1M@FHLBGMPP@?$AAk?$AAk?$AA?9?$AAK?$AAZ@ 1014d8e0     libucrt:lcidtoname_downlevel.obj
 0002:000208ec       ??_C@_1M@NGJJLCGI@?$AAk?$AAy?$AA?9?$AAK?$AAG@ 1014d8ec     libucrt:lcidtoname_downlevel.obj
 0002:000208f8       ??_C@_1M@GIENNBFC@?$AAs?$AAw?$AA?9?$AAK?$AAE@ 1014d8f8     libucrt:lcidtoname_downlevel.obj
 0002:00020904       ??_C@_1BG@NDGMJIMJ@?$AAu?$AAz?$AA?9?$AAU?$AAZ?$AA?9?$AAL?$AAa?$AAt?$AAn@ 1014d904     libucrt:lcidtoname_downlevel.obj
 0002:0002091c       ??_C@_1M@IDCCIHBC@?$AAt?$AAt?$AA?9?$AAR?$AAU@ 1014d91c     libucrt:lcidtoname_downlevel.obj
 0002:00020928       ??_C@_1M@LOICPMOJ@?$AAb?$AAn?$AA?9?$AAI?$AAN@ 1014d928     libucrt:lcidtoname_downlevel.obj
 0002:00020934       ??_C@_1M@KPKKNEAH@?$AAp?$AAa?$AA?9?$AAI?$AAN@ 1014d934     libucrt:lcidtoname_downlevel.obj
 0002:00020940       ??_C@_1M@PJGPPBOG@?$AAg?$AAu?$AA?9?$AAI?$AAN@ 1014d940     libucrt:lcidtoname_downlevel.obj
 0002:0002094c       ??_C@_1M@KMKMOPHI@?$AAt?$AAa?$AA?9?$AAI?$AAN@ 1014d94c     libucrt:lcidtoname_downlevel.obj
 0002:00020958       ??_C@_1M@KFEHEPAC@?$AAt?$AAe?$AA?9?$AAI?$AAN@ 1014d958     libucrt:lcidtoname_downlevel.obj
 0002:00020964       ??_C@_1M@CDCLMGHI@?$AAk?$AAn?$AA?9?$AAI?$AAN@ 1014d964     libucrt:lcidtoname_downlevel.obj
 0002:00020970       ??_C@_1M@MIODLDKF@?$AAm?$AAl?$AA?9?$AAI?$AAN@ 1014d970     libucrt:lcidtoname_downlevel.obj
 0002:0002097c       ??_C@_1M@PBIEACPO@?$AAm?$AAr?$AA?9?$AAI?$AAN@ 1014d97c     libucrt:lcidtoname_downlevel.obj
 0002:00020988       ??_C@_1M@NIDEAGPH@?$AAs?$AAa?$AA?9?$AAI?$AAN@ 1014d988     libucrt:lcidtoname_downlevel.obj
 0002:00020994       ??_C@_1M@FHIHCBIO@?$AAm?$AAn?$AA?9?$AAM?$AAN@ 1014d994     libucrt:lcidtoname_downlevel.obj
 0002:000209a0       ??_C@_1M@JAIJPENP@?$AAc?$AAy?$AA?9?$AAG?$AAB@ 1014d9a0     libucrt:lcidtoname_downlevel.obj
 0002:000209ac       ??_C@_1M@PHGFBEPN@?$AAg?$AAl?$AA?9?$AAE?$AAS@ 1014d9ac     libucrt:lcidtoname_downlevel.obj
 0002:000209b8       ??_C@_1O@KPIPDNCP@?$AAk?$AAo?$AAk?$AA?9?$AAI?$AAN@ 1014d9b8     libucrt:lcidtoname_downlevel.obj
 0002:000209c8       ??_C@_1O@KNHJLDJA@?$AAs?$AAy?$AAr?$AA?9?$AAS?$AAY@ 1014d9c8     libucrt:lcidtoname_downlevel.obj
 0002:000209d8       ??_C@_1O@MKEKBLAH@?$AAd?$AAi?$AAv?$AA?9?$AAM?$AAV@ 1014d9d8     libucrt:lcidtoname_downlevel.obj
 0002:000209e8       ??_C@_1O@OHDCKDDF@?$AAq?$AAu?$AAz?$AA?9?$AAB?$AAO@ 1014d9e8     libucrt:lcidtoname_downlevel.obj
 0002:000209f8       ??_C@_1M@LEPJNLFD@?$AAn?$AAs?$AA?9?$AAZ?$AAA@ 1014d9f8     libucrt:lcidtoname_downlevel.obj
 0002:00020a04       ??_C@_1M@OMLEIIJB@?$AAm?$AAi?$AA?9?$AAN?$AAZ@ 1014da04     libucrt:lcidtoname_downlevel.obj
 0002:00020a10       ??_C@_1M@PMPEAILG@?$AAa?$AAr?$AA?9?$AAI?$AAQ@ 1014da10     libucrt:lcidtoname_downlevel.obj
 0002:00020a1c       ??_C@_1M@CNKPNOEE@?$AAd?$AAe?$AA?9?$AAC?$AAH@ 1014da1c     libucrt:lcidtoname_downlevel.obj
 0002:00020a28       ??_C@_1M@LKMGMLKO@?$AAe?$AAn?$AA?9?$AAG?$AAB@ 1014da28     libucrt:lcidtoname_downlevel.obj
 0002:00020a34       ??_C@_1M@PGKJFFGL@?$AAe?$AAs?$AA?9?$AAM?$AAX@ 1014da34     libucrt:lcidtoname_downlevel.obj
 0002:00020a40       ??_C@_1M@DNNANBDC@?$AAf?$AAr?$AA?9?$AAB?$AAE@ 1014da40     libucrt:lcidtoname_downlevel.obj
 0002:00020a4c       ??_C@_1M@HLGMDFHM@?$AAi?$AAt?$AA?9?$AAC?$AAH@ 1014da4c     libucrt:lcidtoname_downlevel.obj
 0002:00020a58       ??_C@_1M@CLLBGJH@?$AAn?$AAl?$AA?9?$AAB?$AAE@ 1014da58     libucrt:lcidtoname_downlevel.obj
 0002:00020a64       ??_C@_1M@BODBOGLF@?$AAn?$AAn?$AA?9?$AAN?$AAO@ 1014da64     libucrt:lcidtoname_downlevel.obj
 0002:00020a70       ??_C@_1M@HFFAHKAD@?$AAp?$AAt?$AA?9?$AAP?$AAT@ 1014da70     libucrt:lcidtoname_downlevel.obj
 0002:00020a7c       ??_C@_1BG@LNOAKHIE@?$AAs?$AAr?$AA?9?$AAS?$AAP?$AA?9?$AAL?$AAa?$AAt?$AAn@ 1014da7c     libucrt:lcidtoname_downlevel.obj
 0002:00020a94       ??_C@_1M@HBMHBGAK@?$AAs?$AAv?$AA?9?$AAF?$AAI@ 1014da94     libucrt:lcidtoname_downlevel.obj
 0002:00020aa0       ??_C@_1BG@DGCJGJBE@?$AAa?$AAz?$AA?9?$AAA?$AAZ?$AA?9?$AAC?$AAy?$AAr?$AAl@ 1014daa0     libucrt:lcidtoname_downlevel.obj
 0002:00020ab8       ??_C@_1M@KEJDAAHB@?$AAs?$AAe?$AA?9?$AAS?$AAE@ 1014dab8     libucrt:lcidtoname_downlevel.obj
 0002:00020ac4       ??_C@_1M@HEIBJJAD@?$AAm?$AAs?$AA?9?$AAB?$AAN@ 1014dac4     libucrt:lcidtoname_downlevel.obj
 0002:00020ad0       ??_C@_1BG@PBGJMCEM@?$AAu?$AAz?$AA?9?$AAU?$AAZ?$AA?9?$AAC?$AAy?$AAr?$AAl@ 1014dad0     libucrt:lcidtoname_downlevel.obj
 0002:00020ae8       ??_C@_1O@LAOBCMDF@?$AAq?$AAu?$AAz?$AA?9?$AAE?$AAC@ 1014dae8     libucrt:lcidtoname_downlevel.obj
 0002:00020af8       ??_C@_1M@POEEMAIO@?$AAa?$AAr?$AA?9?$AAE?$AAG@ 1014daf8     libucrt:lcidtoname_downlevel.obj
 0002:00020b04       ??_C@_1M@EFAKDEDL@?$AAz?$AAh?$AA?9?$AAH?$AAK@ 1014db04     libucrt:lcidtoname_downlevel.obj
 0002:00020b10       ??_C@_1M@HKKIJHGI@?$AAd?$AAe?$AA?9?$AAA?$AAT@ 1014db10     libucrt:lcidtoname_downlevel.obj
 0002:00020b1c       ??_C@_1M@KBFBEHJF@?$AAe?$AAn?$AA?9?$AAA?$AAU@ 1014db1c     libucrt:lcidtoname_downlevel.obj
 0002:00020b28       ??_C@_1M@MNPLFAAH@?$AAe?$AAs?$AA?9?$AAE?$AAS@ 1014db28     libucrt:lcidtoname_downlevel.obj
 0002:00020b34       ??_C@_1M@HJOOJFMA@?$AAf?$AAr?$AA?9?$AAC?$AAA@ 1014db34     libucrt:lcidtoname_downlevel.obj
 0002:00020b40       ??_C@_1BG@JPOFPNAB@?$AAs?$AAr?$AA?9?$AAS?$AAP?$AA?9?$AAC?$AAy?$AAr?$AAl@ 1014db40     libucrt:lcidtoname_downlevel.obj
 0002:00020b58       ??_C@_1M@LNFOCMOB@?$AAs?$AAe?$AA?9?$AAF?$AAI@ 1014db58     libucrt:lcidtoname_downlevel.obj
 0002:00020b64       ??_C@_1O@MGJBOAMB@?$AAq?$AAu?$AAz?$AA?9?$AAP?$AAE@ 1014db64     libucrt:lcidtoname_downlevel.obj
 0002:00020b74       ??_C@_1M@GJINLBOK@?$AAa?$AAr?$AA?9?$AAL?$AAY@ 1014db74     libucrt:lcidtoname_downlevel.obj
 0002:00020b80       ??_C@_1M@GGMNHJNL@?$AAz?$AAh?$AA?9?$AAS?$AAG@ 1014db80     libucrt:lcidtoname_downlevel.obj
 0002:00020b8c       ??_C@_1M@HOIKODND@?$AAd?$AAe?$AA?9?$AAL?$AAU@ 1014db8c     libucrt:lcidtoname_downlevel.obj
 0002:00020b98       ??_C@_1M@DDOCCGFG@?$AAe?$AAn?$AA?9?$AAC?$AAA@ 1014db98     libucrt:lcidtoname_downlevel.obj
 0002:00020ba4       ??_C@_1M@BNOEMJLF@?$AAe?$AAs?$AA?9?$AAG?$AAT@ 1014dba4     libucrt:lcidtoname_downlevel.obj
 0002:00020bb0       ??_C@_1M@EOGNKEK@?$AAf?$AAr?$AA?9?$AAC?$AAH@ 1014dbb0     libucrt:lcidtoname_downlevel.obj
 0002:00020bbc       ??_C@_1M@FLIDJFHL@?$AAh?$AAr?$AA?9?$AAB?$AAA@ 1014dbbc     libucrt:lcidtoname_downlevel.obj
 0002:00020bc8       ??_C@_1O@FMCELNAJ@?$AAs?$AAm?$AAj?$AA?9?$AAN?$AAO@ 1014dbc8     libucrt:lcidtoname_downlevel.obj
 0002:00020bd8       ??_C@_1M@JHGLJMGJ@?$AAa?$AAr?$AA?9?$AAD?$AAZ@ 1014dbd8     libucrt:lcidtoname_downlevel.obj
 0002:00020be4       ??_C@_1M@JKKFDCNP@?$AAz?$AAh?$AA?9?$AAM?$AAO@ 1014dbe4     libucrt:lcidtoname_downlevel.obj
 0002:00020bf0       ??_C@_1M@GEEFALPE@?$AAd?$AAe?$AA?9?$AAL?$AAI@ 1014dbf0     libucrt:lcidtoname_downlevel.obj
 0002:00020bfc       ??_C@_1M@IGEOFBG@?$AAe?$AAn?$AA?9?$AAN?$AAZ@ 1014dbfc     libucrt:lcidtoname_downlevel.obj
 0002:00020c08       ??_C@_1M@KDBONEHP@?$AAe?$AAs?$AA?9?$AAC?$AAR@ 1014dc08     libucrt:lcidtoname_downlevel.obj
 0002:00020c14       ??_C@_1M@FHMDOHNN@?$AAf?$AAr?$AA?9?$AAL?$AAU@ 1014dc14     libucrt:lcidtoname_downlevel.obj
 0002:00020c20       ??_C@_1BG@NFKKMAFG@?$AAb?$AAs?$AA?9?$AAB?$AAA?$AA?9?$AAL?$AAa?$AAt?$AAn@ 1014dc20     libucrt:lcidtoname_downlevel.obj
 0002:00020c38       ??_C@_1O@IMNBEMCI@?$AAs?$AAm?$AAj?$AA?9?$AAS?$AAE@ 1014dc38     libucrt:lcidtoname_downlevel.obj
 0002:00020c48       ??_C@_1M@DHHMBNDP@?$AAa?$AAr?$AA?9?$AAM?$AAA@ 1014dc48     libucrt:lcidtoname_downlevel.obj
 0002:00020c54       ??_C@_1M@BNBLJCGH@?$AAe?$AAn?$AA?9?$AAI?$AAE@ 1014dc54     libucrt:lcidtoname_downlevel.obj
 0002:00020c60       ??_C@_1M@GEPAFMDL@?$AAe?$AAs?$AA?9?$AAP?$AAA@ 1014dc60     libucrt:lcidtoname_downlevel.obj
 0002:00020c6c       ??_C@_1M@OJONDMDL@?$AAf?$AAr?$AA?9?$AAM?$AAC@ 1014dc6c     libucrt:lcidtoname_downlevel.obj
 0002:00020c78       ??_C@_1BG@OBCNFJB@?$AAs?$AAr?$AA?9?$AAB?$AAA?$AA?9?$AAL?$AAa?$AAt?$AAn@ 1014dc78     libucrt:lcidtoname_downlevel.obj
 0002:00020c90       ??_C@_1O@KEMEEGPO@?$AAs?$AAm?$AAa?$AA?9?$AAN?$AAO@ 1014dc90     libucrt:lcidtoname_downlevel.obj
 0002:00020ca0       ??_C@_1M@ELMGFODK@?$AAa?$AAr?$AA?9?$AAT?$AAN@ 1014dca0     libucrt:lcidtoname_downlevel.obj
 0002:00020cac       ??_C@_1M@BHDLHFAF@?$AAe?$AAn?$AA?9?$AAZ?$AAA@ 1014dcac     libucrt:lcidtoname_downlevel.obj
 0002:00020cb8       ??_C@_1M@BMGIGLIF@?$AAe?$AAs?$AA?9?$AAD?$AAO@ 1014dcb8     libucrt:lcidtoname_downlevel.obj
 0002:00020cc4       ??_C@_1BG@CMBHIPBE@?$AAs?$AAr?$AA?9?$AAB?$AAA?$AA?9?$AAC?$AAy?$AAr?$AAl@ 1014dcc4     libucrt:lcidtoname_downlevel.obj
 0002:00020cdc       ??_C@_1O@HEDBLHNP@?$AAs?$AAm?$AAa?$AA?9?$AAS?$AAE@ 1014dcdc     libucrt:lcidtoname_downlevel.obj
 0002:00020cec       ??_C@_1M@DAGCADIM@?$AAa?$AAr?$AA?9?$AAO?$AAM@ 1014dcec     libucrt:lcidtoname_downlevel.obj
 0002:00020cf8       ??_C@_1M@FODLMICG@?$AAe?$AAn?$AA?9?$AAJ?$AAM@ 1014dcf8     libucrt:lcidtoname_downlevel.obj
 0002:00020d04       ??_C@_1M@DNMLCIHB@?$AAe?$AAs?$AA?9?$AAV?$AAE@ 1014dd04     libucrt:lcidtoname_downlevel.obj
 0002:00020d10       ??_C@_1O@EOKHMKJK@?$AAs?$AAm?$AAs?$AA?9?$AAF?$AAI@ 1014dd10     libucrt:lcidtoname_downlevel.obj
 0002:00020d20       ??_C@_1M@CAFJMKOF@?$AAa?$AAr?$AA?9?$AAY?$AAE@ 1014dd20     libucrt:lcidtoname_downlevel.obj
 0002:00020d2c       ??_C@_1M@CBFHIJLI@?$AAe?$AAn?$AA?9?$AAC?$AAB@ 1014dd2c     libucrt:lcidtoname_downlevel.obj
 0002:00020d38       ??_C@_1M@BGNFLDN@?$AAe?$AAs?$AA?9?$AAC?$AAO@ 1014dd38     libucrt:lcidtoname_downlevel.obj
 0002:00020d44       ??_C@_1O@JMPHMAMC@?$AAs?$AAm?$AAn?$AA?9?$AAF?$AAI@ 1014dd44     libucrt:lcidtoname_downlevel.obj
 0002:00020d54       ??_C@_1M@JLANABKE@?$AAa?$AAr?$AA?9?$AAS?$AAY@ 1014dd54     libucrt:lcidtoname_downlevel.obj
 0002:00020d60       ??_C@_1M@HPKGCFGN@?$AAe?$AAn?$AA?9?$AAB?$AAZ@ 1014dd60     libucrt:lcidtoname_downlevel.obj
 0002:00020d6c       ??_C@_1M@OLJCMLGM@?$AAe?$AAs?$AA?9?$AAP?$AAE@ 1014dd6c     libucrt:lcidtoname_downlevel.obj
 0002:00020d78       ??_C@_1M@MKKGFKLE@?$AAa?$AAr?$AA?9?$AAJ?$AAO@ 1014dd78     libucrt:lcidtoname_downlevel.obj
 0002:00020d84       ??_C@_1M@EKPGLDNI@?$AAe?$AAn?$AA?9?$AAT?$AAT@ 1014dd84     libucrt:lcidtoname_downlevel.obj
 0002:00020d90       ??_C@_1M@OONGHFHE@?$AAe?$AAs?$AA?9?$AAA?$AAR@ 1014dd90     libucrt:lcidtoname_downlevel.obj
 0002:00020d9c       ??_C@_1M@OOJFGBHE@?$AAa?$AAr?$AA?9?$AAL?$AAB@ 1014dd9c     libucrt:lcidtoname_downlevel.obj
 0002:00020da8       ??_C@_1M@GCEJHNEG@?$AAe?$AAn?$AA?9?$AAZ?$AAW@ 1014dda8     libucrt:lcidtoname_downlevel.obj
 0002:00020db4       ??_C@_1M@JNOCAHJI@?$AAe?$AAs?$AA?9?$AAE?$AAC@ 1014ddb4     libucrt:lcidtoname_downlevel.obj
 0002:00020dc0       ??_C@_1M@JEFHPGGB@?$AAa?$AAr?$AA?9?$AAK?$AAW@ 1014ddc0     libucrt:lcidtoname_downlevel.obj
 0002:00020dcc       ??_C@_1M@MLKIBJOJ@?$AAe?$AAn?$AA?9?$AAP?$AAH@ 1014ddcc     libucrt:lcidtoname_downlevel.obj
 0002:00020dd8       ??_C@_1M@BDNIPEND@?$AAe?$AAs?$AA?9?$AAC?$AAL@ 1014ddd8     libucrt:lcidtoname_downlevel.obj
 0002:00020de4       ??_C@_1M@MPNMEKBD@?$AAa?$AAr?$AA?9?$AAA?$AAE@ 1014dde4     libucrt:lcidtoname_downlevel.obj
 0002:00020df0       ??_C@_1M@KBJALCPI@?$AAe?$AAs?$AA?9?$AAU?$AAY@ 1014ddf0     libucrt:lcidtoname_downlevel.obj
 0002:00020dfc       ??_C@_1M@LLCCOAGA@?$AAa?$AAr?$AA?9?$AAB?$AAH@ 1014ddfc     libucrt:lcidtoname_downlevel.obj
 0002:00020e08       ??_C@_1M@PBFNCDEL@?$AAe?$AAs?$AA?9?$AAP?$AAY@ 1014de08     libucrt:lcidtoname_downlevel.obj
 0002:00020e14       ??_C@_1M@EDGINPNP@?$AAa?$AAr?$AA?9?$AAQ?$AAA@ 1014de14     libucrt:lcidtoname_downlevel.obj
 0002:00020e20       ??_C@_1M@MKDBIIJI@?$AAe?$AAs?$AA?9?$AAB?$AAO@ 1014de20     libucrt:lcidtoname_downlevel.obj
 0002:00020e2c       ??_C@_1M@CPKKEBLD@?$AAe?$AAs?$AA?9?$AAS?$AAV@ 1014de2c     libucrt:lcidtoname_downlevel.obj
 0002:00020e38       ??_C@_1M@NDBGMMJL@?$AAe?$AAs?$AA?9?$AAH?$AAN@ 1014de38     libucrt:lcidtoname_downlevel.obj
 0002:00020e44       ??_C@_1M@JIJIBHDP@?$AAe?$AAs?$AA?9?$AAN?$AAI@ 1014de44     libucrt:lcidtoname_downlevel.obj
 0002:00020e50       ??_C@_1M@CGFMKEEK@?$AAe?$AAs?$AA?9?$AAP?$AAR@ 1014de50     libucrt:lcidtoname_downlevel.obj
 0002:00020e5c       ??_C@_1O@ICJHKIIK@?$AAz?$AAh?$AA?9?$AAC?$AAH?$AAT@ 1014de5c     libucrt:lcidtoname_downlevel.obj
 0002:00020e6c       ??_C@_15CLNEJCE@?$AAs?$AAr@ 1014de6c     libucrt:lcidtoname_downlevel.obj
 0002:00021598       ??_C@_1M@KAHEKEIG@?$AAa?$AAf?$AA?9?$AAz?$AAa@ 1014e598     libucrt:lcidtoname_downlevel.obj
 0002:000215a4       ??_C@_1M@GIECOABL@?$AAa?$AAr?$AA?9?$AAa?$AAe@ 1014e5a4     libucrt:lcidtoname_downlevel.obj
 0002:000215b0       ??_C@_1M@BMLMEKGI@?$AAa?$AAr?$AA?9?$AAb?$AAh@ 1014e5b0     libucrt:lcidtoname_downlevel.obj
 0002:000215bc       ??_C@_1M@DAPFDGGB@?$AAa?$AAr?$AA?9?$AAd?$AAz@ 1014e5bc     libucrt:lcidtoname_downlevel.obj
 0002:000215c8       ??_C@_1M@FJNKGKIG@?$AAa?$AAr?$AA?9?$AAe?$AAg@ 1014e5c8     libucrt:lcidtoname_downlevel.obj
 0002:000215d4       ??_C@_1M@FLGKKCLO@?$AAa?$AAr?$AA?9?$AAi?$AAq@ 1014e5d4     libucrt:lcidtoname_downlevel.obj
 0002:000215e0       ??_C@_1M@GNDIPALM@?$AAa?$AAr?$AA?9?$AAj?$AAo@ 1014e5e0     libucrt:lcidtoname_downlevel.obj
 0002:000215ec       ??_C@_1M@DDMJFMGJ@?$AAa?$AAr?$AA?9?$AAk?$AAw@ 1014e5ec     libucrt:lcidtoname_downlevel.obj
 0002:000215f8       ??_C@_1M@EJALMLHM@?$AAa?$AAr?$AA?9?$AAl?$AAb@ 1014e5f8     libucrt:lcidtoname_downlevel.obj
 0002:00021604       ??_C@_1M@MOBDBLOC@?$AAa?$AAr?$AA?9?$AAl?$AAy@ 1014e604     libucrt:lcidtoname_downlevel.obj
 0002:00021610       ??_C@_1M@JAOCLHDH@?$AAa?$AAr?$AA?9?$AAm?$AAa@ 1014e610     libucrt:lcidtoname_downlevel.obj
 0002:0002161c       ??_C@_1M@JHPMKJIE@?$AAa?$AAr?$AA?9?$AAo?$AAm@ 1014e61c     libucrt:lcidtoname_downlevel.obj
 0002:00021628       ??_C@_1M@OEPGHFNH@?$AAa?$AAr?$AA?9?$AAq?$AAa@ 1014e628     libucrt:lcidtoname_downlevel.obj
 0002:00021634       ??_C@_1M@KJDONENM@?$AAa?$AAr?$AA?9?$AAs?$AAa@ 1014e634     libucrt:lcidtoname_downlevel.obj
 0002:00021640       ??_C@_1M@DMJDKLKM@?$AAa?$AAr?$AA?9?$AAs?$AAy@ 1014e640     libucrt:lcidtoname_downlevel.obj
 0002:0002164c       ??_C@_1M@OMFIPEDC@?$AAa?$AAr?$AA?9?$AAt?$AAn@ 1014e64c     libucrt:lcidtoname_downlevel.obj
 0002:00021658       ??_C@_1M@IHMHGAON@?$AAa?$AAr?$AA?9?$AAy?$AAe@ 1014e658     libucrt:lcidtoname_downlevel.obj
 0002:00021664       ??_C@_1BG@KDCPGJGB@?$AAa?$AAz?$AA?9?$AAa?$AAz?$AA?9?$AAc?$AAy?$AAr?$AAl@ 1014e664     libucrt:lcidtoname_downlevel.obj
 0002:0002167c       ??_C@_1BG@IBCKDDOE@?$AAa?$AAz?$AA?9?$AAa?$AAz?$AA?9?$AAl?$AAa?$AAt?$AAn@ 1014e67c     libucrt:lcidtoname_downlevel.obj
 0002:00021694       ??_C@_1M@EGPFDCPD@?$AAb?$AAe?$AA?9?$AAb?$AAy@ 1014e694     libucrt:lcidtoname_downlevel.obj
 0002:000216a0       ??_C@_1M@PCMGMCGC@?$AAb?$AAg?$AA?9?$AAb?$AAg@ 1014e6a0     libucrt:lcidtoname_downlevel.obj
 0002:000216ac       ??_C@_1M@BJBMFGOB@?$AAb?$AAn?$AA?9?$AAi?$AAn@ 1014e6ac     libucrt:lcidtoname_downlevel.obj
 0002:000216b8       ??_C@_1BG@EAKMMACD@?$AAb?$AAs?$AA?9?$AAb?$AAa?$AA?9?$AAl?$AAa?$AAt?$AAn@ 1014e6b8     libucrt:lcidtoname_downlevel.obj
 0002:000216d0       ??_C@_1M@KGADAODK@?$AAc?$AAa?$AA?9?$AAe?$AAs@ 1014e6d0     libucrt:lcidtoname_downlevel.obj
 0002:000216dc       ??_C@_1M@COAJPDHI@?$AAc?$AAs?$AA?9?$AAc?$AAz@ 1014e6dc     libucrt:lcidtoname_downlevel.obj
 0002:000216e8       ??_C@_1M@DHBHFONH@?$AAc?$AAy?$AA?9?$AAg?$AAb@ 1014e6e8     libucrt:lcidtoname_downlevel.obj
 0002:000216f4       ??_C@_1M@IMGKELGA@?$AAd?$AAa?$AA?9?$AAd?$AAk@ 1014e6f4     libucrt:lcidtoname_downlevel.obj
 0002:00021700       ??_C@_1M@NNDGDNGA@?$AAd?$AAe?$AA?9?$AAa?$AAt@ 1014e700     libucrt:lcidtoname_downlevel.obj
 0002:0002170c       ??_C@_1M@IKDBHEEM@?$AAd?$AAe?$AA?9?$AAc?$AAh@ 1014e70c     libucrt:lcidtoname_downlevel.obj
 0002:00021718       ??_C@_1M@GFFOJMCJ@?$AAd?$AAe?$AA?9?$AAd?$AAe@ 1014e718     libucrt:lcidtoname_downlevel.obj
 0002:00021724       ??_C@_1M@MDNLKBPM@?$AAd?$AAe?$AA?9?$AAl?$AAi@ 1014e724     libucrt:lcidtoname_downlevel.obj
 0002:00021730       ??_C@_1M@NJBEEJNL@?$AAd?$AAe?$AA?9?$AAl?$AAu@ 1014e730     libucrt:lcidtoname_downlevel.obj
 0002:0002173c       ??_C@_1O@GNNELBAP@?$AAd?$AAi?$AAv?$AA?9?$AAm?$AAv@ 1014e73c     libucrt:lcidtoname_downlevel.obj
 0002:0002174c       ??_C@_1M@EJLEOGAE@?$AAe?$AAl?$AA?9?$AAg?$AAr@ 1014e74c     libucrt:lcidtoname_downlevel.obj
 0002:00021758       ??_C@_1M@GMPONJN@?$AAe?$AAn?$AA?9?$AAa?$AAu@ 1014e758     libucrt:lcidtoname_downlevel.obj
 0002:00021764       ??_C@_1M@NIDIIPGF@?$AAe?$AAn?$AA?9?$AAb?$AAz@ 1014e764     libucrt:lcidtoname_downlevel.obj
 0002:00021770       ??_C@_1M@JEHMIMFO@?$AAe?$AAn?$AA?9?$AAc?$AAa@ 1014e770     libucrt:lcidtoname_downlevel.obj
 0002:0002177c       ??_C@_1M@IGMJCDLA@?$AAe?$AAn?$AA?9?$AAc?$AAb@ 1014e77c     libucrt:lcidtoname_downlevel.obj
 0002:00021788       ??_C@_1M@BNFIGBKG@?$AAe?$AAn?$AA?9?$AAg?$AAb@ 1014e788     libucrt:lcidtoname_downlevel.obj
 0002:00021794       ??_C@_1M@LKIFDIGP@?$AAe?$AAn?$AA?9?$AAi?$AAe@ 1014e794     libucrt:lcidtoname_downlevel.obj
 0002:000217a0       ??_C@_1M@PJKFGCCO@?$AAe?$AAn?$AA?9?$AAj?$AAm@ 1014e7a0     libucrt:lcidtoname_downlevel.obj
 0002:000217ac       ??_C@_1M@KPPKEPBO@?$AAe?$AAn?$AA?9?$AAn?$AAz@ 1014e7ac     libucrt:lcidtoname_downlevel.obj
 0002:000217b8       ??_C@_1M@GMDGLDOB@?$AAe?$AAn?$AA?9?$AAp?$AAh@ 1014e7b8     libucrt:lcidtoname_downlevel.obj
 0002:000217c4       ??_C@_1M@ONGIBJNA@?$AAe?$AAn?$AA?9?$AAt?$AAt@ 1014e7c4     libucrt:lcidtoname_downlevel.obj
 0002:000217d0       ??_C@_1M@LLODPCMM@?$AAe?$AAn?$AA?9?$AAu?$AAs@ 1014e7d0     libucrt:lcidtoname_downlevel.obj
 0002:000217dc       ??_C@_1M@LAKFNPAN@?$AAe?$AAn?$AA?9?$AAz?$AAa@ 1014e7dc     libucrt:lcidtoname_downlevel.obj
 0002:000217e8       ??_C@_1M@MFNHNHEO@?$AAe?$AAn?$AA?9?$AAz?$AAw@ 1014e7e8     libucrt:lcidtoname_downlevel.obj
 0002:000217f4       ??_C@_1M@EJEINPHM@?$AAe?$AAs?$AA?9?$AAa?$AAr@ 1014e7f4     libucrt:lcidtoname_downlevel.obj
 0002:00021800       ??_C@_1M@GNKPCCJA@?$AAe?$AAs?$AA?9?$AAb?$AAo@ 1014e800     libucrt:lcidtoname_downlevel.obj
 0002:0002180c       ??_C@_1M@LEEGFONL@?$AAe?$AAs?$AA?9?$AAc?$AAl@ 1014e80c     libucrt:lcidtoname_downlevel.obj
 0002:00021818       ??_C@_1M@KGPDPBDF@?$AAe?$AAs?$AA?9?$AAc?$AAo@ 1014e818     libucrt:lcidtoname_downlevel.obj
 0002:00021824       ??_C@_1M@EIAHOHH@?$AAe?$AAs?$AA?9?$AAc?$AAr@ 1014e824     libucrt:lcidtoname_downlevel.obj
 0002:00021830       ??_C@_1M@LLPGMBIN@?$AAe?$AAs?$AA?9?$AAd?$AAo@ 1014e830     libucrt:lcidtoname_downlevel.obj
 0002:0002183c       ??_C@_1M@DKHMKNJA@?$AAe?$AAs?$AA?9?$AAe?$AAc@ 1014e83c     libucrt:lcidtoname_downlevel.obj
 0002:00021848       ??_C@_1M@GKGFPKAP@?$AAe?$AAs?$AA?9?$AAe?$AAs@ 1014e848     libucrt:lcidtoname_downlevel.obj
 0002:00021854       ??_C@_1M@LKHKGDLN@?$AAe?$AAs?$AA?9?$AAg?$AAt@ 1014e854     libucrt:lcidtoname_downlevel.obj
 0002:00021860       ??_C@_1M@HEIIGGJD@?$AAe?$AAs?$AA?9?$AAh?$AAn@ 1014e860     libucrt:lcidtoname_downlevel.obj
 0002:0002186c       ??_C@_1M@FBDHPPGD@?$AAe?$AAs?$AA?9?$AAm?$AAx@ 1014e86c     libucrt:lcidtoname_downlevel.obj
 0002:00021878       ??_C@_1M@DPAGLNDH@?$AAe?$AAs?$AA?9?$AAn?$AAi@ 1014e878     libucrt:lcidtoname_downlevel.obj
 0002:00021884       ??_C@_1M@MDGOPGDD@?$AAe?$AAs?$AA?9?$AAp?$AAa@ 1014e884     libucrt:lcidtoname_downlevel.obj
 0002:00021890       ??_C@_1M@EMAMGBGE@?$AAe?$AAs?$AA?9?$AAp?$AAe@ 1014e890     libucrt:lcidtoname_downlevel.obj
 0002:0002189c       ??_C@_1M@IBMCAOEC@?$AAe?$AAs?$AA?9?$AAp?$AAr@ 1014e89c     libucrt:lcidtoname_downlevel.obj
 0002:000218a8       ??_C@_1M@FGMDIJED@?$AAe?$AAs?$AA?9?$AAp?$AAy@ 1014e8a8     libucrt:lcidtoname_downlevel.obj
 0002:000218b4       ??_C@_1M@IIDEOLLL@?$AAe?$AAs?$AA?9?$AAs?$AAv@ 1014e8b4     libucrt:lcidtoname_downlevel.obj
 0002:000218c0       ??_C@_1M@GAOBIPA@?$AAe?$AAs?$AA?9?$AAu?$AAy@ 1014e8c0     libucrt:lcidtoname_downlevel.obj
 0002:000218cc       ??_C@_1M@JKFFICHJ@?$AAe?$AAs?$AA?9?$AAv?$AAe@ 1014e8cc     libucrt:lcidtoname_downlevel.obj
 0002:000218d8       ??_C@_1M@PNMLOJDF@?$AAe?$AAt?$AA?9?$AAe?$AAe@ 1014e8d8     libucrt:lcidtoname_downlevel.obj
 0002:000218e4       ??_C@_1M@GHHLIKEI@?$AAe?$AAu?$AA?9?$AAe?$AAs@ 1014e8e4     libucrt:lcidtoname_downlevel.obj
 0002:000218f0       ??_C@_1M@PBNONODE@?$AAf?$AAa?$AA?9?$AAi?$AAr@ 1014e8f0     libucrt:lcidtoname_downlevel.obj
 0002:000218fc       ??_C@_1M@JEEHPMIL@?$AAf?$AAi?$AA?9?$AAf?$AAi@ 1014e8fc     libucrt:lcidtoname_downlevel.obj
 0002:00021908       ??_C@_1M@LMDCNDBA@?$AAf?$AAo?$AA?9?$AAf?$AAo@ 1014e908     libucrt:lcidtoname_downlevel.obj
 0002:00021914       ??_C@_1M@JKEOHLDK@?$AAf?$AAr?$AA?9?$AAb?$AAe@ 1014e914     libucrt:lcidtoname_downlevel.obj
 0002:00021920       ??_C@_1M@NOHADPMI@?$AAf?$AAr?$AA?9?$AAc?$AAa@ 1014e920     libucrt:lcidtoname_downlevel.obj
 0002:0002192c       ??_C@_1M@KDHIHAEC@?$AAf?$AAr?$AA?9?$AAc?$AAh@ 1014e92c     libucrt:lcidtoname_downlevel.obj
 0002:00021938       ??_C@_1M@MMBBFGAK@?$AAf?$AAr?$AA?9?$AAf?$AAr@ 1014e938     libucrt:lcidtoname_downlevel.obj
 0002:00021944       ??_C@_1M@PAFNENNF@?$AAf?$AAr?$AA?9?$AAl?$AAu@ 1014e944     libucrt:lcidtoname_downlevel.obj
 0002:00021950       ??_C@_1M@EOHDJGDD@?$AAf?$AAr?$AA?9?$AAm?$AAc@ 1014e950     libucrt:lcidtoname_downlevel.obj
 0002:0002195c       ??_C@_1M@FAPLLOPF@?$AAg?$AAl?$AA?9?$AAe?$AAs@ 1014e95c     libucrt:lcidtoname_downlevel.obj
 0002:00021968       ??_C@_1M@FOPBFLOO@?$AAg?$AAu?$AA?9?$AAi?$AAn@ 1014e968     libucrt:lcidtoname_downlevel.obj
 0002:00021974       ??_C@_1M@KBMCINPM@?$AAh?$AAe?$AA?9?$AAi?$AAl@ 1014e974     libucrt:lcidtoname_downlevel.obj
 0002:00021980       ??_C@_1M@BBPHKFPJ@?$AAh?$AAi?$AA?9?$AAi?$AAn@ 1014e980     libucrt:lcidtoname_downlevel.obj
 0002:0002198c       ??_C@_1M@PMBNDPHD@?$AAh?$AAr?$AA?9?$AAb?$AAa@ 1014e98c     libucrt:lcidtoname_downlevel.obj
 0002:00021998       ??_C@_1M@BPCKOEGE@?$AAh?$AAr?$AA?9?$AAh?$AAr@ 1014e998     libucrt:lcidtoname_downlevel.obj
 0002:000219a4       ??_C@_1M@GACBMHKE@?$AAh?$AAu?$AA?9?$AAh?$AAu@ 1014e9a4     libucrt:lcidtoname_downlevel.obj
 0002:000219b0       ??_C@_1M@MILPAJJC@?$AAh?$AAy?$AA?9?$AAa?$AAm@ 1014e9b0     libucrt:lcidtoname_downlevel.obj
 0002:000219bc       ??_C@_1M@BABBICEC@?$AAi?$AAd?$AA?9?$AAi?$AAd@ 1014e9bc     libucrt:lcidtoname_downlevel.obj
 0002:000219c8       ??_C@_1M@BIKNHHPF@?$AAi?$AAs?$AA?9?$AAi?$AAs@ 1014e9c8     libucrt:lcidtoname_downlevel.obj
 0002:000219d4       ??_C@_1M@NMPCJPHE@?$AAi?$AAt?$AA?9?$AAc?$AAh@ 1014e9d4     libucrt:lcidtoname_downlevel.obj
 0002:000219e0       ??_C@_1M@GHKGFEDF@?$AAi?$AAt?$AA?9?$AAi?$AAt@ 1014e9e0     libucrt:lcidtoname_downlevel.obj
 0002:000219ec       ??_C@_1M@NIEJCJJA@?$AAj?$AAa?$AA?9?$AAj?$AAp@ 1014e9ec     libucrt:lcidtoname_downlevel.obj
 0002:000219f8       ??_C@_1M@JILFNBIM@?$AAk?$AAa?$AA?9?$AAg?$AAe@ 1014e9f8     libucrt:lcidtoname_downlevel.obj
 0002:00021a04       ??_C@_1M@PACPMGPH@?$AAk?$AAk?$AA?9?$AAk?$AAz@ 1014ea04     libucrt:lcidtoname_downlevel.obj
 0002:00021a10       ??_C@_1M@IELFGMHA@?$AAk?$AAn?$AA?9?$AAi?$AAn@ 1014ea10     libucrt:lcidtoname_downlevel.obj
 0002:00021a1c       ??_C@_1O@IBBJHCH@?$AAk?$AAo?$AAk?$AA?9?$AAi?$AAn@ 1014ea1c     libucrt:lcidtoname_downlevel.obj
 0002:00021a2c       ??_C@_1M@DMHAEOGC@?$AAk?$AAo?$AA?9?$AAk?$AAr@ 1014ea2c     libucrt:lcidtoname_downlevel.obj
 0002:00021a38       ??_C@_1M@HBAHBIGA@?$AAk?$AAy?$AA?9?$AAk?$AAg@ 1014ea38     libucrt:lcidtoname_downlevel.obj
 0002:00021a44       ??_C@_1M@KPMILCJG@?$AAl?$AAt?$AA?9?$AAl?$AAt@ 1014ea44     libucrt:lcidtoname_downlevel.obj
 0002:00021a50       ??_C@_1M@BDEKKCA@?$AAl?$AAv?$AA?9?$AAl?$AAv@ 1014ea50     libucrt:lcidtoname_downlevel.obj
 0002:00021a5c       ??_C@_1M@ELCKCCJJ@?$AAm?$AAi?$AA?9?$AAn?$AAz@ 1014ea5c     libucrt:lcidtoname_downlevel.obj
 0002:00021a68       ??_C@_1M@CBOOLAPA@?$AAm?$AAk?$AA?9?$AAm?$AAk@ 1014ea68     libucrt:lcidtoname_downlevel.obj
 0002:00021a74       ??_C@_1M@GPHNBJKN@?$AAm?$AAl?$AA?9?$AAi?$AAn@ 1014ea74     libucrt:lcidtoname_downlevel.obj
 0002:00021a80       ??_C@_1M@PABJILIG@?$AAm?$AAn?$AA?9?$AAm?$AAn@ 1014ea80     libucrt:lcidtoname_downlevel.obj
 0002:00021a8c       ??_C@_1M@FGBKKIPG@?$AAm?$AAr?$AA?9?$AAi?$AAn@ 1014ea8c     libucrt:lcidtoname_downlevel.obj
 0002:00021a98       ??_C@_1M@NDBPDDAL@?$AAm?$AAs?$AA?9?$AAb?$AAn@ 1014ea98     libucrt:lcidtoname_downlevel.obj
 0002:00021aa4       ??_C@_1M@OPIHOOPI@?$AAm?$AAs?$AA?9?$AAm?$AAy@ 1014eaa4     libucrt:lcidtoname_downlevel.obj
 0002:00021ab0       ??_C@_1M@PPDBCNFM@?$AAm?$AAt?$AA?9?$AAm?$AAt@ 1014eab0     libucrt:lcidtoname_downlevel.obj
 0002:00021abc       ??_C@_1M@KDJDKMDD@?$AAn?$AAb?$AA?9?$AAn?$AAo@ 1014eabc     libucrt:lcidtoname_downlevel.obj
 0002:00021ac8       ??_C@_1M@KFCFLMJP@?$AAn?$AAl?$AA?9?$AAb?$AAe@ 1014eac8     libucrt:lcidtoname_downlevel.obj
 0002:00021ad4       ??_C@_1M@KPOPDDGO@?$AAn?$AAl?$AA?9?$AAn?$AAl@ 1014ead4     libucrt:lcidtoname_downlevel.obj
 0002:00021ae0       ??_C@_1M@LJKPEMLN@?$AAn?$AAn?$AA?9?$AAn?$AAo@ 1014eae0     libucrt:lcidtoname_downlevel.obj
 0002:00021aec       ??_C@_1M@BDGHHBFL@?$AAn?$AAs?$AA?9?$AAz?$AAa@ 1014eaec     libucrt:lcidtoname_downlevel.obj
 0002:00021af8       ??_C@_1M@IDEHOAP@?$AAp?$AAa?$AA?9?$AAi?$AAn@ 1014eaf8     libucrt:lcidtoname_downlevel.obj
 0002:00021b04       ??_C@_1M@HDBKGOGH@?$AAp?$AAl?$AA?9?$AAp?$AAl@ 1014eb04     libucrt:lcidtoname_downlevel.obj
 0002:00021b10       ??_C@_1M@LJLLCMEH@?$AAp?$AAt?$AA?9?$AAb?$AAr@ 1014eb10     libucrt:lcidtoname_downlevel.obj
 0002:00021b1c       ??_C@_1M@NCMONAAL@?$AAp?$AAt?$AA?9?$AAp?$AAt@ 1014eb1c     libucrt:lcidtoname_downlevel.obj
 0002:00021b28       ??_C@_1O@EAKMAJDN@?$AAq?$AAu?$AAz?$AA?9?$AAb?$AAo@ 1014eb28     libucrt:lcidtoname_downlevel.obj
 0002:00021b38       ??_C@_1O@BHHPIGDN@?$AAq?$AAu?$AAz?$AA?9?$AAe?$AAc@ 1014eb38     libucrt:lcidtoname_downlevel.obj
 0002:00021b48       ??_C@_1O@GBAPEKMJ@?$AAq?$AAu?$AAz?$AA?9?$AAp?$AAe@ 1014eb48     libucrt:lcidtoname_downlevel.obj
 0002:00021b58       ??_C@_1M@CLGLEFBO@?$AAr?$AAo?$AA?9?$AAr?$AAo@ 1014eb58     libucrt:lcidtoname_downlevel.obj
 0002:00021b64       ??_C@_1M@CEEDODME@?$AAr?$AAu?$AA?9?$AAr?$AAu@ 1014eb64     libucrt:lcidtoname_downlevel.obj
 0002:00021b70       ??_C@_1M@HPKKKMPP@?$AAs?$AAa?$AA?9?$AAi?$AAn@ 1014eb70     libucrt:lcidtoname_downlevel.obj
 0002:00021b7c       ??_C@_1M@BKMAIGOJ@?$AAs?$AAe?$AA?9?$AAf?$AAi@ 1014eb7c     libucrt:lcidtoname_downlevel.obj
 0002:00021b88       ??_C@_1M@NDPIFLFI@?$AAs?$AAe?$AA?9?$AAn?$AAo@ 1014eb88     libucrt:lcidtoname_downlevel.obj
 0002:00021b94       ??_C@_1M@DANKKHJ@?$AAs?$AAe?$AA?9?$AAs?$AAe@ 1014eb94     libucrt:lcidtoname_downlevel.obj
 0002:00021ba0       ??_C@_1M@PNBLONPJ@?$AAs?$AAk?$AA?9?$AAs?$AAk@ 1014eba0     libucrt:lcidtoname_downlevel.obj
 0002:00021bac       ??_C@_1M@LFMODOAL@?$AAs?$AAl?$AA?9?$AAs?$AAi@ 1014ebac     libucrt:lcidtoname_downlevel.obj
 0002:00021bb8       ??_C@_1O@DFKOMPG@?$AAs?$AAm?$AAa?$AA?9?$AAn?$AAo@ 1014ebb8     libucrt:lcidtoname_downlevel.obj
 0002:00021bc8       ??_C@_1O@NDKPBNNH@?$AAs?$AAm?$AAa?$AA?9?$AAs?$AAe@ 1014ebc8     libucrt:lcidtoname_downlevel.obj
 0002:00021bd8       ??_C@_1O@PLLKBHAB@?$AAs?$AAm?$AAj?$AA?9?$AAn?$AAo@ 1014ebd8     libucrt:lcidtoname_downlevel.obj
 0002:00021be8       ??_C@_1O@CLEPOGCA@?$AAs?$AAm?$AAj?$AA?9?$AAs?$AAe@ 1014ebe8     libucrt:lcidtoname_downlevel.obj
 0002:00021bf8       ??_C@_1O@DLGJGKMK@?$AAs?$AAm?$AAn?$AA?9?$AAf?$AAi@ 1014ebf8     libucrt:lcidtoname_downlevel.obj
 0002:00021c08       ??_C@_1O@OJDJGAJC@?$AAs?$AAm?$AAs?$AA?9?$AAf?$AAi@ 1014ec08     libucrt:lcidtoname_downlevel.obj
 0002:00021c18       ??_C@_1M@BOFOGHPB@?$AAs?$AAq?$AA?9?$AAa?$AAl@ 1014ec18     libucrt:lcidtoname_downlevel.obj
 0002:00021c24       ??_C@_1BG@LJBBIPGB@?$AAs?$AAr?$AA?9?$AAb?$AAa?$AA?9?$AAc?$AAy?$AAr?$AAl@ 1014ec24     libucrt:lcidtoname_downlevel.obj
 0002:00021c3c       ??_C@_1BG@JLBENFOE@?$AAs?$AAr?$AA?9?$AAb?$AAa?$AA?9?$AAl?$AAa?$AAt?$AAn@ 1014ec3c     libucrt:lcidtoname_downlevel.obj
 0002:00021c54       ??_C@_1BG@KODPNHE@?$AAs?$AAr?$AA?9?$AAs?$AAp?$AA?9?$AAc?$AAy?$AAr?$AAl@ 1014ec54     libucrt:lcidtoname_downlevel.obj
 0002:00021c6c       ??_C@_1BG@CIOGKHPB@?$AAs?$AAr?$AA?9?$AAs?$AAp?$AA?9?$AAl?$AAa?$AAt?$AAn@ 1014ec6c     libucrt:lcidtoname_downlevel.obj
 0002:00021c84       ??_C@_1M@NGFJLMAC@?$AAs?$AAv?$AA?9?$AAf?$AAi@ 1014ec84     libucrt:lcidtoname_downlevel.obj
 0002:00021c90       ??_C@_1M@MPJEJAJC@?$AAs?$AAv?$AA?9?$AAs?$AAe@ 1014ec90     libucrt:lcidtoname_downlevel.obj
 0002:00021c9c       ??_C@_1M@MPNDHLFK@?$AAs?$AAw?$AA?9?$AAk?$AAe@ 1014ec9c     libucrt:lcidtoname_downlevel.obj
 0002:00021ca8       ??_C@_1O@KOHBJJI@?$AAs?$AAy?$AAr?$AA?9?$AAs?$AAy@ 1014eca8     libucrt:lcidtoname_downlevel.obj
 0002:00021cb8       ??_C@_1M@LDCEFHA@?$AAt?$AAa?$AA?9?$AAi?$AAn@ 1014ecb8     libucrt:lcidtoname_downlevel.obj
 0002:00021cc4       ??_C@_1M@CNJOFAK@?$AAt?$AAe?$AA?9?$AAi?$AAn@ 1014ecc4     libucrt:lcidtoname_downlevel.obj
 0002:00021cd0       ??_C@_1M@GNAECACD@?$AAt?$AAh?$AA?9?$AAt?$AAh@ 1014ecd0     libucrt:lcidtoname_downlevel.obj
 0002:00021cdc       ??_C@_1M@CHBIHOJO@?$AAt?$AAn?$AA?9?$AAz?$AAa@ 1014ecdc     libucrt:lcidtoname_downlevel.obj
 0002:00021ce8       ??_C@_1M@GCCMIGPJ@?$AAt?$AAr?$AA?9?$AAt?$AAr@ 1014ece8     libucrt:lcidtoname_downlevel.obj
 0002:00021cf4       ??_C@_1M@CELMCNBK@?$AAt?$AAt?$AA?9?$AAr?$AAu@ 1014ecf4     libucrt:lcidtoname_downlevel.obj
 0002:00021d00       ??_C@_1M@KLMCELGA@?$AAu?$AAk?$AA?9?$AAu?$AAa@ 1014ed00     libucrt:lcidtoname_downlevel.obj
 0002:00021d0c       ??_C@_1M@EPAJJAJF@?$AAu?$AAr?$AA?9?$AAp?$AAk@ 1014ed0c     libucrt:lcidtoname_downlevel.obj
 0002:00021d18       ??_C@_1BG@GEGPMCDJ@?$AAu?$AAz?$AA?9?$AAu?$AAz?$AA?9?$AAc?$AAy?$AAr?$AAl@ 1014ed18     libucrt:lcidtoname_downlevel.obj
 0002:00021d30       ??_C@_1BG@EGGKJILM@?$AAu?$AAz?$AA?9?$AAu?$AAz?$AA?9?$AAl?$AAa?$AAt?$AAn@ 1014ed30     libucrt:lcidtoname_downlevel.obj
 0002:00021d48       ??_C@_1M@GFOCLFF@?$AAv?$AAi?$AA?9?$AAv?$AAn@ 1014ed48     libucrt:lcidtoname_downlevel.obj
 0002:00021d54       ??_C@_1M@CPAMEDFI@?$AAx?$AAh?$AA?9?$AAz?$AAa@ 1014ed54     libucrt:lcidtoname_downlevel.obj
 0002:00021d60       ??_C@_1O@EBKIFIGN@?$AAz?$AAh?$AA?9?$AAc?$AAh?$AAs@ 1014ed60     libucrt:lcidtoname_downlevel.obj
 0002:00021d70       ??_C@_1O@NMHPGANE@?$AAz?$AAh?$AA?9?$AAc?$AAh?$AAt@ 1014ed70     libucrt:lcidtoname_downlevel.obj
 0002:00021d80       ??_C@_1M@LPINJOMC@?$AAz?$AAh?$AA?9?$AAc?$AAn@ 1014ed80     libucrt:lcidtoname_downlevel.obj
 0002:00021d8c       ??_C@_1M@OCJEJODD@?$AAz?$AAh?$AA?9?$AAh?$AAk@ 1014ed8c     libucrt:lcidtoname_downlevel.obj
 0002:00021d98       ??_C@_1M@DNDLJINH@?$AAz?$AAh?$AA?9?$AAm?$AAo@ 1014ed98     libucrt:lcidtoname_downlevel.obj
 0002:00021da4       ??_C@_1M@MBFDNDND@?$AAz?$AAh?$AA?9?$AAs?$AAg@ 1014eda4     libucrt:lcidtoname_downlevel.obj
 0002:00021db0       ??_C@_1M@IMEPLEPE@?$AAz?$AAh?$AA?9?$AAt?$AAw@ 1014edb0     libucrt:lcidtoname_downlevel.obj
 0002:00021dbc       ??_C@_1M@BBGHNHJP@?$AAz?$AAu?$AA?9?$AAz?$AAa@ 1014edbc     libucrt:lcidtoname_downlevel.obj
 0002:00021dc8       ??_C@_05DNEBIAHO@1?$CDINF@ 1014edc8     libucrt:cfout.obj
 0002:00021dd0       ??_C@_06IMKFLFPG@1?$CDQNAN@ 1014edd0     libucrt:cfout.obj
 0002:00021dd8       ??_C@_06PGGFOGJG@1?$CDSNAN@ 1014edd8     libucrt:cfout.obj
 0002:00021de0       ??_C@_05PHHOCPM@1?$CDIND@  1014ede0     libucrt:cfout.obj
 0002:00021de8       __Inf_C                    1014ede8     libucrt:_values.obj
 0002:00021df0       __Nan_C                    1014edf0     libucrt:_values.obj
 0002:00021df8       __FInf_C                   1014edf8     libucrt:_values.obj
 0002:00021e00       __FNan_C                   1014ee00     libucrt:_values.obj
 0002:00021e08       ___acrt_pow_rcp_t1         1014ee08     libucrt:pow_tables.obj
 0002:00022220       ___acrt_pow_log2_t1        1014f220     libucrt:pow_tables.obj
 0002:00022a30       ___acrt_pow_rcp_t2         1014fa30     libucrt:pow_tables.obj
 0002:00022e40       ___acrt_pow_log2_t2        1014fe40     libucrt:pow_tables.obj
 0002:00023650       ___acrt_pow_rcp_t3         10150650     libucrt:pow_tables.obj
 0002:00023e60       ___acrt_pow_log2_t3        10150e60     libucrt:pow_tables.obj
 0002:00024e70       ___acrt_pow_clv            10151e70     libucrt:pow_tables.obj
 0002:00024e90       ___acrt_pow_exp2_tbl       10151e90     libucrt:pow_tables.obj
 0002:00025690       ??_C@_1BA@BALFACEM@?$AAC?$AAO?$AAN?$AAO?$AAU?$AAT?$AA$@ 10152690     libucrt:initcon.obj
 0002:00025800       ___acrt_log10_table_t      10152800     libucrt:log10_tables.obj
 0002:00025c10       ___acrt_log10_table_cb     10152c10     libucrt:log10_tables.obj
 0002:00026030       __xmm@00000000000000000000000000000000 10153030     libvcruntime:wcschr.obj
 0002:00026040       ??_C@_0N@MFFOHPLI@?$CD?$CDBackground@ 10153040     imgui.obj
 0002:00026050       ??_C@_0N@MFHPHIIJ@?$CD?$CDForeground@ 10153050     imgui.obj
 0002:00026060       ??_C@_0BC@EOODALEL@Unknown?5exception@ 10153060     imgui.obj
 0002:00026074       ??_C@_0BF@KINCDENJ@bad?5array?5new?5length@ 10153074     imgui.obj
 0002:00026089       ??_C@_00CNPNBAHC@@         10153089     imgui.obj
 0002:0002608c       ??_C@_01NBENCBCI@?$CK@     1015308c     imgui.obj
 0002:00026090       ??_C@_01GFHCPBMG@C@        10153090     imgui.obj
 0002:00026094       ??_C@_0BB@GCADKGJO@map?1set?5too?5long@ 10153094     imgui.obj
 0002:000260a8       ??_C@_09BJIHMJFE@imgui?4ini@ 101530a8     imgui.obj
 0002:000260b4       ??_C@_0O@HCOAADPE@imgui_log?4txt@ 101530b4     imgui.obj
 0002:000260c4       ??_C@_01GBGANLPD@0@        101530c4     imgui.obj
 0002:000260c8       ??_C@_01HIHLOKLC@1@        101530c8     imgui.obj
 0002:000260cc       ??_C@_01FDFGLJHB@2@        101530cc     imgui.obj
 0002:000260d0       ??_C@_01EKENIIDA@3@        101530d0     imgui.obj
 0002:000260d4       ??_C@_01FAMBOPH@4@         101530d4     imgui.obj
 0002:000260d8       ??_C@_01BMBHCPLG@5@        101530d8     imgui.obj
 0002:000260dc       ??_C@_01DHDKHMHF@6@        101530dc     imgui.obj
 0002:000260e0       ??_C@_01COCBENDE@7@        101530e0     imgui.obj
 0002:000260e4       ??_C@_01KJLJFBPL@8@        101530e4     imgui.obj
 0002:000260e8       ??_C@_01LAKCGALK@9@        101530e8     imgui.obj
 0002:000260ec       ??_C@_01HMGJMAIH@B@        101530ec     imgui.obj
 0002:000260f0       ??_C@_01IGIGCIAN@H@        101530f0     imgui.obj
 0002:000260f4       ??_C@_01OCOKONAJ@L@        101530f4     imgui.obj
 0002:000260f8       ??_C@_01NANMIPIL@N@        101530f8     imgui.obj
 0002:000260fc       ??_C@_01CPLAODJH@S@        101530fc     imgui.obj
 0002:00026100       ??_C@_01FCMHBHNC@V@        10153100     imgui.obj
 0002:00026104       ??_C@_01ELNMCGJD@W@        10153104     imgui.obj
 0002:00026108       ??_C@_04OHJIHAFH@None@     10153108     imgui.obj
 0002:00026110       ??_C@_01JOAMLHOP@?9@       10153110     imgui.obj
 0002:00026114       ??_C@_05EJCOBEBF@?$CDMOVE@ 10153114     imgui.obj
 0002:0002611c       ??_C@_0P@IMLDNMEK@Debug?$CD?$CDDefault@ 1015311c     imgui.obj
 0002:0002612c       ??_C@_0BC@JHPKFIGH@HoveredId?3?50x?$CF08X@ 1015312c     imgui.obj
 0002:00026140       ??_C@_0BM@IIPBLKLJ@Press?5ESC?5to?5abort?5picking?4@ 10153140     imgui.obj
 0002:0002615c       ??_C@_0BM@OPIPEIJO@Click?5to?5break?5in?5debugger?$CB@ 1015315c     imgui.obj
 0002:00026178       ??_C@_06BKKJGDHO@Window@   10153178     imgui.obj
 0002:00026180       ??_C@_03KHICJKCI@?4?4?4@   10153180     imgui.obj
 0002:00026184       ??_C@_07HDHBJEOI@?$CDRESIZE@ 10153184     imgui.obj
 0002:0002618c       ??_C@_09BJOGEADB@?$CDCOLLAPSE@ 1015318c     imgui.obj
 0002:00026198       ??_C@_0P@DHLMFJKK@?$CD?$CDTooltip_?$CF02d@ 10153198     imgui.obj
 0002:000261a8       ??_C@_07NPLNEKJH@?$CIPopup?$CJ@ 101531a8     imgui.obj
 0002:000261b0       ??_C@_0O@BKOLOJFE@?$CD?$CDMainMenuBar@ 101531b0     imgui.obj
 0002:000261c0       ??_C@_0BA@KDPNEDEH@?$CIMain?5menu?5bar?$CJ@ 101531c0     imgui.obj
 0002:000261d0       ??_C@_0L@JOJOIPFK@?$CIUntitled?$CJ@ 101531d0     imgui.obj
 0002:000261dc       ??_C@_0BE@EBHFKNCA@?$CD?$CD?$CDNavWindowingList@ 101531dc     imgui.obj
 0002:000261f0       ??_C@_09FDEMHCFC@?$AN?6?$CF?$CKs?$CF?4?$CKs@ 101531f0     imgui.obj
 0002:000261fc       ??_C@_07LFDEMEGD@?$CF?$CKs?$CF?4?$CKs@ 101531fc     imgui.obj
 0002:00026204       ??_C@_05DBJFMKBA@?5?$CF?4?$CKs@ 10153204     imgui.obj
 0002:0002620c       ??_C@_02PCIJFNDE@?$AN?6@   1015320c     imgui.obj
 0002:00026210       ??_C@_02BOGAIONP@ab@       10153210     imgui.obj
 0002:00026214       ??_C@_03OIJOKPOL@?$CD?$CD?$CD@ 10153214     imgui.obj
 0002:00026218       ??_C@_02JDPG@rb@           10153218     imgui.obj
 0002:0002621c       ??_C@_02BKFDOEMK@wt@       1015321c     imgui.obj
 0002:00026220       ??_C@_09GOMOMIIP@Pos?$DN?$CFi?0?$CFi@ 10153220     imgui.obj
 0002:0002622c       ??_C@_0L@MPPKDMFA@Size?$DN?$CFi?0?$CFi@ 1015322c     imgui.obj
 0002:00026238       ??_C@_0N@IAKNMBB@Collapsed?$DN?$CFd@ 10153238     imgui.obj
 0002:00026248       ??_C@_09HNFDDBIF@?$FL?$CFs?$FN?$FL?$CFs?$FN?6@ 10153248     imgui.obj
 0002:00026254       ??_C@_0L@DDMADIHO@Pos?$DN?$CFd?0?$CFd?6@ 10153254     imgui.obj
 0002:00026260       ??_C@_0M@CFANMDMP@Size?$DN?$CFd?0?$CFd?6@ 10153260     imgui.obj
 0002:0002626c       ??_C@_0O@JAFHMCKE@Collapsed?$DN?$CFd?6@ 1015326c     imgui.obj
 0002:0002627c       ??_C@_01EEMJAFIK@?6@       1015327c     imgui.obj
 0002:00026280       ??_C@_01MNNFJEPP@?$DM@     10153280     imgui.obj
 0002:00026284       ??_C@_01PPODPGHN@?$DO@     10153284     imgui.obj
 0002:00026288       ??_C@_02DPKJAMEF@?$CFd@    10153288     imgui.obj
 0002:0002a578       ?tapSound@@3QBDB           10157578     byte_arrays.obj
 0002:0002f980       ?zeus_config@cheat_tools@@3Uweapon_config_t@@A 1015c980     rage_tools.obj
 0002:0002f9cc       ??_C@_04LOAJBDKD@true@     1015c9cc     imgui_draw.obj
 0002:0002f9d4       ??_C@_04EICJPCEA@cmap@     1015c9d4     imgui_draw.obj
 0002:0002f9dc       ??_C@_04DACNFKGE@loca@     1015c9dc     imgui_draw.obj
 0002:0002f9e4       ??_C@_04NEODDMOL@head@     1015c9e4     imgui_draw.obj
 0002:0002f9ec       ??_C@_04LLIHEPK@glyf@      1015c9ec     imgui_draw.obj
 0002:0002f9f4       ??_C@_04FMPHLIKP@hhea@     1015c9f4     imgui_draw.obj
 0002:0002f9fc       ??_C@_04ONMNCIMC@hmtx@     1015c9fc     imgui_draw.obj
 0002:0002fa04       ??_C@_04HHMMLDJI@kern@     1015ca04     imgui_draw.obj
 0002:0002fa0c       ??_C@_04PCFDEHHD@GPOS@     1015ca0c     imgui_draw.obj
 0002:0002fa14       ??_C@_04HJGCPIEK@CFF?5@    1015ca14     imgui_draw.obj
 0002:0002fa1c       ??_C@_04KODIGLGG@maxp@     1015ca1c     imgui_draw.obj
 0002:0002fa24       ??_C@_0BG@CONABPA@ProggyClean?4ttf?0?5?$CFdpx@ 1015ca24     imgui_draw.obj
 0002:0002fa3c       ??_C@_0L@EPCGLJHG@?$CFs?0?5?$CF?40fpx@ 1015ca3c     imgui_draw.obj
 0002:0002fa64       ??_C@_0P@PJLJBPPP@imgui_impl_dx9@ 1015ca64     imgui_impl_dx9.obj
 0002:0002fa74       ??_C@_19NBHNJNHK@?$AAd?$AA3?$AAd?$AA9@ 1015ca74     imgui_impl_dx9.obj
 0002:0002fa80       ??_C@_0BB@FLGJPPJK@imgui_impl_win32@ 1015ca80     imgui_impl_win32.obj
 0002:0002fa94       ??_C@_08ENAFOMOP@?$CDSCROLLX@ 1015ca94     imgui_widgets.obj
 0002:0002faa0       ??_C@_08FEBONNKO@?$CDSCROLLY@ 1015caa0     imgui_widgets.obj
 0002:0002faac       ??_C@_02GMHACPFF@?$CFu@    1015caac     imgui_widgets.obj
 0002:0002fab0       ??_C@_05LLAMLEHD@?$CFI64d@ 1015cab0     imgui_widgets.obj
 0002:0002fab8       ??_C@_05OINFJHGD@?$CFI64u@ 1015cab8     imgui_widgets.obj
